ARM GAS  /tmp/cca3rxWD.s 			page 1


   1              		.cpu cortex-m7
   2              		.arch armv7e-m
   3              		.fpu fpv5-d16
   4              		.eabi_attribute 28, 1
   5              		.eabi_attribute 20, 1
   6              		.eabi_attribute 21, 1
   7              		.eabi_attribute 23, 3
   8              		.eabi_attribute 24, 1
   9              		.eabi_attribute 25, 1
  10              		.eabi_attribute 26, 1
  11              		.eabi_attribute 30, 2
  12              		.eabi_attribute 34, 1
  13              		.eabi_attribute 18, 4
  14              		.file	"fjol.cpp"
  15              		.text
  16              	.Ltext0:
  17              		.cfi_sections	.debug_frame
  18              		.section	.text._ZN5daisy6SwitchD2Ev,"axG",%progbits,_ZN5daisy6SwitchD5Ev,comdat
  19              		.align	1
  20              		.p2align 2,,3
  21              		.weak	_ZN5daisy6SwitchD2Ev
  22              		.syntax unified
  23              		.thumb
  24              		.thumb_func
  26              	_ZN5daisy6SwitchD2Ev:
  27              	.LVL0:
  28              	.LFB3867:
  29              		.file 1 "libDaisy/src/hid/switch.h"
   1:libDaisy/src/hid/switch.h **** #pragma once
   2:libDaisy/src/hid/switch.h **** #ifndef DSY_SWITCH_H
   3:libDaisy/src/hid/switch.h **** #define DSY_SWITCH_H
   4:libDaisy/src/hid/switch.h **** #include "daisy_core.h"
   5:libDaisy/src/hid/switch.h **** #include "per/gpio.h"
   6:libDaisy/src/hid/switch.h **** #include "sys/system.h"
   7:libDaisy/src/hid/switch.h **** 
   8:libDaisy/src/hid/switch.h **** namespace daisy
   9:libDaisy/src/hid/switch.h **** {
  10:libDaisy/src/hid/switch.h **** /** 
  11:libDaisy/src/hid/switch.h ****     Generic Class for handling momentary/latching switches \n 
  12:libDaisy/src/hid/switch.h ****     Inspired/influenced by Mutable Instruments (pichenettes) Switch classes
  13:libDaisy/src/hid/switch.h ****     @author Stephen Hensley
  14:libDaisy/src/hid/switch.h ****     @date December 2019
  15:libDaisy/src/hid/switch.h ****     @ingroup controls
  16:libDaisy/src/hid/switch.h **** */
  17:libDaisy/src/hid/switch.h **** class Switch
  18:libDaisy/src/hid/switch.h **** {
  19:libDaisy/src/hid/switch.h ****   public:
  20:libDaisy/src/hid/switch.h ****     /** Specifies the expected behavior of the switch */
  21:libDaisy/src/hid/switch.h ****     enum Type
  22:libDaisy/src/hid/switch.h ****     {
  23:libDaisy/src/hid/switch.h ****         TYPE_TOGGLE,    /**< & */
  24:libDaisy/src/hid/switch.h ****         TYPE_MOMENTARY, /**< & */
  25:libDaisy/src/hid/switch.h ****     };
  26:libDaisy/src/hid/switch.h ****     /** Specifies whether the pressed is HIGH or LOW. */
  27:libDaisy/src/hid/switch.h ****     enum Polarity
  28:libDaisy/src/hid/switch.h ****     {
  29:libDaisy/src/hid/switch.h ****         POLARITY_NORMAL,   /**< & */
ARM GAS  /tmp/cca3rxWD.s 			page 2


  30:libDaisy/src/hid/switch.h ****         POLARITY_INVERTED, /**< & */
  31:libDaisy/src/hid/switch.h ****     };
  32:libDaisy/src/hid/switch.h **** 
  33:libDaisy/src/hid/switch.h ****     /** Specifies whether to use built-in Pull Up/Down resistors to hold button at a given state wh
  34:libDaisy/src/hid/switch.h ****     enum Pull
  35:libDaisy/src/hid/switch.h ****     {
  36:libDaisy/src/hid/switch.h ****         PULL_UP,   /**< & */
  37:libDaisy/src/hid/switch.h ****         PULL_DOWN, /**< & */
  38:libDaisy/src/hid/switch.h ****         PULL_NONE, /**< & */
  39:libDaisy/src/hid/switch.h ****     };
  40:libDaisy/src/hid/switch.h **** 
  41:libDaisy/src/hid/switch.h ****     Switch() {}
  42:libDaisy/src/hid/switch.h ****     ~Switch() {}
  30              		.loc 1 42 5 view -0
  31              		.cfi_startproc
  32              		@ args = 0, pretend = 0, frame = 0
  33              		@ frame_needed = 0, uses_anonymous_args = 0
  34              		@ link register save eliminated.
  35              		.loc 1 42 16 is_stmt 0 view .LVU1
  36 0000 7047     		bx	lr
  37              		.cfi_endproc
  38              	.LFE3867:
  40              		.weak	_ZN5daisy6SwitchD1Ev
  41              		.thumb_set _ZN5daisy6SwitchD1Ev,_ZN5daisy6SwitchD2Ev
  42 0002 00BF     		.section	.text._ZN5daisy9DaisySeedD2Ev,"axG",%progbits,_ZN5daisy9DaisySeedD5Ev,comdat
  43              		.align	1
  44              		.p2align 2,,3
  45              		.weak	_ZN5daisy9DaisySeedD2Ev
  46              		.syntax unified
  47              		.thumb
  48              		.thumb_func
  50              	_ZN5daisy9DaisySeedD2Ev:
  51              	.LVL1:
  52              	.LFB4784:
  53              		.file 2 "libDaisy/src/daisy_seed.h"
   1:libDaisy/src/daisy_seed.h **** #pragma once
   2:libDaisy/src/daisy_seed.h **** #ifndef DSY_SEED_H
   3:libDaisy/src/daisy_seed.h **** #define DSY_SEED_H
   4:libDaisy/src/daisy_seed.h **** 
   5:libDaisy/src/daisy_seed.h **** #include "daisy.h"
   6:libDaisy/src/daisy_seed.h **** 
   7:libDaisy/src/daisy_seed.h **** //Uncomment this out if you're still using the rev2 hardware
   8:libDaisy/src/daisy_seed.h **** //#define SEED_REV2
   9:libDaisy/src/daisy_seed.h **** 
  10:libDaisy/src/daisy_seed.h **** namespace daisy
  11:libDaisy/src/daisy_seed.h **** {
  12:libDaisy/src/daisy_seed.h **** /**
  13:libDaisy/src/daisy_seed.h ****    @brief This is the higher-level interface for the Daisy board. \n 
  14:libDaisy/src/daisy_seed.h ****     All basic peripheral configuration/initialization is setup here. \n
  15:libDaisy/src/daisy_seed.h **** 
  16:libDaisy/src/daisy_seed.h ****    @ingroup boards
  17:libDaisy/src/daisy_seed.h **** */
  18:libDaisy/src/daisy_seed.h **** class DaisySeed
  19:libDaisy/src/daisy_seed.h **** {
  20:libDaisy/src/daisy_seed.h ****   public:
  21:libDaisy/src/daisy_seed.h ****     DaisySeed() {}
  22:libDaisy/src/daisy_seed.h ****     ~DaisySeed() {}
ARM GAS  /tmp/cca3rxWD.s 			page 3


  54              		.loc 2 22 5 is_stmt 1 view -0
  55              		.cfi_startproc
  56              		@ args = 0, pretend = 0, frame = 0
  57              		@ frame_needed = 0, uses_anonymous_args = 0
  58              		@ link register save eliminated.
  59              	.LBB526:
  60              	.LBI526:
  61              		.file 3 "libDaisy/src/sys/system.h"
   1:libDaisy/src/sys/system.h **** #ifndef DSY_SYSTEM_H
   2:libDaisy/src/sys/system.h **** #define DSY_SYSTEM_H
   3:libDaisy/src/sys/system.h **** 
   4:libDaisy/src/sys/system.h **** #ifndef UNIT_TEST // for unit tests, a dummy implementation is provided below
   5:libDaisy/src/sys/system.h **** 
   6:libDaisy/src/sys/system.h **** #include <cstdint>
   7:libDaisy/src/sys/system.h **** #include "per/tim.h"
   8:libDaisy/src/sys/system.h **** 
   9:libDaisy/src/sys/system.h **** namespace daisy
  10:libDaisy/src/sys/system.h **** {
  11:libDaisy/src/sys/system.h **** /** A handle for interacting with the Core System. 
  12:libDaisy/src/sys/system.h ****  ** This includes the Clock tree, MPU, global DMA initialization,
  13:libDaisy/src/sys/system.h ****  ** cache handling, and any other necessary global initiailzation
  14:libDaisy/src/sys/system.h ****  **
  15:libDaisy/src/sys/system.h ****  ** @author shensley
  16:libDaisy/src/sys/system.h ****  ** @ingroup system
  17:libDaisy/src/sys/system.h ****  */
  18:libDaisy/src/sys/system.h **** class System
  19:libDaisy/src/sys/system.h **** {
  20:libDaisy/src/sys/system.h ****   public:
  21:libDaisy/src/sys/system.h ****     /** Contains settings for initializing the System */
  22:libDaisy/src/sys/system.h ****     struct Config
  23:libDaisy/src/sys/system.h ****     {
  24:libDaisy/src/sys/system.h ****         /** Specifies the system clock frequency that feeds APB/AHB clocks, etc. */
  25:libDaisy/src/sys/system.h ****         enum class SysClkFreq
  26:libDaisy/src/sys/system.h ****         {
  27:libDaisy/src/sys/system.h ****             FREQ_400MHZ,
  28:libDaisy/src/sys/system.h ****             FREQ_480MHZ,
  29:libDaisy/src/sys/system.h ****         };
  30:libDaisy/src/sys/system.h **** 
  31:libDaisy/src/sys/system.h ****         /** Method to call on the struct to set to defaults
  32:libDaisy/src/sys/system.h ****          ** CPU Freq set to 400MHz
  33:libDaisy/src/sys/system.h ****          ** Cache Enabled 
  34:libDaisy/src/sys/system.h ****          ** */
  35:libDaisy/src/sys/system.h ****         void Defaults()
  36:libDaisy/src/sys/system.h ****         {
  37:libDaisy/src/sys/system.h ****             cpu_freq    = SysClkFreq::FREQ_400MHZ;
  38:libDaisy/src/sys/system.h ****             use_dcache  = true;
  39:libDaisy/src/sys/system.h ****             use_icache  = true;
  40:libDaisy/src/sys/system.h ****             skip_clocks = false;
  41:libDaisy/src/sys/system.h ****         }
  42:libDaisy/src/sys/system.h **** 
  43:libDaisy/src/sys/system.h ****         /** Method to call on the struct to set to boost mode:
  44:libDaisy/src/sys/system.h ****          ** CPU Freq set to 480MHz
  45:libDaisy/src/sys/system.h ****          ** Cache Enabled 
  46:libDaisy/src/sys/system.h ****          ** */
  47:libDaisy/src/sys/system.h ****         void Boost()
  48:libDaisy/src/sys/system.h ****         {
  49:libDaisy/src/sys/system.h ****             cpu_freq    = SysClkFreq::FREQ_480MHZ;
ARM GAS  /tmp/cca3rxWD.s 			page 4


  50:libDaisy/src/sys/system.h ****             use_dcache  = true;
  51:libDaisy/src/sys/system.h ****             use_icache  = true;
  52:libDaisy/src/sys/system.h ****             skip_clocks = false;
  53:libDaisy/src/sys/system.h ****         }
  54:libDaisy/src/sys/system.h **** 
  55:libDaisy/src/sys/system.h ****         SysClkFreq cpu_freq;
  56:libDaisy/src/sys/system.h ****         bool       use_dcache;
  57:libDaisy/src/sys/system.h ****         bool       use_icache;
  58:libDaisy/src/sys/system.h ****         bool       skip_clocks;
  59:libDaisy/src/sys/system.h ****     };
  60:libDaisy/src/sys/system.h **** 
  61:libDaisy/src/sys/system.h ****     /** Describes the different regions of memory available to the Daisy
  62:libDaisy/src/sys/system.h ****      * 
  63:libDaisy/src/sys/system.h ****      */
  64:libDaisy/src/sys/system.h ****     enum MemoryRegion
  65:libDaisy/src/sys/system.h ****     {
  66:libDaisy/src/sys/system.h ****         INTERNAL_FLASH = 0,
  67:libDaisy/src/sys/system.h ****         ITCMRAM,
  68:libDaisy/src/sys/system.h ****         DTCMRAM,
  69:libDaisy/src/sys/system.h ****         SRAM_D1,
  70:libDaisy/src/sys/system.h ****         SRAM_D2,
  71:libDaisy/src/sys/system.h ****         SRAM_D3,
  72:libDaisy/src/sys/system.h ****         SDRAM,
  73:libDaisy/src/sys/system.h ****         QSPI,
  74:libDaisy/src/sys/system.h ****         INVALID_ADDRESS,
  75:libDaisy/src/sys/system.h ****     };
  76:libDaisy/src/sys/system.h **** 
  77:libDaisy/src/sys/system.h ****     System() {}
  78:libDaisy/src/sys/system.h ****     ~System() {}
  62              		.loc 3 78 5 view .LVU3
  63              		.loc 3 78 5 is_stmt 0 view .LVU4
  64              	.LBE526:
  65              	.LBB527:
  66              	.LBI527:
  67              		.file 4 "libDaisy/src/hid/usb.h"
   1:libDaisy/src/hid/usb.h **** #pragma once
   2:libDaisy/src/hid/usb.h **** #ifndef DSY_HID_USB_H
   3:libDaisy/src/hid/usb.h **** #define DSY_HID_USB_H
   4:libDaisy/src/hid/usb.h **** #include <stdint.h>
   5:libDaisy/src/hid/usb.h **** #include <stdlib.h>
   6:libDaisy/src/hid/usb.h **** 
   7:libDaisy/src/hid/usb.h **** namespace daisy
   8:libDaisy/src/hid/usb.h **** /** @addtogroup human_interface
   9:libDaisy/src/hid/usb.h ****     @{
  10:libDaisy/src/hid/usb.h **** */
  11:libDaisy/src/hid/usb.h **** 
  12:libDaisy/src/hid/usb.h **** {
  13:libDaisy/src/hid/usb.h **** /** 
  14:libDaisy/src/hid/usb.h ****     @brief Interface for initializing and using the USB Peripherals on the daisy
  15:libDaisy/src/hid/usb.h ****     @author Stephen Hensley
  16:libDaisy/src/hid/usb.h ****     @date December 2019
  17:libDaisy/src/hid/usb.h **** */
  18:libDaisy/src/hid/usb.h **** class UsbHandle
  19:libDaisy/src/hid/usb.h **** {
  20:libDaisy/src/hid/usb.h ****   public:
  21:libDaisy/src/hid/usb.h ****     /** Return values for USBHandle Functions */
  22:libDaisy/src/hid/usb.h ****     enum class Result
ARM GAS  /tmp/cca3rxWD.s 			page 5


  23:libDaisy/src/hid/usb.h ****     {
  24:libDaisy/src/hid/usb.h ****         OK,
  25:libDaisy/src/hid/usb.h ****         ERR,
  26:libDaisy/src/hid/usb.h ****     };
  27:libDaisy/src/hid/usb.h **** 
  28:libDaisy/src/hid/usb.h ****     /** Specified which of the two USB Peripherals to initialize. */
  29:libDaisy/src/hid/usb.h ****     enum UsbPeriph
  30:libDaisy/src/hid/usb.h ****     {
  31:libDaisy/src/hid/usb.h ****         FS_INTERNAL, /**< Internal pin */
  32:libDaisy/src/hid/usb.h ****         FS_EXTERNAL, /**< FS External D+ pin is Pin 38 (GPIO32). FS External D- pin is Pin 37 (GPIO
  33:libDaisy/src/hid/usb.h ****         FS_BOTH,     /**< Both */
  34:libDaisy/src/hid/usb.h ****     };
  35:libDaisy/src/hid/usb.h **** 
  36:libDaisy/src/hid/usb.h **** 
  37:libDaisy/src/hid/usb.h ****     /** Function called upon reception of a buffer */
  38:libDaisy/src/hid/usb.h ****     typedef void (*ReceiveCallback)(uint8_t* buff, uint32_t* len);
  39:libDaisy/src/hid/usb.h **** 
  40:libDaisy/src/hid/usb.h ****     UsbHandle() {}
  41:libDaisy/src/hid/usb.h **** 
  42:libDaisy/src/hid/usb.h ****     ~UsbHandle() {}
  68              		.loc 4 42 5 is_stmt 1 view .LVU5
  69              		.loc 4 42 5 is_stmt 0 view .LVU6
  70              	.LBE527:
  71              	.LBB528:
  72              	.LBI528:
  73              		.file 5 "libDaisy/src/per/adc.h"
   1:libDaisy/src/per/adc.h **** #pragma once
   2:libDaisy/src/per/adc.h **** #ifndef DSY_ADC_H
   3:libDaisy/src/per/adc.h **** #define DSY_ADC_H /**< Macro */
   4:libDaisy/src/per/adc.h **** #include <stdint.h>
   5:libDaisy/src/per/adc.h **** #include <stdlib.h>
   6:libDaisy/src/per/adc.h **** #include "daisy_core.h"
   7:libDaisy/src/per/adc.h **** #include "per/gpio.h"
   8:libDaisy/src/per/adc.h **** 
   9:libDaisy/src/per/adc.h **** #define DSY_ADC_MAX_CHANNELS 16 /**< Maximum number of ADC channels */
  10:libDaisy/src/per/adc.h **** 
  11:libDaisy/src/per/adc.h **** namespace daisy
  12:libDaisy/src/per/adc.h **** {
  13:libDaisy/src/per/adc.h **** /** @addtogroup per_analog
  14:libDaisy/src/per/adc.h ****     @{
  15:libDaisy/src/per/adc.h **** */
  16:libDaisy/src/per/adc.h **** 
  17:libDaisy/src/per/adc.h **** /* While there may not be many configuration options here,
  18:libDaisy/src/per/adc.h **** using a struct like this allows us to add more configuration
  19:libDaisy/src/per/adc.h **** later without breaking existing functionality.
  20:libDaisy/src/per/adc.h **** */
  21:libDaisy/src/per/adc.h **** 
  22:libDaisy/src/per/adc.h **** /** @brief   Configuration Structure for an ADC Channel 
  23:libDaisy/src/per/adc.h ****  *  @details This can be used to configure a a single input, 
  24:libDaisy/src/per/adc.h ****  *           or a multiplexed input, allowing up to 8 inputs on 
  25:libDaisy/src/per/adc.h ****  *           one channel.
  26:libDaisy/src/per/adc.h ****  *  @note    Sharing data lines to multiple muxes _is_ possible, but
  27:libDaisy/src/per/adc.h ****  *           each channel sharing data lines must be set to the maximum
  28:libDaisy/src/per/adc.h ****  *           number of channels, even if some multiplexers have fewer
  29:libDaisy/src/per/adc.h ****  *           inputs connected.
  30:libDaisy/src/per/adc.h **** */
  31:libDaisy/src/per/adc.h **** struct AdcChannelConfig
ARM GAS  /tmp/cca3rxWD.s 			page 6


  32:libDaisy/src/per/adc.h **** {
  33:libDaisy/src/per/adc.h ****     /** Which pin to use for multiplexing */
  34:libDaisy/src/per/adc.h ****     enum MuxPin
  35:libDaisy/src/per/adc.h ****     {
  36:libDaisy/src/per/adc.h ****         MUX_SEL_0,    /**< & */
  37:libDaisy/src/per/adc.h ****         MUX_SEL_1,    /**< & */
  38:libDaisy/src/per/adc.h ****         MUX_SEL_2,    /**< & */
  39:libDaisy/src/per/adc.h ****         MUX_SEL_LAST, /**< & */
  40:libDaisy/src/per/adc.h ****     };
  41:libDaisy/src/per/adc.h **** 
  42:libDaisy/src/per/adc.h ****     /** Initializes a single ADC pin as an ADC. 
  43:libDaisy/src/per/adc.h ****     \param pin Pin to init.
  44:libDaisy/src/per/adc.h ****      */
  45:libDaisy/src/per/adc.h ****     void InitSingle(dsy_gpio_pin pin);
  46:libDaisy/src/per/adc.h **** 
  47:libDaisy/src/per/adc.h ****     /** 
  48:libDaisy/src/per/adc.h ****     Initializes a single ADC pin as a Multiplexed ADC.
  49:libDaisy/src/per/adc.h ****     Requires a CD405X Multiplexer connected to the pin.
  50:libDaisy/src/per/adc.h ****     You only need to supply the mux pins that are required,
  51:libDaisy/src/per/adc.h ****     e.g. a 4052 mux would only require mux_0 and mux_1.
  52:libDaisy/src/per/adc.h ****     Internal Callbacks handle the pin addressing.
  53:libDaisy/src/per/adc.h ****     \param mux_channels must be 1-8
  54:libDaisy/src/per/adc.h ****     \param mux_0 First mux pin
  55:libDaisy/src/per/adc.h ****     \param mux_1 Second mux pin
  56:libDaisy/src/per/adc.h ****     \param mux_2 Third mux pin
  57:libDaisy/src/per/adc.h ****     \param adc_pin &
  58:libDaisy/src/per/adc.h ****     */
  59:libDaisy/src/per/adc.h ****     void InitMux(dsy_gpio_pin adc_pin,
  60:libDaisy/src/per/adc.h ****                  size_t       mux_channels,
  61:libDaisy/src/per/adc.h ****                  dsy_gpio_pin mux_0,
  62:libDaisy/src/per/adc.h ****                  dsy_gpio_pin mux_1 = {DSY_GPIOX, 0},
  63:libDaisy/src/per/adc.h ****                  dsy_gpio_pin mux_2 = {DSY_GPIOX, 0});
  64:libDaisy/src/per/adc.h **** 
  65:libDaisy/src/per/adc.h ****     dsy_gpio pin_;                   /**< & */
  66:libDaisy/src/per/adc.h ****     dsy_gpio mux_pin_[MUX_SEL_LAST]; /**< & */
  67:libDaisy/src/per/adc.h ****     uint8_t  mux_channels_;          /**< & */
  68:libDaisy/src/per/adc.h **** };
  69:libDaisy/src/per/adc.h **** 
  70:libDaisy/src/per/adc.h **** /**
  71:libDaisy/src/per/adc.h ****    @brief Handler for analog to digital conversion
  72:libDaisy/src/per/adc.h **** */
  73:libDaisy/src/per/adc.h **** class AdcHandle
  74:libDaisy/src/per/adc.h **** {
  75:libDaisy/src/per/adc.h ****   public:
  76:libDaisy/src/per/adc.h ****     /** Supported oversampling amounts */
  77:libDaisy/src/per/adc.h ****     enum OverSampling
  78:libDaisy/src/per/adc.h ****     {
  79:libDaisy/src/per/adc.h ****         OVS_NONE, /**< & */
  80:libDaisy/src/per/adc.h ****         OVS_4,    /**< & */
  81:libDaisy/src/per/adc.h ****         OVS_8,    /**< & */
  82:libDaisy/src/per/adc.h ****         OVS_16,   /**< & */
  83:libDaisy/src/per/adc.h ****         OVS_32,   /**< & */
  84:libDaisy/src/per/adc.h ****         OVS_64,   /**< & */
  85:libDaisy/src/per/adc.h ****         OVS_128,  /**< & */
  86:libDaisy/src/per/adc.h ****         OVS_256,  /**< & */
  87:libDaisy/src/per/adc.h ****         OVS_512,  /**< & */
  88:libDaisy/src/per/adc.h ****         OVS_1024, /**< & */
ARM GAS  /tmp/cca3rxWD.s 			page 7


  89:libDaisy/src/per/adc.h ****         OVS_LAST, /**< & */
  90:libDaisy/src/per/adc.h ****     };
  91:libDaisy/src/per/adc.h **** 
  92:libDaisy/src/per/adc.h ****     AdcHandle() {}
  93:libDaisy/src/per/adc.h ****     ~AdcHandle() {}
  74              		.loc 5 93 5 is_stmt 1 view .LVU7
  75              		.loc 5 93 5 is_stmt 0 view .LVU8
  76              	.LBE528:
  77              	.LBB529:
  78              	.LBI529:
  79              		.file 6 "libDaisy/src/hid/audio.h"
   1:libDaisy/src/hid/audio.h **** #ifndef DSY_AUDIO_H
   2:libDaisy/src/hid/audio.h **** #define DSY_AUDIO_H /**< & */
   3:libDaisy/src/hid/audio.h **** 
   4:libDaisy/src/hid/audio.h **** #include "per/sai.h"
   5:libDaisy/src/hid/audio.h **** 
   6:libDaisy/src/hid/audio.h **** namespace daisy
   7:libDaisy/src/hid/audio.h **** {
   8:libDaisy/src/hid/audio.h **** /** @brief Audio Engine Handle
   9:libDaisy/src/hid/audio.h ****  *  @ingroup audio 
  10:libDaisy/src/hid/audio.h ****  *  @details This class allows for higher level access to an audio engine.
  11:libDaisy/src/hid/audio.h ****  *           If you're using a SOM like the DaisySeed or DaisyPatchSM (or any 
  12:libDaisy/src/hid/audio.h ****  *            board that includes one of those objects) then the intialization
  13:libDaisy/src/hid/audio.h ****  *            is already taken  care of.
  14:libDaisy/src/hid/audio.h ****  *           If you're setting up your own custom hardware, or need to make changes
  15:libDaisy/src/hid/audio.h ****  *           you will have to take the following steps:
  16:libDaisy/src/hid/audio.h ****  *             1. Create and Initialize an SaiHandle or two depending on your requirements
  17:libDaisy/src/hid/audio.h ****  *             2. Initialize the Audio Handle with the desired settings and the Initialized SaiHand
  18:libDaisy/src/hid/audio.h ****  *             3. If the connected codec requires special configuration or initialization, do so
  19:libDaisy/src/hid/audio.h ****  *             4. Write a callback method using either the AudioCallback or the InterleavingAudioCa
  20:libDaisy/src/hid/audio.h ****  *             5. Start the Audio using one of the StartAudio function
  21:libDaisy/src/hid/audio.h ****  */
  22:libDaisy/src/hid/audio.h **** class AudioHandle
  23:libDaisy/src/hid/audio.h **** {
  24:libDaisy/src/hid/audio.h ****   public:
  25:libDaisy/src/hid/audio.h ****     /** Manually configurable details about the Audio Engine */
  26:libDaisy/src/hid/audio.h ****     /** TODO: Figure out how to get samplerate in here. */
  27:libDaisy/src/hid/audio.h ****     struct Config
  28:libDaisy/src/hid/audio.h ****     {
  29:libDaisy/src/hid/audio.h ****         /** number of samples to process per callback */
  30:libDaisy/src/hid/audio.h ****         size_t blocksize;
  31:libDaisy/src/hid/audio.h **** 
  32:libDaisy/src/hid/audio.h ****         /**< Sample rate of audio */
  33:libDaisy/src/hid/audio.h ****         SaiHandle::Config::SampleRate samplerate;
  34:libDaisy/src/hid/audio.h **** 
  35:libDaisy/src/hid/audio.h ****         /** factor for adjustment before and after callback for hardware that may have extra headro
  36:libDaisy/src/hid/audio.h ****         float postgain;
  37:libDaisy/src/hid/audio.h **** 
  38:libDaisy/src/hid/audio.h ****         /** factor for additional one-sided compensation to audio path for hardware that may
  39:libDaisy/src/hid/audio.h ****          *  have unequal input/output ranges
  40:libDaisy/src/hid/audio.h ****          */
  41:libDaisy/src/hid/audio.h ****         float output_compensation;
  42:libDaisy/src/hid/audio.h **** 
  43:libDaisy/src/hid/audio.h ****         /** Sets default values for config struct */
  44:libDaisy/src/hid/audio.h ****         Config()
  45:libDaisy/src/hid/audio.h ****         : blocksize(48),
  46:libDaisy/src/hid/audio.h ****           samplerate(SaiHandle::Config::SampleRate::SAI_48KHZ),
ARM GAS  /tmp/cca3rxWD.s 			page 8


  47:libDaisy/src/hid/audio.h ****           postgain(1.f),
  48:libDaisy/src/hid/audio.h ****           output_compensation(1.f)
  49:libDaisy/src/hid/audio.h ****         {
  50:libDaisy/src/hid/audio.h ****         }
  51:libDaisy/src/hid/audio.h ****     };
  52:libDaisy/src/hid/audio.h **** 
  53:libDaisy/src/hid/audio.h ****     enum class Result
  54:libDaisy/src/hid/audio.h ****     {
  55:libDaisy/src/hid/audio.h ****         OK,
  56:libDaisy/src/hid/audio.h ****         ERR,
  57:libDaisy/src/hid/audio.h ****     };
  58:libDaisy/src/hid/audio.h **** 
  59:libDaisy/src/hid/audio.h ****     /** Non-Interleaving input buffer
  60:libDaisy/src/hid/audio.h ****      * Buffer arranged by float[chn][sample] 
  61:libDaisy/src/hid/audio.h ****      * const so that the user can't modify the input
  62:libDaisy/src/hid/audio.h ****      */
  63:libDaisy/src/hid/audio.h ****     typedef const float* const* InputBuffer;
  64:libDaisy/src/hid/audio.h **** 
  65:libDaisy/src/hid/audio.h ****     /** Non-Interleaving output buffer
  66:libDaisy/src/hid/audio.h ****      * Arranged by float[chn][sample] 
  67:libDaisy/src/hid/audio.h ****      */
  68:libDaisy/src/hid/audio.h ****     typedef float** OutputBuffer;
  69:libDaisy/src/hid/audio.h **** 
  70:libDaisy/src/hid/audio.h ****     /** Type for a Non-Interleaving audio callback 
  71:libDaisy/src/hid/audio.h ****      * Non-Interleaving audio callbacks in daisy will be of this type
  72:libDaisy/src/hid/audio.h ****      */
  73:libDaisy/src/hid/audio.h ****     typedef void (*AudioCallback)(InputBuffer  in,
  74:libDaisy/src/hid/audio.h ****                                   OutputBuffer out,
  75:libDaisy/src/hid/audio.h ****                                   size_t       size);
  76:libDaisy/src/hid/audio.h **** 
  77:libDaisy/src/hid/audio.h ****     /** Interleaving Input buffer
  78:libDaisy/src/hid/audio.h ****      ** audio is prepared as { L0, R0, L1, R1, . . . LN, RN }]
  79:libDaisy/src/hid/audio.h ****      ** this is const, as the user shouldn't modify it
  80:libDaisy/src/hid/audio.h ****     */
  81:libDaisy/src/hid/audio.h ****     typedef const float* InterleavingInputBuffer;
  82:libDaisy/src/hid/audio.h **** 
  83:libDaisy/src/hid/audio.h ****     /** Interleaving Output buffer 
  84:libDaisy/src/hid/audio.h ****      ** audio is prepared as { L0, R0, L1, R1, . . . LN, RN }
  85:libDaisy/src/hid/audio.h ****     */
  86:libDaisy/src/hid/audio.h ****     typedef float* InterleavingOutputBuffer;
  87:libDaisy/src/hid/audio.h **** 
  88:libDaisy/src/hid/audio.h ****     /** Interleaving Audio Callback 
  89:libDaisy/src/hid/audio.h ****      * Interleaving audio callbacks in daisy must be of this type
  90:libDaisy/src/hid/audio.h ****      */
  91:libDaisy/src/hid/audio.h ****     typedef void (*InterleavingAudioCallback)(InterleavingInputBuffer  in,
  92:libDaisy/src/hid/audio.h ****                                               InterleavingOutputBuffer out,
  93:libDaisy/src/hid/audio.h ****                                               size_t                   size);
  94:libDaisy/src/hid/audio.h **** 
  95:libDaisy/src/hid/audio.h ****     AudioHandle() : pimpl_(nullptr) {}
  96:libDaisy/src/hid/audio.h ****     ~AudioHandle() {}
  80              		.loc 6 96 5 is_stmt 1 view .LVU9
  81              		.loc 6 96 5 is_stmt 0 view .LVU10
  82              	.LBE529:
  83              		.loc 2 22 19 view .LVU11
  84 0000 7047     		bx	lr
  85              		.cfi_endproc
  86              	.LFE4784:
ARM GAS  /tmp/cca3rxWD.s 			page 9


  88              		.weak	_ZN5daisy9DaisySeedD1Ev
  89              		.thumb_set _ZN5daisy9DaisySeedD1Ev,_ZN5daisy9DaisySeedD2Ev
  90 0002 00BF     		.section	.text.__tcf_0,"ax",%progbits
  91              		.align	1
  92              		.p2align 2,,3
  93              		.syntax unified
  94              		.thumb
  95              		.thumb_func
  97              	__tcf_0:
  98              	.LFB5418:
  99              		.file 7 "fjol.cpp"
   1:fjol.cpp      **** #include "daisysp.h"
   2:fjol.cpp      **** #include "daisy_seed.h"
   3:fjol.cpp      **** #include "settings.h"
   4:fjol.cpp      **** #include "variables.h"
   5:fjol.cpp      **** using namespace daisysp;
   6:fjol.cpp      **** using namespace daisy;
   7:fjol.cpp      **** 
   8:fjol.cpp      **** static DaisySeed  hw;
   9:fjol.cpp      **** I2CHandle i2c;
  10:fjol.cpp      **** 
  11:fjol.cpp      **** //struct for saving and loading data between restarts
  12:fjol.cpp      **** struct data
  13:fjol.cpp      ****   {
  14:fjol.cpp      ****     float d_param[8] = {0,0,0,0,0,0,0,0};
  15:fjol.cpp      ****     //ctl1dest,ctl1cvdest,ctl2dest,ctl2cvdest,algorithm,midi_channel
  16:fjol.cpp      ****     uint8_t d_states[6] = {0,0,4,4,0,1}; //
  17:fjol.cpp      ****   };
  18:fjol.cpp      **** float DSY_QSPI_BSS qspi_buffer[sizeof(data)];
  19:fjol.cpp      **** 
  20:fjol.cpp      **** static constexpr I2CHandle::Config i2c_config
  21:fjol.cpp      ****     = {I2CHandle::Config::Peripheral::I2C_1,
  22:fjol.cpp      ****        {{DSY_GPIOB, 8}, {DSY_GPIOB, 9}},
  23:fjol.cpp      ****        I2CHandle::Config::Speed::I2C_1MHZ};
  24:fjol.cpp      **** 
  25:fjol.cpp      **** MidiUartHandler midi; //initialize midi object
  26:fjol.cpp      **** //ADC configuration object
  27:fjol.cpp      **** AdcChannelConfig adcConfig;
  28:fjol.cpp      **** 
  29:fjol.cpp      **** struct envStruc //amplitude envelope
  30:fjol.cpp      **** {
  31:fjol.cpp      ****   Adsr env;
  32:fjol.cpp      ****   float attack;
  33:fjol.cpp      ****   float release;
  34:fjol.cpp      ****   float envSig;
  35:fjol.cpp      ****   bool gate;
  36:fjol.cpp      **** };
  37:fjol.cpp      **** 
  38:fjol.cpp      **** struct ADStruc //for filter envelope
  39:fjol.cpp      **** {
  40:fjol.cpp      ****   AdEnv env;
  41:fjol.cpp      ****   float attack;
  42:fjol.cpp      ****   float release;
  43:fjol.cpp      ****   float envSig;
  44:fjol.cpp      **** };
  45:fjol.cpp      **** 
  46:fjol.cpp      **** struct op
ARM GAS  /tmp/cca3rxWD.s 			page 10


  47:fjol.cpp      **** {
  48:fjol.cpp      ****   Oscillator op1;
  49:fjol.cpp      ****   Oscillator op2;
  50:fjol.cpp      ****   Oscillator op3;
  51:fjol.cpp      ****   
  52:fjol.cpp      ****   //pan of voice
  53:fjol.cpp      ****   float panL = 0; 
  54:fjol.cpp      ****   float panR = 0;
  55:fjol.cpp      ****   //operator routing
  56:fjol.cpp      ****   bool op32; //op3 to op2
  57:fjol.cpp      ****   bool op31; //op3 to op1
  58:fjol.cpp      ****   bool op21; //op2 to op1 
  59:fjol.cpp      ****   bool op2out; //op2 to audio output
  60:fjol.cpp      ****   //amplitude of operators
  61:fjol.cpp      ****   float op1amp = 0.75;
  62:fjol.cpp      ****   float op2amp;
  63:fjol.cpp      ****   float op3amp;
  64:fjol.cpp      ****   //ratio of operators
  65:fjol.cpp      ****   float ratio2;
  66:fjol.cpp      ****   float ratio3;
  67:fjol.cpp      ****   //detune of operator2 and 3
  68:fjol.cpp      ****   float op2_detune;
  69:fjol.cpp      ****   float op3_detune;
  70:fjol.cpp      **** };
  71:fjol.cpp      **** 
  72:fjol.cpp      **** struct filter_
  73:fjol.cpp      **** {
  74:fjol.cpp      ****   Svf filter;
  75:fjol.cpp      ****   float freq;
  76:fjol.cpp      ****   float res;
  77:fjol.cpp      ****   float drive = 0;
  78:fjol.cpp      **** };
  79:fjol.cpp      **** 
  80:fjol.cpp      **** struct gate_i
  81:fjol.cpp      **** {
  82:fjol.cpp      ****   GateIn gate;
  83:fjol.cpp      **** };
  84:fjol.cpp      **** 
  85:fjol.cpp      **** struct knob
  86:fjol.cpp      **** {
  87:fjol.cpp      ****   AnalogControl input;
  88:fjol.cpp      ****   Parameter param;
  89:fjol.cpp      ****   float value;
  90:fjol.cpp      **** };
  91:fjol.cpp      **** 
  92:fjol.cpp      **** struct rotary
  93:fjol.cpp      **** {
  94:fjol.cpp      ****     Encoder enc;
  95:fjol.cpp      ****     uint8_t ctldest = 0;
  96:fjol.cpp      ****     uint8_t ctlcvdest = 0;
  97:fjol.cpp      **** };
  98:fjol.cpp      **** 
  99:fjol.cpp      **** op voice[voicecount]; 
 100              		.loc 7 99 4 is_stmt 1 view -0
 101              		.cfi_startproc
 102              		@ args = 0, pretend = 0, frame = 0
 103              		@ frame_needed = 0, uses_anonymous_args = 0
ARM GAS  /tmp/cca3rxWD.s 			page 11


 104              		@ link register save eliminated.
 105              		.loc 7 99 4 is_stmt 0 view .LVU13
 106 0000 7047     		bx	lr
 107              		.cfi_endproc
 108              	.LFE5418:
 110 0002 00BF     		.section	.text._ZN7ADStrucD2Ev,"axG",%progbits,_ZN7ADStrucD5Ev,comdat
 111              		.align	1
 112              		.p2align 2,,3
 113              		.weak	_ZN7ADStrucD2Ev
 114              		.syntax unified
 115              		.thumb
 116              		.thumb_func
 118              	_ZN7ADStrucD2Ev:
 119              	.LVL2:
 120              	.LFB5424:
  38:fjol.cpp      **** {
 121              		.loc 7 38 8 is_stmt 1 view -0
 122              		.cfi_startproc
 123              		@ args = 0, pretend = 0, frame = 0
 124              		@ frame_needed = 0, uses_anonymous_args = 0
 125              		@ link register save eliminated.
 126              	.LBB530:
 127              	.LBI530:
 128              		.file 8 "DaisySP/Source/Control/adenv.h"
   1:DaisySP/Source/Control/adenv.h **** #pragma once
   2:DaisySP/Source/Control/adenv.h **** #ifndef ADENV_H
   3:DaisySP/Source/Control/adenv.h **** #define ADENV_H
   4:DaisySP/Source/Control/adenv.h **** #include <stdint.h>
   5:DaisySP/Source/Control/adenv.h **** #ifdef __cplusplus
   6:DaisySP/Source/Control/adenv.h **** 
   7:DaisySP/Source/Control/adenv.h **** namespace daisysp
   8:DaisySP/Source/Control/adenv.h **** {
   9:DaisySP/Source/Control/adenv.h **** /** Distinct stages that the phase of the envelope can be located in.
  10:DaisySP/Source/Control/adenv.h ****     @see AdEnv
  11:DaisySP/Source/Control/adenv.h **** */
  12:DaisySP/Source/Control/adenv.h **** enum AdEnvSegment
  13:DaisySP/Source/Control/adenv.h **** {
  14:DaisySP/Source/Control/adenv.h ****     /** located at phase location 0, and not currently running */
  15:DaisySP/Source/Control/adenv.h ****     ADENV_SEG_IDLE,
  16:DaisySP/Source/Control/adenv.h ****     /** First segment of envelope where phase moves from MIN value to MAX value */
  17:DaisySP/Source/Control/adenv.h ****     ADENV_SEG_ATTACK,
  18:DaisySP/Source/Control/adenv.h ****     /** Second segment of envelope where phase moves from MAX to MIN value */
  19:DaisySP/Source/Control/adenv.h ****     ADENV_SEG_DECAY,
  20:DaisySP/Source/Control/adenv.h ****     /** The final segment of the envelope (currently decay) */
  21:DaisySP/Source/Control/adenv.h ****     ADENV_SEG_LAST,
  22:DaisySP/Source/Control/adenv.h **** };
  23:DaisySP/Source/Control/adenv.h **** 
  24:DaisySP/Source/Control/adenv.h **** /** Trigger-able envelope with adjustable min/max, and independent per-segment time control.
  25:DaisySP/Source/Control/adenv.h **** 
  26:DaisySP/Source/Control/adenv.h ****     \author shensley
  27:DaisySP/Source/Control/adenv.h ****     \todo - Add Cycling
  28:DaisySP/Source/Control/adenv.h ****     \todo - Implement Curve (its only linear for now).
  29:DaisySP/Source/Control/adenv.h ****     \todo - Maybe make this an ADsr_ that has AD/AR/Asr_ modes.
  30:DaisySP/Source/Control/adenv.h ****  */
  31:DaisySP/Source/Control/adenv.h **** class AdEnv
  32:DaisySP/Source/Control/adenv.h **** {
  33:DaisySP/Source/Control/adenv.h ****   public:
ARM GAS  /tmp/cca3rxWD.s 			page 12


  34:DaisySP/Source/Control/adenv.h ****     AdEnv() {}
  35:DaisySP/Source/Control/adenv.h ****     ~AdEnv() {}
 129              		.loc 8 35 5 view .LVU15
 130              		.loc 8 35 5 is_stmt 0 view .LVU16
 131              	.LBE530:
  38:fjol.cpp      **** {
 132              		.loc 7 38 8 view .LVU17
 133 0000 7047     		bx	lr
 134              		.cfi_endproc
 135              	.LFE5424:
 137              		.weak	_ZN7ADStrucD1Ev
 138              		.thumb_set _ZN7ADStrucD1Ev,_ZN7ADStrucD2Ev
 139 0002 00BF     		.section	.text._ZN5daisy11MidiHandlerINS_17MidiUartTransportEED2Ev,"axG",%progbits,_ZN5daisy11Midi
 140              		.align	1
 141              		.p2align 2,,3
 142              		.weak	_ZN5daisy11MidiHandlerINS_17MidiUartTransportEED2Ev
 143              		.syntax unified
 144              		.thumb
 145              		.thumb_func
 147              	_ZN5daisy11MidiHandlerINS_17MidiUartTransportEED2Ev:
 148              	.LVL3:
 149              	.LFB5445:
 150              		.file 9 "libDaisy/src/hid/midi.h"
   1:libDaisy/src/hid/midi.h **** #pragma once
   2:libDaisy/src/hid/midi.h **** #ifndef DSY_MIDI_H
   3:libDaisy/src/hid/midi.h **** #define DSY_MIDI_H
   4:libDaisy/src/hid/midi.h **** 
   5:libDaisy/src/hid/midi.h **** // TODO: make this adjustable
   6:libDaisy/src/hid/midi.h **** #define SYSEX_BUFFER_LEN 128
   7:libDaisy/src/hid/midi.h **** 
   8:libDaisy/src/hid/midi.h **** #include <stdint.h>
   9:libDaisy/src/hid/midi.h **** #include <stdlib.h>
  10:libDaisy/src/hid/midi.h **** #include "per/uart.h"
  11:libDaisy/src/hid/midi.h **** #include "util/ringbuffer.h"
  12:libDaisy/src/hid/midi.h **** #include "hid/MidiEvent.h"
  13:libDaisy/src/hid/midi.h **** #include "hid/usb_midi.h"
  14:libDaisy/src/hid/midi.h **** #include "sys/system.h"
  15:libDaisy/src/hid/midi.h **** 
  16:libDaisy/src/hid/midi.h **** namespace daisy
  17:libDaisy/src/hid/midi.h **** {
  18:libDaisy/src/hid/midi.h **** /** @brief   Transport layer for sending and receiving MIDI data over UART 
  19:libDaisy/src/hid/midi.h ****  *  @details This is the mode of communication used for TRS and DIN MIDI
  20:libDaisy/src/hid/midi.h ****  *  @ingroup midi
  21:libDaisy/src/hid/midi.h **** */
  22:libDaisy/src/hid/midi.h **** class MidiUartTransport
  23:libDaisy/src/hid/midi.h **** {
  24:libDaisy/src/hid/midi.h ****   public:
  25:libDaisy/src/hid/midi.h ****     MidiUartTransport() {}
  26:libDaisy/src/hid/midi.h ****     ~MidiUartTransport() {}
  27:libDaisy/src/hid/midi.h **** 
  28:libDaisy/src/hid/midi.h ****     struct Config
  29:libDaisy/src/hid/midi.h ****     {
  30:libDaisy/src/hid/midi.h ****         UartHandler::Config::Peripheral periph;
  31:libDaisy/src/hid/midi.h ****         dsy_gpio_pin                    rx;
  32:libDaisy/src/hid/midi.h ****         dsy_gpio_pin                    tx;
  33:libDaisy/src/hid/midi.h **** 
  34:libDaisy/src/hid/midi.h ****         Config()
ARM GAS  /tmp/cca3rxWD.s 			page 13


  35:libDaisy/src/hid/midi.h ****         {
  36:libDaisy/src/hid/midi.h ****             periph = UartHandler::Config::Peripheral::USART_1;
  37:libDaisy/src/hid/midi.h ****             rx     = {DSY_GPIOB, 7};
  38:libDaisy/src/hid/midi.h ****             tx     = {DSY_GPIOB, 6};
  39:libDaisy/src/hid/midi.h ****         }
  40:libDaisy/src/hid/midi.h ****     };
  41:libDaisy/src/hid/midi.h **** 
  42:libDaisy/src/hid/midi.h ****     inline void Init(Config config)
  43:libDaisy/src/hid/midi.h ****     {
  44:libDaisy/src/hid/midi.h ****         UartHandler::Config uart_config;
  45:libDaisy/src/hid/midi.h **** 
  46:libDaisy/src/hid/midi.h ****         //defaults
  47:libDaisy/src/hid/midi.h ****         uart_config.baudrate   = 31250;
  48:libDaisy/src/hid/midi.h ****         uart_config.stopbits   = UartHandler::Config::StopBits::BITS_1;
  49:libDaisy/src/hid/midi.h ****         uart_config.parity     = UartHandler::Config::Parity::NONE;
  50:libDaisy/src/hid/midi.h ****         uart_config.mode       = UartHandler::Config::Mode::TX_RX;
  51:libDaisy/src/hid/midi.h ****         uart_config.wordlength = UartHandler::Config::WordLength::BITS_8;
  52:libDaisy/src/hid/midi.h **** 
  53:libDaisy/src/hid/midi.h ****         //user settings
  54:libDaisy/src/hid/midi.h ****         uart_config.periph        = config.periph;
  55:libDaisy/src/hid/midi.h ****         uart_config.pin_config.rx = config.rx;
  56:libDaisy/src/hid/midi.h ****         uart_config.pin_config.tx = config.tx;
  57:libDaisy/src/hid/midi.h **** 
  58:libDaisy/src/hid/midi.h ****         uart_.Init(uart_config);
  59:libDaisy/src/hid/midi.h ****     }
  60:libDaisy/src/hid/midi.h **** 
  61:libDaisy/src/hid/midi.h ****     inline void    StartRx() { uart_.StartRx(); }
  62:libDaisy/src/hid/midi.h ****     inline size_t  Readable() { return uart_.Readable(); }
  63:libDaisy/src/hid/midi.h ****     inline uint8_t Rx() { return uart_.PopRx(); }
  64:libDaisy/src/hid/midi.h ****     inline bool    RxActive() { return uart_.RxActive(); }
  65:libDaisy/src/hid/midi.h ****     inline void    FlushRx() { uart_.FlushRx(); }
  66:libDaisy/src/hid/midi.h ****     inline void    Tx(uint8_t* buff, size_t size) { uart_.PollTx(buff, size); }
  67:libDaisy/src/hid/midi.h **** 
  68:libDaisy/src/hid/midi.h ****   private:
  69:libDaisy/src/hid/midi.h ****     UartHandler uart_;
  70:libDaisy/src/hid/midi.h **** };
  71:libDaisy/src/hid/midi.h **** 
  72:libDaisy/src/hid/midi.h **** /** 
  73:libDaisy/src/hid/midi.h ****     @brief Simple MIDI Handler \n 
  74:libDaisy/src/hid/midi.h ****     Parses bytes from an input into valid MidiEvents. \n 
  75:libDaisy/src/hid/midi.h ****     The MidiEvents fill a FIFO queue that the user can pop messages from.
  76:libDaisy/src/hid/midi.h ****     @author shensley
  77:libDaisy/src/hid/midi.h ****     @date March 2020
  78:libDaisy/src/hid/midi.h ****     @ingroup midi
  79:libDaisy/src/hid/midi.h **** */
  80:libDaisy/src/hid/midi.h **** template <typename Transport>
  81:libDaisy/src/hid/midi.h **** class MidiHandler
  82:libDaisy/src/hid/midi.h **** {
  83:libDaisy/src/hid/midi.h ****   public:
  84:libDaisy/src/hid/midi.h ****     MidiHandler() {}
  85:libDaisy/src/hid/midi.h ****     ~MidiHandler() {}
 151              		.loc 9 85 5 is_stmt 1 view -0
 152              		.cfi_startproc
 153              		@ args = 0, pretend = 0, frame = 0
 154              		@ frame_needed = 0, uses_anonymous_args = 0
 155              		@ link register save eliminated.
 156              	.LBB531:
ARM GAS  /tmp/cca3rxWD.s 			page 14


 157              	.LBI531:
  26:libDaisy/src/hid/midi.h **** 
 158              		.loc 9 26 5 view .LVU19
  26:libDaisy/src/hid/midi.h **** 
 159              		.loc 9 26 5 is_stmt 0 view .LVU20
 160              	.LBE531:
 161              		.loc 9 85 21 view .LVU21
 162 0000 7047     		bx	lr
 163              		.cfi_endproc
 164              	.LFE5445:
 166              		.weak	_ZN5daisy11MidiHandlerINS_17MidiUartTransportEED1Ev
 167              		.thumb_set _ZN5daisy11MidiHandlerINS_17MidiUartTransportEED1Ev,_ZN5daisy11MidiHandlerINS_17MidiUar
 168 0002 00BF     		.section	.text._ZL13AudioCallbackPKfPfj,"ax",%progbits
 169              		.align	1
 170              		.p2align 2,,3
 171              		.syntax unified
 172              		.thumb
 173              		.thumb_func
 175              	_ZL13AudioCallbackPKfPfj:
 176              	.LVL4:
 177              	.LFB4810:
 100:fjol.cpp      **** envStruc envelope[voicecount];
 101:fjol.cpp      **** ADStruc filtenvelope; //stereo
 102:fjol.cpp      **** filter_ stfilter[2]; //stereo
 103:fjol.cpp      **** 
 104:fjol.cpp      **** Switch shift_sw;
 105:fjol.cpp      **** Switch algo_sw;
 106:fjol.cpp      **** Switch midi_sw;
 107:fjol.cpp      **** gate_i gate[4];
 108:fjol.cpp      **** knob voct[4];
 109:fjol.cpp      **** knob controls[8]; //8 knobs
 110:fjol.cpp      **** knob cv[2]; //2 cv ins for ctl1 and ctl2
 111:fjol.cpp      **** rotary enc[2];
 112:fjol.cpp      **** 
 113:fjol.cpp      **** //debug variables
 114:fjol.cpp      **** bool debug_pots = 1;
 115:fjol.cpp      **** bool debug_midi = 0;
 116:fjol.cpp      **** 
 117:fjol.cpp      **** 
 118:fjol.cpp      **** static void AudioCallback(AudioHandle::InterleavingInputBuffer  in,
 119:fjol.cpp      ****                           AudioHandle::InterleavingOutputBuffer out,
 120:fjol.cpp      ****                           size_t                                size)
 121:fjol.cpp      **** {
 178              		.loc 7 121 1 is_stmt 1 view -0
 179              		.cfi_startproc
 180              		@ args = 0, pretend = 0, frame = 0
 181              		@ frame_needed = 0, uses_anonymous_args = 0
 122:fjol.cpp      ****     for(int i = 0; i < voicecount;i++)
 182              		.loc 7 122 5 view .LVU23
 183              	.LBB532:
 184              		.loc 7 122 22 view .LVU24
 185              	.LBE532:
 121:fjol.cpp      ****     for(int i = 0; i < voicecount;i++)
 186              		.loc 7 121 1 is_stmt 0 view .LVU25
 187 0000 2DE9F047 		push	{r4, r5, r6, r7, r8, r9, r10, lr}
 188              		.cfi_def_cfa_offset 32
 189              		.cfi_offset 4, -32
ARM GAS  /tmp/cca3rxWD.s 			page 15


 190              		.cfi_offset 5, -28
 191              		.cfi_offset 6, -24
 192              		.cfi_offset 7, -20
 193              		.cfi_offset 8, -16
 194              		.cfi_offset 9, -12
 195              		.cfi_offset 10, -8
 196              		.cfi_offset 14, -4
 197 0004 DFF84CA1 		ldr	r10, .L13+36
 198 0008 9146     		mov	r9, r2
 199 000a 494C     		ldr	r4, .L13
 200 000c 0AF11008 		add	r8, r10, #16
 201 0010 484F     		ldr	r7, .L13+4
 202 0012 2546     		mov	r5, r4
 203 0014 484E     		ldr	r6, .L13+8
 204 0016 2DED028B 		vpush.64	{d8}
 205              		.cfi_def_cfa_offset 40
 206              		.cfi_offset 80, -40
 207              		.cfi_offset 81, -36
 208              	.LVL5:
 209              	.L8:
 210              	.LBB549:
 123:fjol.cpp      ****     {
 124:fjol.cpp      ****       voice[i].op1.SetFreq(voicefreq[i]);
 211              		.loc 7 124 7 is_stmt 1 discriminator 2 view .LVU26
 212              		.loc 7 124 27 is_stmt 0 discriminator 2 view .LVU27
 213 001a 9AED000A 		vldr.32	s0, [r10]
 214              	.LVL6:
 215              	.LBB533:
 216              	.LBI533:
 217              		.file 10 "DaisySP/Source/Synthesis/oscillator.h"
   1:DaisySP/Source/Synthesis/oscillator.h **** #pragma once
   2:DaisySP/Source/Synthesis/oscillator.h **** #ifndef DSY_OSCILLATOR_H
   3:DaisySP/Source/Synthesis/oscillator.h **** #define DSY_OSCILLATOR_H
   4:DaisySP/Source/Synthesis/oscillator.h **** #include <stdint.h>
   5:DaisySP/Source/Synthesis/oscillator.h **** #include "Utility/dsp.h"
   6:DaisySP/Source/Synthesis/oscillator.h **** #ifdef __cplusplus
   7:DaisySP/Source/Synthesis/oscillator.h **** 
   8:DaisySP/Source/Synthesis/oscillator.h **** namespace daisysp
   9:DaisySP/Source/Synthesis/oscillator.h **** {
  10:DaisySP/Source/Synthesis/oscillator.h **** /** Synthesis of several waveforms, including polyBLEP bandlimited waveforms.
  11:DaisySP/Source/Synthesis/oscillator.h **** */
  12:DaisySP/Source/Synthesis/oscillator.h **** class Oscillator
  13:DaisySP/Source/Synthesis/oscillator.h **** {
  14:DaisySP/Source/Synthesis/oscillator.h ****   public:
  15:DaisySP/Source/Synthesis/oscillator.h ****     Oscillator() {}
  16:DaisySP/Source/Synthesis/oscillator.h ****     ~Oscillator() {}
  17:DaisySP/Source/Synthesis/oscillator.h ****     /** Choices for output waveforms, POLYBLEP are appropriately labeled. Others are naive forms.
  18:DaisySP/Source/Synthesis/oscillator.h ****     */
  19:DaisySP/Source/Synthesis/oscillator.h ****     enum
  20:DaisySP/Source/Synthesis/oscillator.h ****     {
  21:DaisySP/Source/Synthesis/oscillator.h ****         WAVE_SIN,
  22:DaisySP/Source/Synthesis/oscillator.h ****         WAVE_TRI,
  23:DaisySP/Source/Synthesis/oscillator.h ****         WAVE_SAW,
  24:DaisySP/Source/Synthesis/oscillator.h ****         WAVE_RAMP,
  25:DaisySP/Source/Synthesis/oscillator.h ****         WAVE_SQUARE,
  26:DaisySP/Source/Synthesis/oscillator.h ****         WAVE_POLYBLEP_TRI,
  27:DaisySP/Source/Synthesis/oscillator.h ****         WAVE_POLYBLEP_SAW,
ARM GAS  /tmp/cca3rxWD.s 			page 16


  28:DaisySP/Source/Synthesis/oscillator.h ****         WAVE_POLYBLEP_SQUARE,
  29:DaisySP/Source/Synthesis/oscillator.h ****         WAVE_LAST,
  30:DaisySP/Source/Synthesis/oscillator.h ****     };
  31:DaisySP/Source/Synthesis/oscillator.h **** 
  32:DaisySP/Source/Synthesis/oscillator.h **** 
  33:DaisySP/Source/Synthesis/oscillator.h ****     /** Initializes the Oscillator
  34:DaisySP/Source/Synthesis/oscillator.h **** 
  35:DaisySP/Source/Synthesis/oscillator.h ****         \param sample_rate - sample rate of the audio engine being run, and the frequency that the 
  36:DaisySP/Source/Synthesis/oscillator.h **** 
  37:DaisySP/Source/Synthesis/oscillator.h ****         Defaults:
  38:DaisySP/Source/Synthesis/oscillator.h ****         - freq_ = 100 Hz
  39:DaisySP/Source/Synthesis/oscillator.h ****         - amp_ = 0.5
  40:DaisySP/Source/Synthesis/oscillator.h ****         - waveform_ = sine wave.
  41:DaisySP/Source/Synthesis/oscillator.h ****     */
  42:DaisySP/Source/Synthesis/oscillator.h ****     void Init(float sample_rate)
  43:DaisySP/Source/Synthesis/oscillator.h ****     {
  44:DaisySP/Source/Synthesis/oscillator.h ****         sr_        = sample_rate;
  45:DaisySP/Source/Synthesis/oscillator.h ****         sr_recip_  = 1.0f / sample_rate;
  46:DaisySP/Source/Synthesis/oscillator.h ****         freq_      = 100.0f;
  47:DaisySP/Source/Synthesis/oscillator.h ****         amp_       = 0.5f;
  48:DaisySP/Source/Synthesis/oscillator.h ****         pw_        = 0.5f;
  49:DaisySP/Source/Synthesis/oscillator.h ****         pw_rad_    = pw_ * TWOPI_F;
  50:DaisySP/Source/Synthesis/oscillator.h ****         phase_     = 0.0f;
  51:DaisySP/Source/Synthesis/oscillator.h ****         phase_inc_ = CalcPhaseInc(freq_);
  52:DaisySP/Source/Synthesis/oscillator.h ****         waveform_  = WAVE_SIN;
  53:DaisySP/Source/Synthesis/oscillator.h ****         eoc_       = true;
  54:DaisySP/Source/Synthesis/oscillator.h ****         eor_       = true;
  55:DaisySP/Source/Synthesis/oscillator.h ****     }
  56:DaisySP/Source/Synthesis/oscillator.h **** 
  57:DaisySP/Source/Synthesis/oscillator.h **** 
  58:DaisySP/Source/Synthesis/oscillator.h ****     /** Changes the frequency of the Oscillator, and recalculates phase increment.
  59:DaisySP/Source/Synthesis/oscillator.h ****     */
  60:DaisySP/Source/Synthesis/oscillator.h ****     inline void SetFreq(const float f)
 218              		.loc 10 60 17 is_stmt 1 discriminator 2 view .LVU28
 219              	.LBB534:
  61:DaisySP/Source/Synthesis/oscillator.h ****     {
  62:DaisySP/Source/Synthesis/oscillator.h ****         freq_      = f;
 220              		.loc 10 62 9 discriminator 2 view .LVU29
  63:DaisySP/Source/Synthesis/oscillator.h ****         phase_inc_ = CalcPhaseInc(f);
 221              		.loc 10 63 34 is_stmt 0 discriminator 2 view .LVU30
 222 001e 2846     		mov	r0, r5
  62:DaisySP/Source/Synthesis/oscillator.h ****         phase_inc_ = CalcPhaseInc(f);
 223              		.loc 10 62 20 discriminator 2 view .LVU31
 224 0020 85ED020A 		vstr.32	s0, [r5, #8]
 225              		.loc 10 63 9 is_stmt 1 discriminator 2 view .LVU32
 226              		.loc 10 63 34 is_stmt 0 discriminator 2 view .LVU33
 227 0024 FFF7FEFF 		bl	_ZN7daisysp10Oscillator12CalcPhaseIncEf
 228              	.LVL7:
 229              		.loc 10 63 34 discriminator 2 view .LVU34
 230              	.LBE534:
 231              	.LBE533:
 125:fjol.cpp      ****       voice[i].op2.SetFreq(voicefreq[i]*ratioindex[(int)knob_value[1]]);
 232              		.loc 7 125 52 discriminator 2 view .LVU35
 233 0028 D6ED017A 		vldr.32	s15, [r6, #4]
 234              	.LBB536:
 235              	.LBB535:
 236              		.loc 10 63 20 discriminator 2 view .LVU36
ARM GAS  /tmp/cca3rxWD.s 			page 17


 237 002c 85ED080A 		vstr.32	s0, [r5, #32]
 238              	.LVL8:
 239              		.loc 10 63 20 discriminator 2 view .LVU37
 240              	.LBE535:
 241              	.LBE536:
 242              		.loc 7 125 7 is_stmt 1 discriminator 2 view .LVU38
 243              	.LBB537:
 244              	.LBB538:
 245              		.loc 10 63 34 is_stmt 0 discriminator 2 view .LVU39
 246 0030 05F13000 		add	r0, r5, #48
 247              	.LBE538:
 248              	.LBE537:
 249              		.loc 7 125 52 discriminator 2 view .LVU40
 250 0034 FDEEE77A 		vcvt.s32.f32	s15, s15
 251              		.loc 7 125 27 discriminator 2 view .LVU41
 252 0038 BAEC017A 		vldmia.32	r10!, {s14}
 253              		.loc 7 125 52 discriminator 2 view .LVU42
 254 003c 17EE903A 		vmov	r3, s15	@ int
 255              		.loc 7 125 70 discriminator 2 view .LVU43
 256 0040 07EB8303 		add	r3, r7, r3, lsl #2
 257              		.loc 7 125 27 discriminator 2 view .LVU44
 258 0044 93ED000A 		vldr.32	s0, [r3]
 259 0048 20EE070A 		vmul.f32	s0, s0, s14
 260              	.LVL9:
 261              	.LBB541:
 262              	.LBI537:
  60:DaisySP/Source/Synthesis/oscillator.h ****     {
 263              		.loc 10 60 17 is_stmt 1 discriminator 2 view .LVU45
 264              	.LBB539:
  62:DaisySP/Source/Synthesis/oscillator.h ****         phase_inc_ = CalcPhaseInc(f);
 265              		.loc 10 62 9 discriminator 2 view .LVU46
  62:DaisySP/Source/Synthesis/oscillator.h ****         phase_inc_ = CalcPhaseInc(f);
 266              		.loc 10 62 20 is_stmt 0 discriminator 2 view .LVU47
 267 004c 85ED0E0A 		vstr.32	s0, [r5, #56]
 268              		.loc 10 63 9 is_stmt 1 discriminator 2 view .LVU48
 269              		.loc 10 63 34 is_stmt 0 discriminator 2 view .LVU49
 270 0050 FFF7FEFF 		bl	_ZN7daisysp10Oscillator12CalcPhaseIncEf
 271              	.LVL10:
 272              		.loc 10 63 34 discriminator 2 view .LVU50
 273              	.LBE539:
 274              	.LBE541:
 126:fjol.cpp      ****       voice[i].op3.SetFreq(voicefreq[i]*ratioindex[(int)knob_value[3]]);
 275              		.loc 7 126 52 discriminator 2 view .LVU51
 276 0054 D6ED037A 		vldr.32	s15, [r6, #12]
 277              	.LBB542:
 278              	.LBB540:
 279              		.loc 10 63 20 discriminator 2 view .LVU52
 280 0058 85ED140A 		vstr.32	s0, [r5, #80]
 281              	.LVL11:
 282              		.loc 10 63 20 discriminator 2 view .LVU53
 283              	.LBE540:
 284              	.LBE542:
 285              		.loc 7 126 7 is_stmt 1 discriminator 2 view .LVU54
 286              	.LBB543:
 287              	.LBB544:
 288              		.loc 10 63 34 is_stmt 0 discriminator 2 view .LVU55
 289 005c 05F16000 		add	r0, r5, #96
ARM GAS  /tmp/cca3rxWD.s 			page 18


 290              	.LBE544:
 291              	.LBE543:
 292              		.loc 7 126 52 discriminator 2 view .LVU56
 293 0060 FDEEE77A 		vcvt.s32.f32	s15, s15
 294              		.loc 7 126 27 discriminator 2 view .LVU57
 295 0064 1AED017A 		vldr.32	s14, [r10, #-4]
 122:fjol.cpp      ****     {
 296              		.loc 7 122 22 discriminator 2 view .LVU58
 297 0068 B835     		adds	r5, r5, #184
 298              		.loc 7 126 52 discriminator 2 view .LVU59
 299 006a 17EE903A 		vmov	r3, s15	@ int
 300              		.loc 7 126 70 discriminator 2 view .LVU60
 301 006e 07EB8303 		add	r3, r7, r3, lsl #2
 302              		.loc 7 126 27 discriminator 2 view .LVU61
 303 0072 93ED000A 		vldr.32	s0, [r3]
 304 0076 20EE070A 		vmul.f32	s0, s0, s14
 305              	.LVL12:
 306              	.LBB547:
 307              	.LBI543:
  60:DaisySP/Source/Synthesis/oscillator.h ****     {
 308              		.loc 10 60 17 is_stmt 1 discriminator 2 view .LVU62
 309              	.LBB545:
  62:DaisySP/Source/Synthesis/oscillator.h ****         phase_inc_ = CalcPhaseInc(f);
 310              		.loc 10 62 9 discriminator 2 view .LVU63
  62:DaisySP/Source/Synthesis/oscillator.h ****         phase_inc_ = CalcPhaseInc(f);
 311              		.loc 10 62 20 is_stmt 0 discriminator 2 view .LVU64
 312 007a 05ED140A 		vstr.32	s0, [r5, #-80]
 313              		.loc 10 63 9 is_stmt 1 discriminator 2 view .LVU65
 314              		.loc 10 63 34 is_stmt 0 discriminator 2 view .LVU66
 315 007e FFF7FEFF 		bl	_ZN7daisysp10Oscillator12CalcPhaseIncEf
 316              	.LVL13:
 317              		.loc 10 63 34 discriminator 2 view .LVU67
 318              	.LBE545:
 319              	.LBE547:
 122:fjol.cpp      ****     {
 320              		.loc 7 122 22 discriminator 2 view .LVU68
 321 0082 C245     		cmp	r10, r8
 322              	.LBB548:
 323              	.LBB546:
 324              		.loc 10 63 20 discriminator 2 view .LVU69
 325 0084 05ED0E0A 		vstr.32	s0, [r5, #-56]
 326              		.loc 10 63 20 discriminator 2 view .LVU70
 327              	.LBE546:
 328              	.LBE548:
 122:fjol.cpp      ****     {
 329              		.loc 7 122 5 is_stmt 1 discriminator 2 view .LVU71
 122:fjol.cpp      ****     {
 330              		.loc 7 122 22 discriminator 2 view .LVU72
 331 0088 C7D1     		bne	.L8
 332              	.LBE549:
 127:fjol.cpp      ****     }
 128:fjol.cpp      **** 
 129:fjol.cpp      ****     float left,right,temp1,temp2;
 333              		.loc 7 129 5 discriminator 1 view .LVU73
 130:fjol.cpp      **** 
 131:fjol.cpp      ****     for(size_t i = 0; i < size; i += 2)
 334              		.loc 7 131 5 discriminator 1 view .LVU74
ARM GAS  /tmp/cca3rxWD.s 			page 19


 335              	.LVL14:
 336              	.LBB550:
 337              		.loc 7 131 25 discriminator 1 view .LVU75
 338 008a B9F1000F 		cmp	r9, #0
 339 008e 4BD0     		beq	.L7
 340 0090 2A4F     		ldr	r7, .L13+12
 341 0092 2B4E     		ldr	r6, .L13+16
 342 0094 2B4D     		ldr	r5, .L13+20
 343              	.LVL15:
 344              	.L10:
 345              	.LBB551:
 346              	.LBB552:
 132:fjol.cpp      ****     {
 133:fjol.cpp      ****       for(int k = 0; k < voicecount;i++)
 347              		.loc 7 133 24 discriminator 3 view .LVU76
 134:fjol.cpp      ****       {
 135:fjol.cpp      ****         envelope[k].envSig = envelope[k].env.Process(voicetrig[k]);
 348              		.loc 7 135 9 discriminator 3 view .LVU77
 349              		.loc 7 135 53 is_stmt 0 discriminator 3 view .LVU78
 350 0096 3978     		ldrb	r1, [r7]	@ zero_extendqisi2
 351 0098 2948     		ldr	r0, .L13+16
 352 009a FFF7FEFF 		bl	_ZN7daisysp4Adsr7ProcessEb
 353              	.LVL16:
 136:fjol.cpp      **** 
 137:fjol.cpp      ****         voice[k].op1.SetAmp(envelope[k].envSig);
 138:fjol.cpp      ****         voice[k].op2.SetAmp(envelope[k].envSig*controls[0].value);
 354              		.loc 7 138 28 discriminator 3 view .LVU79
 355 009e 95ED167A 		vldr.32	s14, [r5, #88]
 139:fjol.cpp      ****         voice[k].op3.SetAmp(envelope[k].envSig*controls[1].value);
 356              		.loc 7 139 28 discriminator 3 view .LVU80
 357 00a2 D5ED2D7A 		vldr.32	s15, [r5, #180]
 138:fjol.cpp      ****         voice[k].op3.SetAmp(envelope[k].envSig*controls[1].value);
 358              		.loc 7 138 28 discriminator 3 view .LVU81
 359 00a6 27EE007A 		vmul.f32	s14, s14, s0
 140:fjol.cpp      **** 
 141:fjol.cpp      ****         //figure out order of operations in regards to PM feedback!!
 142:fjol.cpp      ****         temp1 = voice[k].op3.Process();
 360              		.loc 7 142 37 discriminator 3 view .LVU82
 361 00aa 2748     		ldr	r0, .L13+24
 139:fjol.cpp      **** 
 362              		.loc 7 139 28 discriminator 3 view .LVU83
 363 00ac 67EE807A 		vmul.f32	s15, s15, s0
 135:fjol.cpp      **** 
 364              		.loc 7 135 28 discriminator 3 view .LVU84
 365 00b0 86ED0E0A 		vstr.32	s0, [r6, #56]
 137:fjol.cpp      ****         voice[k].op2.SetAmp(envelope[k].envSig*controls[0].value);
 366              		.loc 7 137 9 is_stmt 1 discriminator 3 view .LVU85
 367              	.LVL17:
 368              	.LBB553:
 369              	.LBI553:
  64:DaisySP/Source/Synthesis/oscillator.h ****     }
  65:DaisySP/Source/Synthesis/oscillator.h **** 
  66:DaisySP/Source/Synthesis/oscillator.h **** 
  67:DaisySP/Source/Synthesis/oscillator.h ****     /** Sets the amplitude of the waveform.
  68:DaisySP/Source/Synthesis/oscillator.h ****     */
  69:DaisySP/Source/Synthesis/oscillator.h ****     inline void SetAmp(const float a) { amp_ = a; }
 370              		.loc 10 69 17 discriminator 3 view .LVU86
ARM GAS  /tmp/cca3rxWD.s 			page 20


 371              	.LBB554:
 372              		.loc 10 69 41 discriminator 3 view .LVU87
 373              		.loc 10 69 46 is_stmt 0 discriminator 3 view .LVU88
 374 00b4 84ED010A 		vstr.32	s0, [r4, #4]
 375              	.LVL18:
 376              		.loc 10 69 46 discriminator 3 view .LVU89
 377              	.LBE554:
 378              	.LBE553:
 138:fjol.cpp      ****         voice[k].op3.SetAmp(envelope[k].envSig*controls[1].value);
 379              		.loc 7 138 9 is_stmt 1 discriminator 3 view .LVU90
 380              	.LBB555:
 381              	.LBI555:
 382              		.loc 10 69 17 discriminator 3 view .LVU91
 383              	.LBB556:
 384              		.loc 10 69 41 discriminator 3 view .LVU92
 385              		.loc 10 69 46 is_stmt 0 discriminator 3 view .LVU93
 386 00b8 84ED0D7A 		vstr.32	s14, [r4, #52]
 387              	.LVL19:
 388              		.loc 10 69 46 discriminator 3 view .LVU94
 389              	.LBE556:
 390              	.LBE555:
 139:fjol.cpp      **** 
 391              		.loc 7 139 9 is_stmt 1 discriminator 3 view .LVU95
 392              	.LBB557:
 393              	.LBI557:
 394              		.loc 10 69 17 discriminator 3 view .LVU96
 395              	.LBB558:
 396              		.loc 10 69 41 discriminator 3 view .LVU97
 397              		.loc 10 69 46 is_stmt 0 discriminator 3 view .LVU98
 398 00bc C4ED197A 		vstr.32	s15, [r4, #100]
 399              	.LVL20:
 400              		.loc 10 69 46 discriminator 3 view .LVU99
 401              	.LBE558:
 402              	.LBE557:
 403              		.loc 7 142 9 is_stmt 1 discriminator 3 view .LVU100
 404              		.loc 7 142 37 is_stmt 0 discriminator 3 view .LVU101
 405 00c0 FFF7FEFF 		bl	_ZN7daisysp10Oscillator7ProcessEv
 406              	.LVL21:
 143:fjol.cpp      ****         voice[k].op2.PhaseAdd(temp1*voice[k].op32);
 407              		.loc 7 143 46 discriminator 3 view .LVU102
 408 00c4 94F89830 		ldrb	r3, [r4, #152]	@ zero_extendqisi2
 142:fjol.cpp      ****         voice[k].op2.PhaseAdd(temp1*voice[k].op32);
 409              		.loc 7 142 37 discriminator 3 view .LVU103
 410 00c8 B0EE408A 		vmov.f32	s16, s0
 411              	.LVL22:
 412              		.loc 7 143 9 is_stmt 1 discriminator 3 view .LVU104
 413              	.LBB559:
 414              	.LBI559:
  70:DaisySP/Source/Synthesis/oscillator.h ****     /** Sets the waveform to be synthesized by the Process() function.
  71:DaisySP/Source/Synthesis/oscillator.h ****     */
  72:DaisySP/Source/Synthesis/oscillator.h ****     inline void SetWaveform(const uint8_t wf)
  73:DaisySP/Source/Synthesis/oscillator.h ****     {
  74:DaisySP/Source/Synthesis/oscillator.h ****         waveform_ = wf < WAVE_LAST ? wf : WAVE_SIN;
  75:DaisySP/Source/Synthesis/oscillator.h ****     }
  76:DaisySP/Source/Synthesis/oscillator.h ****     /** Sets the pulse width for WAVE_SQUARE and WAVE_POLYBLEP_SQUARE (range 0 - 1)
  77:DaisySP/Source/Synthesis/oscillator.h ****      */
  78:DaisySP/Source/Synthesis/oscillator.h ****     inline void SetPw(const float pw)
ARM GAS  /tmp/cca3rxWD.s 			page 21


  79:DaisySP/Source/Synthesis/oscillator.h ****     {
  80:DaisySP/Source/Synthesis/oscillator.h ****         pw_     = fclamp(pw, 0.0f, 1.0f);
  81:DaisySP/Source/Synthesis/oscillator.h ****         pw_rad_ = pw_ * TWOPI_F;
  82:DaisySP/Source/Synthesis/oscillator.h ****     }
  83:DaisySP/Source/Synthesis/oscillator.h **** 
  84:DaisySP/Source/Synthesis/oscillator.h ****     /** Returns true if cycle is at end of rise. Set during call to Process.
  85:DaisySP/Source/Synthesis/oscillator.h ****     */
  86:DaisySP/Source/Synthesis/oscillator.h ****     inline bool IsEOR() { return eor_; }
  87:DaisySP/Source/Synthesis/oscillator.h **** 
  88:DaisySP/Source/Synthesis/oscillator.h ****     /** Returns true if cycle is at end of cycle. Set during call to Process.
  89:DaisySP/Source/Synthesis/oscillator.h ****     */
  90:DaisySP/Source/Synthesis/oscillator.h ****     inline bool IsEOC() { return eoc_; }
  91:DaisySP/Source/Synthesis/oscillator.h **** 
  92:DaisySP/Source/Synthesis/oscillator.h ****     /** Returns true if cycle rising.
  93:DaisySP/Source/Synthesis/oscillator.h ****     */
  94:DaisySP/Source/Synthesis/oscillator.h ****     inline bool IsRising() { return phase_ < PI_F; }
  95:DaisySP/Source/Synthesis/oscillator.h **** 
  96:DaisySP/Source/Synthesis/oscillator.h ****     /** Returns true if cycle falling.
  97:DaisySP/Source/Synthesis/oscillator.h ****     */
  98:DaisySP/Source/Synthesis/oscillator.h ****     inline bool IsFalling() { return phase_ >= PI_F; }
  99:DaisySP/Source/Synthesis/oscillator.h **** 
 100:DaisySP/Source/Synthesis/oscillator.h ****     /** Processes the waveform to be generated, returning one sample. This should be called once pe
 101:DaisySP/Source/Synthesis/oscillator.h ****     */
 102:DaisySP/Source/Synthesis/oscillator.h ****     float Process();
 103:DaisySP/Source/Synthesis/oscillator.h **** 
 104:DaisySP/Source/Synthesis/oscillator.h **** 
 105:DaisySP/Source/Synthesis/oscillator.h ****     /** Adds a value 0.0-1.0 (mapped to 0.0-TWO_PI) to the current phase. Useful for PM and "FM" sy
 106:DaisySP/Source/Synthesis/oscillator.h ****     */
 107:DaisySP/Source/Synthesis/oscillator.h ****     void PhaseAdd(float _phase) { phase_ += (_phase * TWOPI_F); }
 415              		.loc 10 107 10 discriminator 3 view .LVU105
 416              	.LBB560:
 417              		.loc 10 107 35 discriminator 3 view .LVU106
 418              		.loc 10 107 42 is_stmt 0 discriminator 3 view .LVU107
 419 00cc 94ED137A 		vldr.32	s14, [r4, #76]
 420              	.LBE560:
 421              	.LBE559:
 422              		.loc 7 143 46 discriminator 3 view .LVU108
 423 00d0 07EE903A 		vmov	s15, r3	@ int
 424              	.LBB563:
 425              	.LBB561:
 426              		.loc 10 107 42 discriminator 3 view .LVU109
 427 00d4 DFED1D8A 		vldr.32	s17, .L13+28
 428              	.LBE561:
 429              	.LBE563:
 144:fjol.cpp      ****         temp2 = voice[k].op2.Process();
 430              		.loc 7 144 37 discriminator 3 view .LVU110
 431 00d8 1D48     		ldr	r0, .L13+32
 143:fjol.cpp      ****         temp2 = voice[k].op2.Process();
 432              		.loc 7 143 30 discriminator 3 view .LVU111
 433 00da F8EEE77A 		vcvt.f32.s32	s15, s15
 434 00de 67EE807A 		vmul.f32	s15, s15, s0
 435              	.LVL23:
 436              	.LBB564:
 437              	.LBB562:
 438              		.loc 10 107 42 discriminator 3 view .LVU112
 439 00e2 A7EEA87A 		vfma.f32	s14, s15, s17
 440 00e6 84ED137A 		vstr.32	s14, [r4, #76]
ARM GAS  /tmp/cca3rxWD.s 			page 22


 441              	.LVL24:
 442              		.loc 10 107 42 discriminator 3 view .LVU113
 443              	.LBE562:
 444              	.LBE564:
 445              		.loc 7 144 9 is_stmt 1 discriminator 3 view .LVU114
 446              		.loc 7 144 37 is_stmt 0 discriminator 3 view .LVU115
 447 00ea FFF7FEFF 		bl	_ZN7daisysp10Oscillator7ProcessEv
 448              	.LVL25:
 145:fjol.cpp      **** 
 146:fjol.cpp      ****         voice[k].op1.PhaseAdd(temp1*voice[k].op31 + temp2*voice[k].op21);
 449              		.loc 7 146 9 is_stmt 1 discriminator 3 view .LVU116
 450              		.loc 7 146 68 is_stmt 0 discriminator 3 view .LVU117
 451 00ee 94F89A30 		ldrb	r3, [r4, #154]	@ zero_extendqisi2
 452              	.LBB565:
 453              	.LBB566:
 454              		.loc 10 107 42 discriminator 3 view .LVU118
 455 00f2 94ED077A 		vldr.32	s14, [r4, #28]
 456              	.LBE566:
 457              	.LBE565:
 458              		.loc 7 146 68 discriminator 3 view .LVU119
 459 00f6 07EE903A 		vmov	s15, r3	@ int
 460              		.loc 7 146 46 discriminator 3 view .LVU120
 461 00fa 94F89930 		ldrb	r3, [r4, #153]	@ zero_extendqisi2
 147:fjol.cpp      ****         left+=voice[k].op1.Process()*voice[k].panL;
 462              		.loc 7 147 35 discriminator 3 view .LVU121
 463 00fe 0C48     		ldr	r0, .L13
 146:fjol.cpp      ****         left+=voice[k].op1.Process()*voice[k].panL;
 464              		.loc 7 146 58 discriminator 3 view .LVU122
 465 0100 F8EEE77A 		vcvt.f32.s32	s15, s15
 146:fjol.cpp      ****         left+=voice[k].op1.Process()*voice[k].panL;
 466              		.loc 7 146 46 discriminator 3 view .LVU123
 467 0104 06EE903A 		vmov	s13, r3	@ int
 146:fjol.cpp      ****         left+=voice[k].op1.Process()*voice[k].panL;
 468              		.loc 7 146 36 discriminator 3 view .LVU124
 469 0108 F8EEE66A 		vcvt.f32.s32	s13, s13
 146:fjol.cpp      ****         left+=voice[k].op1.Process()*voice[k].panL;
 470              		.loc 7 146 58 discriminator 3 view .LVU125
 471 010c 67EE807A 		vmul.f32	s15, s15, s0
 146:fjol.cpp      ****         left+=voice[k].op1.Process()*voice[k].panL;
 472              		.loc 7 146 30 discriminator 3 view .LVU126
 473 0110 E6EE887A 		vfma.f32	s15, s13, s16
 474              	.LVL26:
 475              	.LBB568:
 476              	.LBI565:
 477              		.loc 10 107 10 is_stmt 1 discriminator 3 view .LVU127
 478              	.LBB567:
 479              		.loc 10 107 35 discriminator 3 view .LVU128
 480              		.loc 10 107 42 is_stmt 0 discriminator 3 view .LVU129
 481 0114 A7EEA87A 		vfma.f32	s14, s15, s17
 482 0118 84ED077A 		vstr.32	s14, [r4, #28]
 483              	.LVL27:
 484              		.loc 10 107 42 discriminator 3 view .LVU130
 485              	.LBE567:
 486              	.LBE568:
 487              		.loc 7 147 9 is_stmt 1 discriminator 3 view .LVU131
 488              		.loc 7 147 35 is_stmt 0 discriminator 3 view .LVU132
 489 011c FFF7FEFF 		bl	_ZN7daisysp10Oscillator7ProcessEv
ARM GAS  /tmp/cca3rxWD.s 			page 23


 490              	.LVL28:
 148:fjol.cpp      ****         left+=(temp2*voice[k].op2out*voice[k].panL)*pm1amp;
 491              		.loc 7 148 9 is_stmt 1 discriminator 3 view .LVU133
 149:fjol.cpp      ****         right+=voice[k].op1.Process()*voice[k].panR;
 492              		.loc 7 149 9 discriminator 3 view .LVU134
 493              		.loc 7 149 36 is_stmt 0 discriminator 3 view .LVU135
 494 0120 0348     		ldr	r0, .L13
 495 0122 FFF7FEFF 		bl	_ZN7daisysp10Oscillator7ProcessEv
 496              	.LVL29:
 150:fjol.cpp      ****         right+=(temp2*voice[k].op2out*voice[k].panR)*pm1amp;
 497              		.loc 7 150 9 is_stmt 1 discriminator 3 view .LVU136
 133:fjol.cpp      ****       {
 498              		.loc 7 133 7 discriminator 3 view .LVU137
 499 0126 B6E7     		b	.L10
 500              	.LVL30:
 501              	.L7:
 133:fjol.cpp      ****       {
 502              		.loc 7 133 7 is_stmt 0 discriminator 3 view .LVU138
 503              	.LBE552:
 504              	.LBE551:
 505              	.LBE550:
 151:fjol.cpp      ****       }
 152:fjol.cpp      **** 
 153:fjol.cpp      ****       //stereo filter with envelope
 154:fjol.cpp      ****       if(filtenv_trig){filtenvelope.env.Trigger();}
 155:fjol.cpp      ****       filtenvelope.envSig = filtenvelope.env.Process();
 156:fjol.cpp      ****       float sum = (filtenvelope.envSig*20000) + controls[6].value;
 157:fjol.cpp      ****       sum = DSY_CLAMP(sum,20,20000);
 158:fjol.cpp      ****       
 159:fjol.cpp      ****       for(int j = 0; i<2;i++)
 160:fjol.cpp      ****       {
 161:fjol.cpp      ****         stfilter[j].filter.SetFreq(sum);
 162:fjol.cpp      ****         stfilter[j].filter.SetFreq(param[1]);
 163:fjol.cpp      ****       }
 164:fjol.cpp      ****       stfilter[0].filter.Process(left);
 165:fjol.cpp      ****       stfilter[0].filter.Process(right);
 166:fjol.cpp      **** 
 167:fjol.cpp      ****       //main out
 168:fjol.cpp      ****       // left out
 169:fjol.cpp      ****       out[i] = stfilter[0].filter.Low();
 170:fjol.cpp      ****       // right out
 171:fjol.cpp      ****       out[i + 1] = stfilter[1].filter.Low();
 172:fjol.cpp      ****     }
 173:fjol.cpp      **** }
 506              		.loc 7 173 1 view .LVU139
 507 0128 BDEC028B 		vldm	sp!, {d8}
 508              		.cfi_restore 80
 509              		.cfi_restore 81
 510              		.cfi_def_cfa_offset 32
 511 012c BDE8F087 		pop	{r4, r5, r6, r7, r8, r9, r10, pc}
 512              	.LVL31:
 513              	.L14:
 514              		.loc 7 173 1 view .LVU140
 515              		.align	2
 516              	.L13:
 517 0130 00000000 		.word	.LANCHOR0
 518 0134 00000000 		.word	ratioindex
ARM GAS  /tmp/cca3rxWD.s 			page 24


 519 0138 00000000 		.word	knob_value
 520 013c 00000000 		.word	voicetrig
 521 0140 00000000 		.word	.LANCHOR1
 522 0144 00000000 		.word	.LANCHOR2
 523 0148 60000000 		.word	.LANCHOR0+96
 524 014c DB0FC940 		.word	1086918619
 525 0150 30000000 		.word	.LANCHOR0+48
 526 0154 00000000 		.word	voicefreq
 527              		.cfi_endproc
 528              	.LFE4810:
 530              		.section	.text.__tcf_6,"ax",%progbits
 531              		.align	1
 532              		.p2align 2,,3
 533              		.syntax unified
 534              		.thumb
 535              		.thumb_func
 537              	__tcf_6:
 538              	.LFB5461:
 539              		.cfi_startproc
 540              		@ args = 0, pretend = 0, frame = 0
 541              		@ frame_needed = 0, uses_anonymous_args = 0
 542              		@ link register save eliminated.
 543 0000 7047     		bx	lr
 544              		.cfi_endproc
 545              	.LFE5461:
 547 0002 00BF     		.section	.text.__tcf_7,"ax",%progbits
 548              		.align	1
 549              		.p2align 2,,3
 550              		.syntax unified
 551              		.thumb
 552              		.thumb_func
 554              	__tcf_7:
 555              	.LFB5463:
 556              		.cfi_startproc
 557              		@ args = 0, pretend = 0, frame = 0
 558              		@ frame_needed = 0, uses_anonymous_args = 0
 559              		@ link register save eliminated.
 560 0000 7047     		bx	lr
 561              		.cfi_endproc
 562              	.LFE5463:
 564 0002 00BF     		.section	.text.__tcf_1,"ax",%progbits
 565              		.align	1
 566              		.p2align 2,,3
 567              		.syntax unified
 568              		.thumb
 569              		.thumb_func
 571              	__tcf_1:
 572              	.LFB5451:
 573              		.cfi_startproc
 574              		@ args = 0, pretend = 0, frame = 0
 575              		@ frame_needed = 0, uses_anonymous_args = 0
 576              		@ link register save eliminated.
 577 0000 7047     		bx	lr
 578              		.cfi_endproc
 579              	.LFE5451:
 581 0002 00BF     		.section	.text.__tcf_2,"ax",%progbits
 582              		.align	1
ARM GAS  /tmp/cca3rxWD.s 			page 25


 583              		.p2align 2,,3
 584              		.syntax unified
 585              		.thumb
 586              		.thumb_func
 588              	__tcf_2:
 589              	.LFB5453:
 590              		.cfi_startproc
 591              		@ args = 0, pretend = 0, frame = 0
 592              		@ frame_needed = 0, uses_anonymous_args = 0
 593              		@ link register save eliminated.
 594 0000 7047     		bx	lr
 595              		.cfi_endproc
 596              	.LFE5453:
 598 0002 00BF     		.section	.text.__tcf_3,"ax",%progbits
 599              		.align	1
 600              		.p2align 2,,3
 601              		.syntax unified
 602              		.thumb
 603              		.thumb_func
 605              	__tcf_3:
 606              	.LFB5455:
 607              		.cfi_startproc
 608              		@ args = 0, pretend = 0, frame = 0
 609              		@ frame_needed = 0, uses_anonymous_args = 0
 610              		@ link register save eliminated.
 611 0000 7047     		bx	lr
 612              		.cfi_endproc
 613              	.LFE5455:
 615 0002 00BF     		.section	.text.__tcf_4,"ax",%progbits
 616              		.align	1
 617              		.p2align 2,,3
 618              		.syntax unified
 619              		.thumb
 620              		.thumb_func
 622              	__tcf_4:
 623              	.LFB5457:
 624              		.cfi_startproc
 625              		@ args = 0, pretend = 0, frame = 0
 626              		@ frame_needed = 0, uses_anonymous_args = 0
 627              		@ link register save eliminated.
 628 0000 7047     		bx	lr
 629              		.cfi_endproc
 630              	.LFE5457:
 632 0002 00BF     		.section	.text.__tcf_5,"ax",%progbits
 633              		.align	1
 634              		.p2align 2,,3
 635              		.syntax unified
 636              		.thumb
 637              		.thumb_func
 639              	__tcf_5:
 640              	.LFB5459:
 641              		.cfi_startproc
 642              		@ args = 0, pretend = 0, frame = 0
 643              		@ frame_needed = 0, uses_anonymous_args = 0
 644              		@ link register save eliminated.
 645 0000 7047     		bx	lr
 646              		.cfi_endproc
ARM GAS  /tmp/cca3rxWD.s 			page 26


 647              	.LFE5459:
 649 0002 00BF     		.section	.text._Z9calcrightf,"ax",%progbits
 650              		.align	1
 651              		.p2align 2,,3
 652              		.global	_Z9calcrightf
 653              		.syntax unified
 654              		.thumb
 655              		.thumb_func
 657              	_Z9calcrightf:
 658              	.LVL32:
 659              	.LFB4815:
 174:fjol.cpp      **** 
 175:fjol.cpp      **** 
 176:fjol.cpp      **** int main(void)
 177:fjol.cpp      **** {
 178:fjol.cpp      ****   // Init everything
 179:fjol.cpp      ****   
 180:fjol.cpp      ****   i2c.Init(i2c_config);
 181:fjol.cpp      **** 
 182:fjol.cpp      ****   initializeadc();
 183:fjol.cpp      **** 
 184:fjol.cpp      ****   //Initialize the adc with the config we just made
 185:fjol.cpp      ****   hw.adc.Init(&adcConfig, 1);
 186:fjol.cpp      ****   hw.Init();
 187:fjol.cpp      ****   hw.SetAudioBlockSize(2);
 188:fjol.cpp      **** 
 189:fjol.cpp      ****   initializecontrols();
 190:fjol.cpp      **** 
 191:fjol.cpp      ****   
 192:fjol.cpp      ****   updatecontrols();
 193:fjol.cpp      ****   shift_sw.Debounce();
 194:fjol.cpp      ****   if(shift_sw.Pressed())
 195:fjol.cpp      ****   {
 196:fjol.cpp      ****     calibrate();
 197:fjol.cpp      ****   }
 198:fjol.cpp      ****   getorsetsettings(load); //get settings from EEPROM
 199:fjol.cpp      **** 
 200:fjol.cpp      ****   samplerate = hw.AudioSampleRate();
 201:fjol.cpp      ****   initializeaudio();
 202:fjol.cpp      ****   hw.StartAudio(AudioCallback);
 203:fjol.cpp      **** 
 204:fjol.cpp      ****   startPCA9622();
 205:fjol.cpp      **** 
 206:fjol.cpp      ****   for(int i = 0; i<15;i++)
 207:fjol.cpp      ****   {
 208:fjol.cpp      ****     setpwm(i,128);
 209:fjol.cpp      ****     System::Delay(25);
 210:fjol.cpp      ****     setpwm(i,0);
 211:fjol.cpp      ****     System::Delay(25);
 212:fjol.cpp      ****   }
 213:fjol.cpp      ****   led_update(8);
 214:fjol.cpp      ****   MidiUartHandler::Config midi_config;
 215:fjol.cpp      ****   midi.Init(midi_config);
 216:fjol.cpp      ****   midi.StartReceive();
 217:fjol.cpp      ****   while(1)
 218:fjol.cpp      ****   {
 219:fjol.cpp      ****    /** Listen to MIDI for new changes */
ARM GAS  /tmp/cca3rxWD.s 			page 27


 220:fjol.cpp      ****     midi.Listen();
 221:fjol.cpp      ****     // Handle MIDI Events
 222:fjol.cpp      ****     while(midi.HasEvents())
 223:fjol.cpp      ****     {
 224:fjol.cpp      ****       HandleMidiMessage(midi.PopEvent());
 225:fjol.cpp      ****     }
 226:fjol.cpp      ****     if(led_takeover == 0)
 227:fjol.cpp      ****     {
 228:fjol.cpp      ****       
 229:fjol.cpp      ****       for(int i = 0;i<8;i++)
 230:fjol.cpp      ****       {
 231:fjol.cpp      ****         if(params_changed[i] == 1 && !(midi_sw.Pressed()) && !(algo_sw.Pressed()) && !(shift_sw.Pre
 232:fjol.cpp      ****         {
 233:fjol.cpp      ****           //Serial.println(String("Params changed"));
 234:fjol.cpp      ****           led_update(i);
 235:fjol.cpp      ****           params_changed[i] = 0; 
 236:fjol.cpp      ****         }
 237:fjol.cpp      ****       } //for ends
 238:fjol.cpp      ****     } //if led takeover ends
 239:fjol.cpp      ****         
 240:fjol.cpp      ****     //if any other UI feature has taken over the LED's then count up to 2 seconds and go back to th
 241:fjol.cpp      ****     if( led_takeover == 1 && ((System::GetNow()- ledlastmillis) >= 500) )
 242:fjol.cpp      ****     {
 243:fjol.cpp      ****        led_takeover = 0;
 244:fjol.cpp      ****       //Serial.println(led_takeover);
 245:fjol.cpp      ****        led_update(8); //update all leds
 246:fjol.cpp      ****     } 
 247:fjol.cpp      ****     updatecontrols();
 248:fjol.cpp      ****     
 249:fjol.cpp      ****   } //while ends
 250:fjol.cpp      ****  
 251:fjol.cpp      **** } //main ends
 252:fjol.cpp      **** 
 253:fjol.cpp      **** 
 254:fjol.cpp      **** float calcright(float theta) //calculate -4.5dB pan law
 255:fjol.cpp      **** {
 660              		.loc 7 255 1 is_stmt 1 view -0
 661              		.cfi_startproc
 662              		@ args = 0, pretend = 0, frame = 0
 663              		@ frame_needed = 0, uses_anonymous_args = 0
 256:fjol.cpp      **** 
 257:fjol.cpp      ****   float right = sqrt((theta) * (2 / PI) * sin(theta));
 664              		.loc 7 257 3 view .LVU142
 255:fjol.cpp      **** 
 665              		.loc 7 255 1 is_stmt 0 view .LVU143
 666 0000 08B5     		push	{r3, lr}
 667              		.cfi_def_cfa_offset 8
 668              		.cfi_offset 3, -8
 669              		.cfi_offset 14, -4
 670 0002 2DED028B 		vpush.64	{d8}
 671              		.cfi_def_cfa_offset 16
 672              		.cfi_offset 80, -16
 673              		.cfi_offset 81, -12
 255:fjol.cpp      **** 
 674              		.loc 7 255 1 view .LVU144
 675 0006 B0EE408A 		vmov.f32	s16, s0
 676              	.LVL33:
ARM GAS  /tmp/cca3rxWD.s 			page 28


 677              	.LBB571:
 678              	.LBI571:
 679              		.file 11 "/home/hallmar/Developer/gcc-arm-none-eabi-10.3-2021.10/arm-none-eabi/include/c++/10.3.1/
   1:/home/hallmar/Developer/gcc-arm-none-eabi-10.3-2021.10/arm-none-eabi/include/c++/10.3.1/cmath **** // -*- C++ -*- C forwarding header.
   2:/home/hallmar/Developer/gcc-arm-none-eabi-10.3-2021.10/arm-none-eabi/include/c++/10.3.1/cmath **** 
   3:/home/hallmar/Developer/gcc-arm-none-eabi-10.3-2021.10/arm-none-eabi/include/c++/10.3.1/cmath **** // Copyright (C) 1997-2020 Free Software Foundation, Inc.
   4:/home/hallmar/Developer/gcc-arm-none-eabi-10.3-2021.10/arm-none-eabi/include/c++/10.3.1/cmath **** //
   5:/home/hallmar/Developer/gcc-arm-none-eabi-10.3-2021.10/arm-none-eabi/include/c++/10.3.1/cmath **** // This file is part of the GNU ISO C++ Library.  This library is free
   6:/home/hallmar/Developer/gcc-arm-none-eabi-10.3-2021.10/arm-none-eabi/include/c++/10.3.1/cmath **** // software; you can redistribute it and/or modify it under the
   7:/home/hallmar/Developer/gcc-arm-none-eabi-10.3-2021.10/arm-none-eabi/include/c++/10.3.1/cmath **** // terms of the GNU General Public License as published by the
   8:/home/hallmar/Developer/gcc-arm-none-eabi-10.3-2021.10/arm-none-eabi/include/c++/10.3.1/cmath **** // Free Software Foundation; either version 3, or (at your option)
   9:/home/hallmar/Developer/gcc-arm-none-eabi-10.3-2021.10/arm-none-eabi/include/c++/10.3.1/cmath **** // any later version.
  10:/home/hallmar/Developer/gcc-arm-none-eabi-10.3-2021.10/arm-none-eabi/include/c++/10.3.1/cmath **** 
  11:/home/hallmar/Developer/gcc-arm-none-eabi-10.3-2021.10/arm-none-eabi/include/c++/10.3.1/cmath **** // This library is distributed in the hope that it will be useful,
  12:/home/hallmar/Developer/gcc-arm-none-eabi-10.3-2021.10/arm-none-eabi/include/c++/10.3.1/cmath **** // but WITHOUT ANY WARRANTY; without even the implied warranty of
  13:/home/hallmar/Developer/gcc-arm-none-eabi-10.3-2021.10/arm-none-eabi/include/c++/10.3.1/cmath **** // MERCHANTABILITY or FITNESS FOR A PARTICULAR PURPOSE.  See the
  14:/home/hallmar/Developer/gcc-arm-none-eabi-10.3-2021.10/arm-none-eabi/include/c++/10.3.1/cmath **** // GNU General Public License for more details.
  15:/home/hallmar/Developer/gcc-arm-none-eabi-10.3-2021.10/arm-none-eabi/include/c++/10.3.1/cmath **** 
  16:/home/hallmar/Developer/gcc-arm-none-eabi-10.3-2021.10/arm-none-eabi/include/c++/10.3.1/cmath **** // Under Section 7 of GPL version 3, you are granted additional
  17:/home/hallmar/Developer/gcc-arm-none-eabi-10.3-2021.10/arm-none-eabi/include/c++/10.3.1/cmath **** // permissions described in the GCC Runtime Library Exception, version
  18:/home/hallmar/Developer/gcc-arm-none-eabi-10.3-2021.10/arm-none-eabi/include/c++/10.3.1/cmath **** // 3.1, as published by the Free Software Foundation.
  19:/home/hallmar/Developer/gcc-arm-none-eabi-10.3-2021.10/arm-none-eabi/include/c++/10.3.1/cmath **** 
  20:/home/hallmar/Developer/gcc-arm-none-eabi-10.3-2021.10/arm-none-eabi/include/c++/10.3.1/cmath **** // You should have received a copy of the GNU General Public License and
  21:/home/hallmar/Developer/gcc-arm-none-eabi-10.3-2021.10/arm-none-eabi/include/c++/10.3.1/cmath **** // a copy of the GCC Runtime Library Exception along with this program;
  22:/home/hallmar/Developer/gcc-arm-none-eabi-10.3-2021.10/arm-none-eabi/include/c++/10.3.1/cmath **** // see the files COPYING3 and COPYING.RUNTIME respectively.  If not, see
  23:/home/hallmar/Developer/gcc-arm-none-eabi-10.3-2021.10/arm-none-eabi/include/c++/10.3.1/cmath **** // <http://www.gnu.org/licenses/>.
  24:/home/hallmar/Developer/gcc-arm-none-eabi-10.3-2021.10/arm-none-eabi/include/c++/10.3.1/cmath **** 
  25:/home/hallmar/Developer/gcc-arm-none-eabi-10.3-2021.10/arm-none-eabi/include/c++/10.3.1/cmath **** /** @file include/cmath
  26:/home/hallmar/Developer/gcc-arm-none-eabi-10.3-2021.10/arm-none-eabi/include/c++/10.3.1/cmath ****  *  This is a Standard C++ Library file.  You should @c \#include this file
  27:/home/hallmar/Developer/gcc-arm-none-eabi-10.3-2021.10/arm-none-eabi/include/c++/10.3.1/cmath ****  *  in your programs, rather than any of the @a *.h implementation files.
  28:/home/hallmar/Developer/gcc-arm-none-eabi-10.3-2021.10/arm-none-eabi/include/c++/10.3.1/cmath ****  *
  29:/home/hallmar/Developer/gcc-arm-none-eabi-10.3-2021.10/arm-none-eabi/include/c++/10.3.1/cmath ****  *  This is the C++ version of the Standard C Library header @c math.h,
  30:/home/hallmar/Developer/gcc-arm-none-eabi-10.3-2021.10/arm-none-eabi/include/c++/10.3.1/cmath ****  *  and its contents are (mostly) the same as that header, but are all
  31:/home/hallmar/Developer/gcc-arm-none-eabi-10.3-2021.10/arm-none-eabi/include/c++/10.3.1/cmath ****  *  contained in the namespace @c std (except for names which are defined
  32:/home/hallmar/Developer/gcc-arm-none-eabi-10.3-2021.10/arm-none-eabi/include/c++/10.3.1/cmath ****  *  as macros in C).
  33:/home/hallmar/Developer/gcc-arm-none-eabi-10.3-2021.10/arm-none-eabi/include/c++/10.3.1/cmath ****  */
  34:/home/hallmar/Developer/gcc-arm-none-eabi-10.3-2021.10/arm-none-eabi/include/c++/10.3.1/cmath **** 
  35:/home/hallmar/Developer/gcc-arm-none-eabi-10.3-2021.10/arm-none-eabi/include/c++/10.3.1/cmath **** //
  36:/home/hallmar/Developer/gcc-arm-none-eabi-10.3-2021.10/arm-none-eabi/include/c++/10.3.1/cmath **** // ISO C++ 14882: 26.5  C library
  37:/home/hallmar/Developer/gcc-arm-none-eabi-10.3-2021.10/arm-none-eabi/include/c++/10.3.1/cmath **** //
  38:/home/hallmar/Developer/gcc-arm-none-eabi-10.3-2021.10/arm-none-eabi/include/c++/10.3.1/cmath **** 
  39:/home/hallmar/Developer/gcc-arm-none-eabi-10.3-2021.10/arm-none-eabi/include/c++/10.3.1/cmath **** #pragma GCC system_header
  40:/home/hallmar/Developer/gcc-arm-none-eabi-10.3-2021.10/arm-none-eabi/include/c++/10.3.1/cmath **** 
  41:/home/hallmar/Developer/gcc-arm-none-eabi-10.3-2021.10/arm-none-eabi/include/c++/10.3.1/cmath **** #include <bits/c++config.h>
  42:/home/hallmar/Developer/gcc-arm-none-eabi-10.3-2021.10/arm-none-eabi/include/c++/10.3.1/cmath **** #include <bits/cpp_type_traits.h>
  43:/home/hallmar/Developer/gcc-arm-none-eabi-10.3-2021.10/arm-none-eabi/include/c++/10.3.1/cmath **** #include <ext/type_traits.h>
  44:/home/hallmar/Developer/gcc-arm-none-eabi-10.3-2021.10/arm-none-eabi/include/c++/10.3.1/cmath **** #define _GLIBCXX_INCLUDE_NEXT_C_HEADERS
  45:/home/hallmar/Developer/gcc-arm-none-eabi-10.3-2021.10/arm-none-eabi/include/c++/10.3.1/cmath **** #include_next <math.h>
  46:/home/hallmar/Developer/gcc-arm-none-eabi-10.3-2021.10/arm-none-eabi/include/c++/10.3.1/cmath **** #undef _GLIBCXX_INCLUDE_NEXT_C_HEADERS
  47:/home/hallmar/Developer/gcc-arm-none-eabi-10.3-2021.10/arm-none-eabi/include/c++/10.3.1/cmath **** #include <bits/std_abs.h>
  48:/home/hallmar/Developer/gcc-arm-none-eabi-10.3-2021.10/arm-none-eabi/include/c++/10.3.1/cmath **** 
  49:/home/hallmar/Developer/gcc-arm-none-eabi-10.3-2021.10/arm-none-eabi/include/c++/10.3.1/cmath **** #ifndef _GLIBCXX_CMATH
  50:/home/hallmar/Developer/gcc-arm-none-eabi-10.3-2021.10/arm-none-eabi/include/c++/10.3.1/cmath **** #define _GLIBCXX_CMATH 1
  51:/home/hallmar/Developer/gcc-arm-none-eabi-10.3-2021.10/arm-none-eabi/include/c++/10.3.1/cmath **** 
  52:/home/hallmar/Developer/gcc-arm-none-eabi-10.3-2021.10/arm-none-eabi/include/c++/10.3.1/cmath **** // Get rid of those macros defined in <math.h> in lieu of real functions.
  53:/home/hallmar/Developer/gcc-arm-none-eabi-10.3-2021.10/arm-none-eabi/include/c++/10.3.1/cmath **** #undef div
  54:/home/hallmar/Developer/gcc-arm-none-eabi-10.3-2021.10/arm-none-eabi/include/c++/10.3.1/cmath **** #undef acos
ARM GAS  /tmp/cca3rxWD.s 			page 29


  55:/home/hallmar/Developer/gcc-arm-none-eabi-10.3-2021.10/arm-none-eabi/include/c++/10.3.1/cmath **** #undef asin
  56:/home/hallmar/Developer/gcc-arm-none-eabi-10.3-2021.10/arm-none-eabi/include/c++/10.3.1/cmath **** #undef atan
  57:/home/hallmar/Developer/gcc-arm-none-eabi-10.3-2021.10/arm-none-eabi/include/c++/10.3.1/cmath **** #undef atan2
  58:/home/hallmar/Developer/gcc-arm-none-eabi-10.3-2021.10/arm-none-eabi/include/c++/10.3.1/cmath **** #undef ceil
  59:/home/hallmar/Developer/gcc-arm-none-eabi-10.3-2021.10/arm-none-eabi/include/c++/10.3.1/cmath **** #undef cos
  60:/home/hallmar/Developer/gcc-arm-none-eabi-10.3-2021.10/arm-none-eabi/include/c++/10.3.1/cmath **** #undef cosh
  61:/home/hallmar/Developer/gcc-arm-none-eabi-10.3-2021.10/arm-none-eabi/include/c++/10.3.1/cmath **** #undef exp
  62:/home/hallmar/Developer/gcc-arm-none-eabi-10.3-2021.10/arm-none-eabi/include/c++/10.3.1/cmath **** #undef fabs
  63:/home/hallmar/Developer/gcc-arm-none-eabi-10.3-2021.10/arm-none-eabi/include/c++/10.3.1/cmath **** #undef floor
  64:/home/hallmar/Developer/gcc-arm-none-eabi-10.3-2021.10/arm-none-eabi/include/c++/10.3.1/cmath **** #undef fmod
  65:/home/hallmar/Developer/gcc-arm-none-eabi-10.3-2021.10/arm-none-eabi/include/c++/10.3.1/cmath **** #undef frexp
  66:/home/hallmar/Developer/gcc-arm-none-eabi-10.3-2021.10/arm-none-eabi/include/c++/10.3.1/cmath **** #undef ldexp
  67:/home/hallmar/Developer/gcc-arm-none-eabi-10.3-2021.10/arm-none-eabi/include/c++/10.3.1/cmath **** #undef log
  68:/home/hallmar/Developer/gcc-arm-none-eabi-10.3-2021.10/arm-none-eabi/include/c++/10.3.1/cmath **** #undef log10
  69:/home/hallmar/Developer/gcc-arm-none-eabi-10.3-2021.10/arm-none-eabi/include/c++/10.3.1/cmath **** #undef modf
  70:/home/hallmar/Developer/gcc-arm-none-eabi-10.3-2021.10/arm-none-eabi/include/c++/10.3.1/cmath **** #undef pow
  71:/home/hallmar/Developer/gcc-arm-none-eabi-10.3-2021.10/arm-none-eabi/include/c++/10.3.1/cmath **** #undef sin
  72:/home/hallmar/Developer/gcc-arm-none-eabi-10.3-2021.10/arm-none-eabi/include/c++/10.3.1/cmath **** #undef sinh
  73:/home/hallmar/Developer/gcc-arm-none-eabi-10.3-2021.10/arm-none-eabi/include/c++/10.3.1/cmath **** #undef sqrt
  74:/home/hallmar/Developer/gcc-arm-none-eabi-10.3-2021.10/arm-none-eabi/include/c++/10.3.1/cmath **** #undef tan
  75:/home/hallmar/Developer/gcc-arm-none-eabi-10.3-2021.10/arm-none-eabi/include/c++/10.3.1/cmath **** #undef tanh
  76:/home/hallmar/Developer/gcc-arm-none-eabi-10.3-2021.10/arm-none-eabi/include/c++/10.3.1/cmath **** 
  77:/home/hallmar/Developer/gcc-arm-none-eabi-10.3-2021.10/arm-none-eabi/include/c++/10.3.1/cmath **** extern "C++"
  78:/home/hallmar/Developer/gcc-arm-none-eabi-10.3-2021.10/arm-none-eabi/include/c++/10.3.1/cmath **** {
  79:/home/hallmar/Developer/gcc-arm-none-eabi-10.3-2021.10/arm-none-eabi/include/c++/10.3.1/cmath **** namespace std _GLIBCXX_VISIBILITY(default)
  80:/home/hallmar/Developer/gcc-arm-none-eabi-10.3-2021.10/arm-none-eabi/include/c++/10.3.1/cmath **** {
  81:/home/hallmar/Developer/gcc-arm-none-eabi-10.3-2021.10/arm-none-eabi/include/c++/10.3.1/cmath **** _GLIBCXX_BEGIN_NAMESPACE_VERSION
  82:/home/hallmar/Developer/gcc-arm-none-eabi-10.3-2021.10/arm-none-eabi/include/c++/10.3.1/cmath **** 
  83:/home/hallmar/Developer/gcc-arm-none-eabi-10.3-2021.10/arm-none-eabi/include/c++/10.3.1/cmath ****   using ::acos;
  84:/home/hallmar/Developer/gcc-arm-none-eabi-10.3-2021.10/arm-none-eabi/include/c++/10.3.1/cmath **** 
  85:/home/hallmar/Developer/gcc-arm-none-eabi-10.3-2021.10/arm-none-eabi/include/c++/10.3.1/cmath **** #ifndef __CORRECT_ISO_CPP_MATH_H_PROTO
  86:/home/hallmar/Developer/gcc-arm-none-eabi-10.3-2021.10/arm-none-eabi/include/c++/10.3.1/cmath ****   inline _GLIBCXX_CONSTEXPR float
  87:/home/hallmar/Developer/gcc-arm-none-eabi-10.3-2021.10/arm-none-eabi/include/c++/10.3.1/cmath ****   acos(float __x)
  88:/home/hallmar/Developer/gcc-arm-none-eabi-10.3-2021.10/arm-none-eabi/include/c++/10.3.1/cmath ****   { return __builtin_acosf(__x); }
  89:/home/hallmar/Developer/gcc-arm-none-eabi-10.3-2021.10/arm-none-eabi/include/c++/10.3.1/cmath **** 
  90:/home/hallmar/Developer/gcc-arm-none-eabi-10.3-2021.10/arm-none-eabi/include/c++/10.3.1/cmath ****   inline _GLIBCXX_CONSTEXPR long double
  91:/home/hallmar/Developer/gcc-arm-none-eabi-10.3-2021.10/arm-none-eabi/include/c++/10.3.1/cmath ****   acos(long double __x)
  92:/home/hallmar/Developer/gcc-arm-none-eabi-10.3-2021.10/arm-none-eabi/include/c++/10.3.1/cmath ****   { return __builtin_acosl(__x); }
  93:/home/hallmar/Developer/gcc-arm-none-eabi-10.3-2021.10/arm-none-eabi/include/c++/10.3.1/cmath **** #endif
  94:/home/hallmar/Developer/gcc-arm-none-eabi-10.3-2021.10/arm-none-eabi/include/c++/10.3.1/cmath **** 
  95:/home/hallmar/Developer/gcc-arm-none-eabi-10.3-2021.10/arm-none-eabi/include/c++/10.3.1/cmath ****   template<typename _Tp>
  96:/home/hallmar/Developer/gcc-arm-none-eabi-10.3-2021.10/arm-none-eabi/include/c++/10.3.1/cmath ****     inline _GLIBCXX_CONSTEXPR
  97:/home/hallmar/Developer/gcc-arm-none-eabi-10.3-2021.10/arm-none-eabi/include/c++/10.3.1/cmath ****     typename __gnu_cxx::__enable_if<__is_integer<_Tp>::__value, 
  98:/home/hallmar/Developer/gcc-arm-none-eabi-10.3-2021.10/arm-none-eabi/include/c++/10.3.1/cmath ****                                     double>::__type
  99:/home/hallmar/Developer/gcc-arm-none-eabi-10.3-2021.10/arm-none-eabi/include/c++/10.3.1/cmath ****     acos(_Tp __x)
 100:/home/hallmar/Developer/gcc-arm-none-eabi-10.3-2021.10/arm-none-eabi/include/c++/10.3.1/cmath ****     { return __builtin_acos(__x); }
 101:/home/hallmar/Developer/gcc-arm-none-eabi-10.3-2021.10/arm-none-eabi/include/c++/10.3.1/cmath **** 
 102:/home/hallmar/Developer/gcc-arm-none-eabi-10.3-2021.10/arm-none-eabi/include/c++/10.3.1/cmath ****   using ::asin;
 103:/home/hallmar/Developer/gcc-arm-none-eabi-10.3-2021.10/arm-none-eabi/include/c++/10.3.1/cmath **** 
 104:/home/hallmar/Developer/gcc-arm-none-eabi-10.3-2021.10/arm-none-eabi/include/c++/10.3.1/cmath **** #ifndef __CORRECT_ISO_CPP_MATH_H_PROTO
 105:/home/hallmar/Developer/gcc-arm-none-eabi-10.3-2021.10/arm-none-eabi/include/c++/10.3.1/cmath ****   inline _GLIBCXX_CONSTEXPR float
 106:/home/hallmar/Developer/gcc-arm-none-eabi-10.3-2021.10/arm-none-eabi/include/c++/10.3.1/cmath ****   asin(float __x)
 107:/home/hallmar/Developer/gcc-arm-none-eabi-10.3-2021.10/arm-none-eabi/include/c++/10.3.1/cmath ****   { return __builtin_asinf(__x); }
 108:/home/hallmar/Developer/gcc-arm-none-eabi-10.3-2021.10/arm-none-eabi/include/c++/10.3.1/cmath **** 
 109:/home/hallmar/Developer/gcc-arm-none-eabi-10.3-2021.10/arm-none-eabi/include/c++/10.3.1/cmath ****   inline _GLIBCXX_CONSTEXPR long double
 110:/home/hallmar/Developer/gcc-arm-none-eabi-10.3-2021.10/arm-none-eabi/include/c++/10.3.1/cmath ****   asin(long double __x)
 111:/home/hallmar/Developer/gcc-arm-none-eabi-10.3-2021.10/arm-none-eabi/include/c++/10.3.1/cmath ****   { return __builtin_asinl(__x); }
ARM GAS  /tmp/cca3rxWD.s 			page 30


 112:/home/hallmar/Developer/gcc-arm-none-eabi-10.3-2021.10/arm-none-eabi/include/c++/10.3.1/cmath **** #endif
 113:/home/hallmar/Developer/gcc-arm-none-eabi-10.3-2021.10/arm-none-eabi/include/c++/10.3.1/cmath **** 
 114:/home/hallmar/Developer/gcc-arm-none-eabi-10.3-2021.10/arm-none-eabi/include/c++/10.3.1/cmath ****   template<typename _Tp>
 115:/home/hallmar/Developer/gcc-arm-none-eabi-10.3-2021.10/arm-none-eabi/include/c++/10.3.1/cmath ****     inline _GLIBCXX_CONSTEXPR
 116:/home/hallmar/Developer/gcc-arm-none-eabi-10.3-2021.10/arm-none-eabi/include/c++/10.3.1/cmath ****     typename __gnu_cxx::__enable_if<__is_integer<_Tp>::__value,
 117:/home/hallmar/Developer/gcc-arm-none-eabi-10.3-2021.10/arm-none-eabi/include/c++/10.3.1/cmath ****                                     double>::__type
 118:/home/hallmar/Developer/gcc-arm-none-eabi-10.3-2021.10/arm-none-eabi/include/c++/10.3.1/cmath ****     asin(_Tp __x)
 119:/home/hallmar/Developer/gcc-arm-none-eabi-10.3-2021.10/arm-none-eabi/include/c++/10.3.1/cmath ****     { return __builtin_asin(__x); }
 120:/home/hallmar/Developer/gcc-arm-none-eabi-10.3-2021.10/arm-none-eabi/include/c++/10.3.1/cmath **** 
 121:/home/hallmar/Developer/gcc-arm-none-eabi-10.3-2021.10/arm-none-eabi/include/c++/10.3.1/cmath ****   using ::atan;
 122:/home/hallmar/Developer/gcc-arm-none-eabi-10.3-2021.10/arm-none-eabi/include/c++/10.3.1/cmath **** 
 123:/home/hallmar/Developer/gcc-arm-none-eabi-10.3-2021.10/arm-none-eabi/include/c++/10.3.1/cmath **** #ifndef __CORRECT_ISO_CPP_MATH_H_PROTO
 124:/home/hallmar/Developer/gcc-arm-none-eabi-10.3-2021.10/arm-none-eabi/include/c++/10.3.1/cmath ****   inline _GLIBCXX_CONSTEXPR float
 125:/home/hallmar/Developer/gcc-arm-none-eabi-10.3-2021.10/arm-none-eabi/include/c++/10.3.1/cmath ****   atan(float __x)
 126:/home/hallmar/Developer/gcc-arm-none-eabi-10.3-2021.10/arm-none-eabi/include/c++/10.3.1/cmath ****   { return __builtin_atanf(__x); }
 127:/home/hallmar/Developer/gcc-arm-none-eabi-10.3-2021.10/arm-none-eabi/include/c++/10.3.1/cmath **** 
 128:/home/hallmar/Developer/gcc-arm-none-eabi-10.3-2021.10/arm-none-eabi/include/c++/10.3.1/cmath ****   inline _GLIBCXX_CONSTEXPR long double
 129:/home/hallmar/Developer/gcc-arm-none-eabi-10.3-2021.10/arm-none-eabi/include/c++/10.3.1/cmath ****   atan(long double __x)
 130:/home/hallmar/Developer/gcc-arm-none-eabi-10.3-2021.10/arm-none-eabi/include/c++/10.3.1/cmath ****   { return __builtin_atanl(__x); }
 131:/home/hallmar/Developer/gcc-arm-none-eabi-10.3-2021.10/arm-none-eabi/include/c++/10.3.1/cmath **** #endif
 132:/home/hallmar/Developer/gcc-arm-none-eabi-10.3-2021.10/arm-none-eabi/include/c++/10.3.1/cmath **** 
 133:/home/hallmar/Developer/gcc-arm-none-eabi-10.3-2021.10/arm-none-eabi/include/c++/10.3.1/cmath ****   template<typename _Tp>
 134:/home/hallmar/Developer/gcc-arm-none-eabi-10.3-2021.10/arm-none-eabi/include/c++/10.3.1/cmath ****     inline _GLIBCXX_CONSTEXPR
 135:/home/hallmar/Developer/gcc-arm-none-eabi-10.3-2021.10/arm-none-eabi/include/c++/10.3.1/cmath ****     typename __gnu_cxx::__enable_if<__is_integer<_Tp>::__value,
 136:/home/hallmar/Developer/gcc-arm-none-eabi-10.3-2021.10/arm-none-eabi/include/c++/10.3.1/cmath ****                                     double>::__type
 137:/home/hallmar/Developer/gcc-arm-none-eabi-10.3-2021.10/arm-none-eabi/include/c++/10.3.1/cmath ****     atan(_Tp __x)
 138:/home/hallmar/Developer/gcc-arm-none-eabi-10.3-2021.10/arm-none-eabi/include/c++/10.3.1/cmath ****     { return __builtin_atan(__x); }
 139:/home/hallmar/Developer/gcc-arm-none-eabi-10.3-2021.10/arm-none-eabi/include/c++/10.3.1/cmath **** 
 140:/home/hallmar/Developer/gcc-arm-none-eabi-10.3-2021.10/arm-none-eabi/include/c++/10.3.1/cmath ****   using ::atan2;
 141:/home/hallmar/Developer/gcc-arm-none-eabi-10.3-2021.10/arm-none-eabi/include/c++/10.3.1/cmath **** 
 142:/home/hallmar/Developer/gcc-arm-none-eabi-10.3-2021.10/arm-none-eabi/include/c++/10.3.1/cmath **** #ifndef __CORRECT_ISO_CPP_MATH_H_PROTO
 143:/home/hallmar/Developer/gcc-arm-none-eabi-10.3-2021.10/arm-none-eabi/include/c++/10.3.1/cmath ****   inline _GLIBCXX_CONSTEXPR float
 144:/home/hallmar/Developer/gcc-arm-none-eabi-10.3-2021.10/arm-none-eabi/include/c++/10.3.1/cmath ****   atan2(float __y, float __x)
 145:/home/hallmar/Developer/gcc-arm-none-eabi-10.3-2021.10/arm-none-eabi/include/c++/10.3.1/cmath ****   { return __builtin_atan2f(__y, __x); }
 146:/home/hallmar/Developer/gcc-arm-none-eabi-10.3-2021.10/arm-none-eabi/include/c++/10.3.1/cmath **** 
 147:/home/hallmar/Developer/gcc-arm-none-eabi-10.3-2021.10/arm-none-eabi/include/c++/10.3.1/cmath ****   inline _GLIBCXX_CONSTEXPR long double
 148:/home/hallmar/Developer/gcc-arm-none-eabi-10.3-2021.10/arm-none-eabi/include/c++/10.3.1/cmath ****   atan2(long double __y, long double __x)
 149:/home/hallmar/Developer/gcc-arm-none-eabi-10.3-2021.10/arm-none-eabi/include/c++/10.3.1/cmath ****   { return __builtin_atan2l(__y, __x); }
 150:/home/hallmar/Developer/gcc-arm-none-eabi-10.3-2021.10/arm-none-eabi/include/c++/10.3.1/cmath **** #endif
 151:/home/hallmar/Developer/gcc-arm-none-eabi-10.3-2021.10/arm-none-eabi/include/c++/10.3.1/cmath **** 
 152:/home/hallmar/Developer/gcc-arm-none-eabi-10.3-2021.10/arm-none-eabi/include/c++/10.3.1/cmath ****   template<typename _Tp, typename _Up>
 153:/home/hallmar/Developer/gcc-arm-none-eabi-10.3-2021.10/arm-none-eabi/include/c++/10.3.1/cmath ****     inline _GLIBCXX_CONSTEXPR
 154:/home/hallmar/Developer/gcc-arm-none-eabi-10.3-2021.10/arm-none-eabi/include/c++/10.3.1/cmath ****     typename __gnu_cxx::__promote_2<_Tp, _Up>::__type
 155:/home/hallmar/Developer/gcc-arm-none-eabi-10.3-2021.10/arm-none-eabi/include/c++/10.3.1/cmath ****     atan2(_Tp __y, _Up __x)
 156:/home/hallmar/Developer/gcc-arm-none-eabi-10.3-2021.10/arm-none-eabi/include/c++/10.3.1/cmath ****     {
 157:/home/hallmar/Developer/gcc-arm-none-eabi-10.3-2021.10/arm-none-eabi/include/c++/10.3.1/cmath ****       typedef typename __gnu_cxx::__promote_2<_Tp, _Up>::__type __type;
 158:/home/hallmar/Developer/gcc-arm-none-eabi-10.3-2021.10/arm-none-eabi/include/c++/10.3.1/cmath ****       return atan2(__type(__y), __type(__x));
 159:/home/hallmar/Developer/gcc-arm-none-eabi-10.3-2021.10/arm-none-eabi/include/c++/10.3.1/cmath ****     }
 160:/home/hallmar/Developer/gcc-arm-none-eabi-10.3-2021.10/arm-none-eabi/include/c++/10.3.1/cmath **** 
 161:/home/hallmar/Developer/gcc-arm-none-eabi-10.3-2021.10/arm-none-eabi/include/c++/10.3.1/cmath ****   using ::ceil;
 162:/home/hallmar/Developer/gcc-arm-none-eabi-10.3-2021.10/arm-none-eabi/include/c++/10.3.1/cmath **** 
 163:/home/hallmar/Developer/gcc-arm-none-eabi-10.3-2021.10/arm-none-eabi/include/c++/10.3.1/cmath **** #ifndef __CORRECT_ISO_CPP_MATH_H_PROTO
 164:/home/hallmar/Developer/gcc-arm-none-eabi-10.3-2021.10/arm-none-eabi/include/c++/10.3.1/cmath ****   inline _GLIBCXX_CONSTEXPR float
 165:/home/hallmar/Developer/gcc-arm-none-eabi-10.3-2021.10/arm-none-eabi/include/c++/10.3.1/cmath ****   ceil(float __x)
 166:/home/hallmar/Developer/gcc-arm-none-eabi-10.3-2021.10/arm-none-eabi/include/c++/10.3.1/cmath ****   { return __builtin_ceilf(__x); }
 167:/home/hallmar/Developer/gcc-arm-none-eabi-10.3-2021.10/arm-none-eabi/include/c++/10.3.1/cmath **** 
 168:/home/hallmar/Developer/gcc-arm-none-eabi-10.3-2021.10/arm-none-eabi/include/c++/10.3.1/cmath ****   inline _GLIBCXX_CONSTEXPR long double
ARM GAS  /tmp/cca3rxWD.s 			page 31


 169:/home/hallmar/Developer/gcc-arm-none-eabi-10.3-2021.10/arm-none-eabi/include/c++/10.3.1/cmath ****   ceil(long double __x)
 170:/home/hallmar/Developer/gcc-arm-none-eabi-10.3-2021.10/arm-none-eabi/include/c++/10.3.1/cmath ****   { return __builtin_ceill(__x); }
 171:/home/hallmar/Developer/gcc-arm-none-eabi-10.3-2021.10/arm-none-eabi/include/c++/10.3.1/cmath **** #endif
 172:/home/hallmar/Developer/gcc-arm-none-eabi-10.3-2021.10/arm-none-eabi/include/c++/10.3.1/cmath **** 
 173:/home/hallmar/Developer/gcc-arm-none-eabi-10.3-2021.10/arm-none-eabi/include/c++/10.3.1/cmath ****   template<typename _Tp>
 174:/home/hallmar/Developer/gcc-arm-none-eabi-10.3-2021.10/arm-none-eabi/include/c++/10.3.1/cmath ****     inline _GLIBCXX_CONSTEXPR
 175:/home/hallmar/Developer/gcc-arm-none-eabi-10.3-2021.10/arm-none-eabi/include/c++/10.3.1/cmath ****     typename __gnu_cxx::__enable_if<__is_integer<_Tp>::__value, 
 176:/home/hallmar/Developer/gcc-arm-none-eabi-10.3-2021.10/arm-none-eabi/include/c++/10.3.1/cmath ****                                     double>::__type
 177:/home/hallmar/Developer/gcc-arm-none-eabi-10.3-2021.10/arm-none-eabi/include/c++/10.3.1/cmath ****     ceil(_Tp __x)
 178:/home/hallmar/Developer/gcc-arm-none-eabi-10.3-2021.10/arm-none-eabi/include/c++/10.3.1/cmath ****     { return __builtin_ceil(__x); }
 179:/home/hallmar/Developer/gcc-arm-none-eabi-10.3-2021.10/arm-none-eabi/include/c++/10.3.1/cmath **** 
 180:/home/hallmar/Developer/gcc-arm-none-eabi-10.3-2021.10/arm-none-eabi/include/c++/10.3.1/cmath ****   using ::cos;
 181:/home/hallmar/Developer/gcc-arm-none-eabi-10.3-2021.10/arm-none-eabi/include/c++/10.3.1/cmath **** 
 182:/home/hallmar/Developer/gcc-arm-none-eabi-10.3-2021.10/arm-none-eabi/include/c++/10.3.1/cmath **** #ifndef __CORRECT_ISO_CPP_MATH_H_PROTO
 183:/home/hallmar/Developer/gcc-arm-none-eabi-10.3-2021.10/arm-none-eabi/include/c++/10.3.1/cmath ****   inline _GLIBCXX_CONSTEXPR float
 184:/home/hallmar/Developer/gcc-arm-none-eabi-10.3-2021.10/arm-none-eabi/include/c++/10.3.1/cmath ****   cos(float __x)
 185:/home/hallmar/Developer/gcc-arm-none-eabi-10.3-2021.10/arm-none-eabi/include/c++/10.3.1/cmath ****   { return __builtin_cosf(__x); }
 186:/home/hallmar/Developer/gcc-arm-none-eabi-10.3-2021.10/arm-none-eabi/include/c++/10.3.1/cmath **** 
 187:/home/hallmar/Developer/gcc-arm-none-eabi-10.3-2021.10/arm-none-eabi/include/c++/10.3.1/cmath ****   inline _GLIBCXX_CONSTEXPR long double
 188:/home/hallmar/Developer/gcc-arm-none-eabi-10.3-2021.10/arm-none-eabi/include/c++/10.3.1/cmath ****   cos(long double __x)
 189:/home/hallmar/Developer/gcc-arm-none-eabi-10.3-2021.10/arm-none-eabi/include/c++/10.3.1/cmath ****   { return __builtin_cosl(__x); }
 190:/home/hallmar/Developer/gcc-arm-none-eabi-10.3-2021.10/arm-none-eabi/include/c++/10.3.1/cmath **** #endif
 191:/home/hallmar/Developer/gcc-arm-none-eabi-10.3-2021.10/arm-none-eabi/include/c++/10.3.1/cmath **** 
 192:/home/hallmar/Developer/gcc-arm-none-eabi-10.3-2021.10/arm-none-eabi/include/c++/10.3.1/cmath ****   template<typename _Tp>
 193:/home/hallmar/Developer/gcc-arm-none-eabi-10.3-2021.10/arm-none-eabi/include/c++/10.3.1/cmath ****     inline _GLIBCXX_CONSTEXPR
 194:/home/hallmar/Developer/gcc-arm-none-eabi-10.3-2021.10/arm-none-eabi/include/c++/10.3.1/cmath ****     typename __gnu_cxx::__enable_if<__is_integer<_Tp>::__value,
 195:/home/hallmar/Developer/gcc-arm-none-eabi-10.3-2021.10/arm-none-eabi/include/c++/10.3.1/cmath ****                                     double>::__type
 196:/home/hallmar/Developer/gcc-arm-none-eabi-10.3-2021.10/arm-none-eabi/include/c++/10.3.1/cmath ****     cos(_Tp __x)
 197:/home/hallmar/Developer/gcc-arm-none-eabi-10.3-2021.10/arm-none-eabi/include/c++/10.3.1/cmath ****     { return __builtin_cos(__x); }
 198:/home/hallmar/Developer/gcc-arm-none-eabi-10.3-2021.10/arm-none-eabi/include/c++/10.3.1/cmath **** 
 199:/home/hallmar/Developer/gcc-arm-none-eabi-10.3-2021.10/arm-none-eabi/include/c++/10.3.1/cmath ****   using ::cosh;
 200:/home/hallmar/Developer/gcc-arm-none-eabi-10.3-2021.10/arm-none-eabi/include/c++/10.3.1/cmath **** 
 201:/home/hallmar/Developer/gcc-arm-none-eabi-10.3-2021.10/arm-none-eabi/include/c++/10.3.1/cmath **** #ifndef __CORRECT_ISO_CPP_MATH_H_PROTO
 202:/home/hallmar/Developer/gcc-arm-none-eabi-10.3-2021.10/arm-none-eabi/include/c++/10.3.1/cmath ****   inline _GLIBCXX_CONSTEXPR float
 203:/home/hallmar/Developer/gcc-arm-none-eabi-10.3-2021.10/arm-none-eabi/include/c++/10.3.1/cmath ****   cosh(float __x)
 204:/home/hallmar/Developer/gcc-arm-none-eabi-10.3-2021.10/arm-none-eabi/include/c++/10.3.1/cmath ****   { return __builtin_coshf(__x); }
 205:/home/hallmar/Developer/gcc-arm-none-eabi-10.3-2021.10/arm-none-eabi/include/c++/10.3.1/cmath **** 
 206:/home/hallmar/Developer/gcc-arm-none-eabi-10.3-2021.10/arm-none-eabi/include/c++/10.3.1/cmath ****   inline _GLIBCXX_CONSTEXPR long double
 207:/home/hallmar/Developer/gcc-arm-none-eabi-10.3-2021.10/arm-none-eabi/include/c++/10.3.1/cmath ****   cosh(long double __x)
 208:/home/hallmar/Developer/gcc-arm-none-eabi-10.3-2021.10/arm-none-eabi/include/c++/10.3.1/cmath ****   { return __builtin_coshl(__x); }
 209:/home/hallmar/Developer/gcc-arm-none-eabi-10.3-2021.10/arm-none-eabi/include/c++/10.3.1/cmath **** #endif
 210:/home/hallmar/Developer/gcc-arm-none-eabi-10.3-2021.10/arm-none-eabi/include/c++/10.3.1/cmath **** 
 211:/home/hallmar/Developer/gcc-arm-none-eabi-10.3-2021.10/arm-none-eabi/include/c++/10.3.1/cmath ****   template<typename _Tp>
 212:/home/hallmar/Developer/gcc-arm-none-eabi-10.3-2021.10/arm-none-eabi/include/c++/10.3.1/cmath ****     inline _GLIBCXX_CONSTEXPR
 213:/home/hallmar/Developer/gcc-arm-none-eabi-10.3-2021.10/arm-none-eabi/include/c++/10.3.1/cmath ****     typename __gnu_cxx::__enable_if<__is_integer<_Tp>::__value,
 214:/home/hallmar/Developer/gcc-arm-none-eabi-10.3-2021.10/arm-none-eabi/include/c++/10.3.1/cmath ****                                     double>::__type
 215:/home/hallmar/Developer/gcc-arm-none-eabi-10.3-2021.10/arm-none-eabi/include/c++/10.3.1/cmath ****     cosh(_Tp __x)
 216:/home/hallmar/Developer/gcc-arm-none-eabi-10.3-2021.10/arm-none-eabi/include/c++/10.3.1/cmath ****     { return __builtin_cosh(__x); }
 217:/home/hallmar/Developer/gcc-arm-none-eabi-10.3-2021.10/arm-none-eabi/include/c++/10.3.1/cmath **** 
 218:/home/hallmar/Developer/gcc-arm-none-eabi-10.3-2021.10/arm-none-eabi/include/c++/10.3.1/cmath ****   using ::exp;
 219:/home/hallmar/Developer/gcc-arm-none-eabi-10.3-2021.10/arm-none-eabi/include/c++/10.3.1/cmath **** 
 220:/home/hallmar/Developer/gcc-arm-none-eabi-10.3-2021.10/arm-none-eabi/include/c++/10.3.1/cmath **** #ifndef __CORRECT_ISO_CPP_MATH_H_PROTO
 221:/home/hallmar/Developer/gcc-arm-none-eabi-10.3-2021.10/arm-none-eabi/include/c++/10.3.1/cmath ****   inline _GLIBCXX_CONSTEXPR float
 222:/home/hallmar/Developer/gcc-arm-none-eabi-10.3-2021.10/arm-none-eabi/include/c++/10.3.1/cmath ****   exp(float __x)
 223:/home/hallmar/Developer/gcc-arm-none-eabi-10.3-2021.10/arm-none-eabi/include/c++/10.3.1/cmath ****   { return __builtin_expf(__x); }
 224:/home/hallmar/Developer/gcc-arm-none-eabi-10.3-2021.10/arm-none-eabi/include/c++/10.3.1/cmath **** 
 225:/home/hallmar/Developer/gcc-arm-none-eabi-10.3-2021.10/arm-none-eabi/include/c++/10.3.1/cmath ****   inline _GLIBCXX_CONSTEXPR long double
ARM GAS  /tmp/cca3rxWD.s 			page 32


 226:/home/hallmar/Developer/gcc-arm-none-eabi-10.3-2021.10/arm-none-eabi/include/c++/10.3.1/cmath ****   exp(long double __x)
 227:/home/hallmar/Developer/gcc-arm-none-eabi-10.3-2021.10/arm-none-eabi/include/c++/10.3.1/cmath ****   { return __builtin_expl(__x); }
 228:/home/hallmar/Developer/gcc-arm-none-eabi-10.3-2021.10/arm-none-eabi/include/c++/10.3.1/cmath **** #endif
 229:/home/hallmar/Developer/gcc-arm-none-eabi-10.3-2021.10/arm-none-eabi/include/c++/10.3.1/cmath **** 
 230:/home/hallmar/Developer/gcc-arm-none-eabi-10.3-2021.10/arm-none-eabi/include/c++/10.3.1/cmath ****   template<typename _Tp>
 231:/home/hallmar/Developer/gcc-arm-none-eabi-10.3-2021.10/arm-none-eabi/include/c++/10.3.1/cmath ****     inline _GLIBCXX_CONSTEXPR
 232:/home/hallmar/Developer/gcc-arm-none-eabi-10.3-2021.10/arm-none-eabi/include/c++/10.3.1/cmath ****     typename __gnu_cxx::__enable_if<__is_integer<_Tp>::__value,
 233:/home/hallmar/Developer/gcc-arm-none-eabi-10.3-2021.10/arm-none-eabi/include/c++/10.3.1/cmath ****                                     double>::__type
 234:/home/hallmar/Developer/gcc-arm-none-eabi-10.3-2021.10/arm-none-eabi/include/c++/10.3.1/cmath ****     exp(_Tp __x)
 235:/home/hallmar/Developer/gcc-arm-none-eabi-10.3-2021.10/arm-none-eabi/include/c++/10.3.1/cmath ****     { return __builtin_exp(__x); }
 236:/home/hallmar/Developer/gcc-arm-none-eabi-10.3-2021.10/arm-none-eabi/include/c++/10.3.1/cmath **** 
 237:/home/hallmar/Developer/gcc-arm-none-eabi-10.3-2021.10/arm-none-eabi/include/c++/10.3.1/cmath ****   using ::fabs;
 238:/home/hallmar/Developer/gcc-arm-none-eabi-10.3-2021.10/arm-none-eabi/include/c++/10.3.1/cmath **** 
 239:/home/hallmar/Developer/gcc-arm-none-eabi-10.3-2021.10/arm-none-eabi/include/c++/10.3.1/cmath **** #ifndef __CORRECT_ISO_CPP_MATH_H_PROTO
 240:/home/hallmar/Developer/gcc-arm-none-eabi-10.3-2021.10/arm-none-eabi/include/c++/10.3.1/cmath ****   inline _GLIBCXX_CONSTEXPR float
 241:/home/hallmar/Developer/gcc-arm-none-eabi-10.3-2021.10/arm-none-eabi/include/c++/10.3.1/cmath ****   fabs(float __x)
 242:/home/hallmar/Developer/gcc-arm-none-eabi-10.3-2021.10/arm-none-eabi/include/c++/10.3.1/cmath ****   { return __builtin_fabsf(__x); }
 243:/home/hallmar/Developer/gcc-arm-none-eabi-10.3-2021.10/arm-none-eabi/include/c++/10.3.1/cmath **** 
 244:/home/hallmar/Developer/gcc-arm-none-eabi-10.3-2021.10/arm-none-eabi/include/c++/10.3.1/cmath ****   inline _GLIBCXX_CONSTEXPR long double
 245:/home/hallmar/Developer/gcc-arm-none-eabi-10.3-2021.10/arm-none-eabi/include/c++/10.3.1/cmath ****   fabs(long double __x)
 246:/home/hallmar/Developer/gcc-arm-none-eabi-10.3-2021.10/arm-none-eabi/include/c++/10.3.1/cmath ****   { return __builtin_fabsl(__x); }
 247:/home/hallmar/Developer/gcc-arm-none-eabi-10.3-2021.10/arm-none-eabi/include/c++/10.3.1/cmath **** #endif
 248:/home/hallmar/Developer/gcc-arm-none-eabi-10.3-2021.10/arm-none-eabi/include/c++/10.3.1/cmath **** 
 249:/home/hallmar/Developer/gcc-arm-none-eabi-10.3-2021.10/arm-none-eabi/include/c++/10.3.1/cmath ****   template<typename _Tp>
 250:/home/hallmar/Developer/gcc-arm-none-eabi-10.3-2021.10/arm-none-eabi/include/c++/10.3.1/cmath ****     inline _GLIBCXX_CONSTEXPR
 251:/home/hallmar/Developer/gcc-arm-none-eabi-10.3-2021.10/arm-none-eabi/include/c++/10.3.1/cmath ****     typename __gnu_cxx::__enable_if<__is_integer<_Tp>::__value,
 252:/home/hallmar/Developer/gcc-arm-none-eabi-10.3-2021.10/arm-none-eabi/include/c++/10.3.1/cmath ****                                     double>::__type
 253:/home/hallmar/Developer/gcc-arm-none-eabi-10.3-2021.10/arm-none-eabi/include/c++/10.3.1/cmath ****     fabs(_Tp __x)
 254:/home/hallmar/Developer/gcc-arm-none-eabi-10.3-2021.10/arm-none-eabi/include/c++/10.3.1/cmath ****     { return __builtin_fabs(__x); }
 255:/home/hallmar/Developer/gcc-arm-none-eabi-10.3-2021.10/arm-none-eabi/include/c++/10.3.1/cmath **** 
 256:/home/hallmar/Developer/gcc-arm-none-eabi-10.3-2021.10/arm-none-eabi/include/c++/10.3.1/cmath ****   using ::floor;
 257:/home/hallmar/Developer/gcc-arm-none-eabi-10.3-2021.10/arm-none-eabi/include/c++/10.3.1/cmath **** 
 258:/home/hallmar/Developer/gcc-arm-none-eabi-10.3-2021.10/arm-none-eabi/include/c++/10.3.1/cmath **** #ifndef __CORRECT_ISO_CPP_MATH_H_PROTO
 259:/home/hallmar/Developer/gcc-arm-none-eabi-10.3-2021.10/arm-none-eabi/include/c++/10.3.1/cmath ****   inline _GLIBCXX_CONSTEXPR float
 260:/home/hallmar/Developer/gcc-arm-none-eabi-10.3-2021.10/arm-none-eabi/include/c++/10.3.1/cmath ****   floor(float __x)
 261:/home/hallmar/Developer/gcc-arm-none-eabi-10.3-2021.10/arm-none-eabi/include/c++/10.3.1/cmath ****   { return __builtin_floorf(__x); }
 262:/home/hallmar/Developer/gcc-arm-none-eabi-10.3-2021.10/arm-none-eabi/include/c++/10.3.1/cmath **** 
 263:/home/hallmar/Developer/gcc-arm-none-eabi-10.3-2021.10/arm-none-eabi/include/c++/10.3.1/cmath ****   inline _GLIBCXX_CONSTEXPR long double
 264:/home/hallmar/Developer/gcc-arm-none-eabi-10.3-2021.10/arm-none-eabi/include/c++/10.3.1/cmath ****   floor(long double __x)
 265:/home/hallmar/Developer/gcc-arm-none-eabi-10.3-2021.10/arm-none-eabi/include/c++/10.3.1/cmath ****   { return __builtin_floorl(__x); }
 266:/home/hallmar/Developer/gcc-arm-none-eabi-10.3-2021.10/arm-none-eabi/include/c++/10.3.1/cmath **** #endif
 267:/home/hallmar/Developer/gcc-arm-none-eabi-10.3-2021.10/arm-none-eabi/include/c++/10.3.1/cmath **** 
 268:/home/hallmar/Developer/gcc-arm-none-eabi-10.3-2021.10/arm-none-eabi/include/c++/10.3.1/cmath ****   template<typename _Tp>
 269:/home/hallmar/Developer/gcc-arm-none-eabi-10.3-2021.10/arm-none-eabi/include/c++/10.3.1/cmath ****     inline _GLIBCXX_CONSTEXPR
 270:/home/hallmar/Developer/gcc-arm-none-eabi-10.3-2021.10/arm-none-eabi/include/c++/10.3.1/cmath ****     typename __gnu_cxx::__enable_if<__is_integer<_Tp>::__value,
 271:/home/hallmar/Developer/gcc-arm-none-eabi-10.3-2021.10/arm-none-eabi/include/c++/10.3.1/cmath ****                                     double>::__type
 272:/home/hallmar/Developer/gcc-arm-none-eabi-10.3-2021.10/arm-none-eabi/include/c++/10.3.1/cmath ****     floor(_Tp __x)
 273:/home/hallmar/Developer/gcc-arm-none-eabi-10.3-2021.10/arm-none-eabi/include/c++/10.3.1/cmath ****     { return __builtin_floor(__x); }
 274:/home/hallmar/Developer/gcc-arm-none-eabi-10.3-2021.10/arm-none-eabi/include/c++/10.3.1/cmath **** 
 275:/home/hallmar/Developer/gcc-arm-none-eabi-10.3-2021.10/arm-none-eabi/include/c++/10.3.1/cmath ****   using ::fmod;
 276:/home/hallmar/Developer/gcc-arm-none-eabi-10.3-2021.10/arm-none-eabi/include/c++/10.3.1/cmath **** 
 277:/home/hallmar/Developer/gcc-arm-none-eabi-10.3-2021.10/arm-none-eabi/include/c++/10.3.1/cmath **** #ifndef __CORRECT_ISO_CPP_MATH_H_PROTO
 278:/home/hallmar/Developer/gcc-arm-none-eabi-10.3-2021.10/arm-none-eabi/include/c++/10.3.1/cmath ****   inline _GLIBCXX_CONSTEXPR float
 279:/home/hallmar/Developer/gcc-arm-none-eabi-10.3-2021.10/arm-none-eabi/include/c++/10.3.1/cmath ****   fmod(float __x, float __y)
 280:/home/hallmar/Developer/gcc-arm-none-eabi-10.3-2021.10/arm-none-eabi/include/c++/10.3.1/cmath ****   { return __builtin_fmodf(__x, __y); }
 281:/home/hallmar/Developer/gcc-arm-none-eabi-10.3-2021.10/arm-none-eabi/include/c++/10.3.1/cmath **** 
 282:/home/hallmar/Developer/gcc-arm-none-eabi-10.3-2021.10/arm-none-eabi/include/c++/10.3.1/cmath ****   inline _GLIBCXX_CONSTEXPR long double
ARM GAS  /tmp/cca3rxWD.s 			page 33


 283:/home/hallmar/Developer/gcc-arm-none-eabi-10.3-2021.10/arm-none-eabi/include/c++/10.3.1/cmath ****   fmod(long double __x, long double __y)
 284:/home/hallmar/Developer/gcc-arm-none-eabi-10.3-2021.10/arm-none-eabi/include/c++/10.3.1/cmath ****   { return __builtin_fmodl(__x, __y); }
 285:/home/hallmar/Developer/gcc-arm-none-eabi-10.3-2021.10/arm-none-eabi/include/c++/10.3.1/cmath **** #endif
 286:/home/hallmar/Developer/gcc-arm-none-eabi-10.3-2021.10/arm-none-eabi/include/c++/10.3.1/cmath **** 
 287:/home/hallmar/Developer/gcc-arm-none-eabi-10.3-2021.10/arm-none-eabi/include/c++/10.3.1/cmath ****   template<typename _Tp, typename _Up>
 288:/home/hallmar/Developer/gcc-arm-none-eabi-10.3-2021.10/arm-none-eabi/include/c++/10.3.1/cmath ****     inline _GLIBCXX_CONSTEXPR
 289:/home/hallmar/Developer/gcc-arm-none-eabi-10.3-2021.10/arm-none-eabi/include/c++/10.3.1/cmath ****     typename __gnu_cxx::__promote_2<_Tp, _Up>::__type
 290:/home/hallmar/Developer/gcc-arm-none-eabi-10.3-2021.10/arm-none-eabi/include/c++/10.3.1/cmath ****     fmod(_Tp __x, _Up __y)
 291:/home/hallmar/Developer/gcc-arm-none-eabi-10.3-2021.10/arm-none-eabi/include/c++/10.3.1/cmath ****     {
 292:/home/hallmar/Developer/gcc-arm-none-eabi-10.3-2021.10/arm-none-eabi/include/c++/10.3.1/cmath ****       typedef typename __gnu_cxx::__promote_2<_Tp, _Up>::__type __type;
 293:/home/hallmar/Developer/gcc-arm-none-eabi-10.3-2021.10/arm-none-eabi/include/c++/10.3.1/cmath ****       return fmod(__type(__x), __type(__y));
 294:/home/hallmar/Developer/gcc-arm-none-eabi-10.3-2021.10/arm-none-eabi/include/c++/10.3.1/cmath ****     }
 295:/home/hallmar/Developer/gcc-arm-none-eabi-10.3-2021.10/arm-none-eabi/include/c++/10.3.1/cmath **** 
 296:/home/hallmar/Developer/gcc-arm-none-eabi-10.3-2021.10/arm-none-eabi/include/c++/10.3.1/cmath ****   using ::frexp;
 297:/home/hallmar/Developer/gcc-arm-none-eabi-10.3-2021.10/arm-none-eabi/include/c++/10.3.1/cmath **** 
 298:/home/hallmar/Developer/gcc-arm-none-eabi-10.3-2021.10/arm-none-eabi/include/c++/10.3.1/cmath **** #ifndef __CORRECT_ISO_CPP_MATH_H_PROTO
 299:/home/hallmar/Developer/gcc-arm-none-eabi-10.3-2021.10/arm-none-eabi/include/c++/10.3.1/cmath ****   inline float
 300:/home/hallmar/Developer/gcc-arm-none-eabi-10.3-2021.10/arm-none-eabi/include/c++/10.3.1/cmath ****   frexp(float __x, int* __exp)
 301:/home/hallmar/Developer/gcc-arm-none-eabi-10.3-2021.10/arm-none-eabi/include/c++/10.3.1/cmath ****   { return __builtin_frexpf(__x, __exp); }
 302:/home/hallmar/Developer/gcc-arm-none-eabi-10.3-2021.10/arm-none-eabi/include/c++/10.3.1/cmath **** 
 303:/home/hallmar/Developer/gcc-arm-none-eabi-10.3-2021.10/arm-none-eabi/include/c++/10.3.1/cmath ****   inline long double
 304:/home/hallmar/Developer/gcc-arm-none-eabi-10.3-2021.10/arm-none-eabi/include/c++/10.3.1/cmath ****   frexp(long double __x, int* __exp)
 305:/home/hallmar/Developer/gcc-arm-none-eabi-10.3-2021.10/arm-none-eabi/include/c++/10.3.1/cmath ****   { return __builtin_frexpl(__x, __exp); }
 306:/home/hallmar/Developer/gcc-arm-none-eabi-10.3-2021.10/arm-none-eabi/include/c++/10.3.1/cmath **** #endif
 307:/home/hallmar/Developer/gcc-arm-none-eabi-10.3-2021.10/arm-none-eabi/include/c++/10.3.1/cmath **** 
 308:/home/hallmar/Developer/gcc-arm-none-eabi-10.3-2021.10/arm-none-eabi/include/c++/10.3.1/cmath ****   template<typename _Tp>
 309:/home/hallmar/Developer/gcc-arm-none-eabi-10.3-2021.10/arm-none-eabi/include/c++/10.3.1/cmath ****     inline _GLIBCXX_CONSTEXPR
 310:/home/hallmar/Developer/gcc-arm-none-eabi-10.3-2021.10/arm-none-eabi/include/c++/10.3.1/cmath ****     typename __gnu_cxx::__enable_if<__is_integer<_Tp>::__value, 
 311:/home/hallmar/Developer/gcc-arm-none-eabi-10.3-2021.10/arm-none-eabi/include/c++/10.3.1/cmath ****                                     double>::__type
 312:/home/hallmar/Developer/gcc-arm-none-eabi-10.3-2021.10/arm-none-eabi/include/c++/10.3.1/cmath ****     frexp(_Tp __x, int* __exp)
 313:/home/hallmar/Developer/gcc-arm-none-eabi-10.3-2021.10/arm-none-eabi/include/c++/10.3.1/cmath ****     { return __builtin_frexp(__x, __exp); }
 314:/home/hallmar/Developer/gcc-arm-none-eabi-10.3-2021.10/arm-none-eabi/include/c++/10.3.1/cmath **** 
 315:/home/hallmar/Developer/gcc-arm-none-eabi-10.3-2021.10/arm-none-eabi/include/c++/10.3.1/cmath ****   using ::ldexp;
 316:/home/hallmar/Developer/gcc-arm-none-eabi-10.3-2021.10/arm-none-eabi/include/c++/10.3.1/cmath **** 
 317:/home/hallmar/Developer/gcc-arm-none-eabi-10.3-2021.10/arm-none-eabi/include/c++/10.3.1/cmath **** #ifndef __CORRECT_ISO_CPP_MATH_H_PROTO
 318:/home/hallmar/Developer/gcc-arm-none-eabi-10.3-2021.10/arm-none-eabi/include/c++/10.3.1/cmath ****   inline _GLIBCXX_CONSTEXPR float
 319:/home/hallmar/Developer/gcc-arm-none-eabi-10.3-2021.10/arm-none-eabi/include/c++/10.3.1/cmath ****   ldexp(float __x, int __exp)
 320:/home/hallmar/Developer/gcc-arm-none-eabi-10.3-2021.10/arm-none-eabi/include/c++/10.3.1/cmath ****   { return __builtin_ldexpf(__x, __exp); }
 321:/home/hallmar/Developer/gcc-arm-none-eabi-10.3-2021.10/arm-none-eabi/include/c++/10.3.1/cmath **** 
 322:/home/hallmar/Developer/gcc-arm-none-eabi-10.3-2021.10/arm-none-eabi/include/c++/10.3.1/cmath ****   inline _GLIBCXX_CONSTEXPR long double
 323:/home/hallmar/Developer/gcc-arm-none-eabi-10.3-2021.10/arm-none-eabi/include/c++/10.3.1/cmath ****   ldexp(long double __x, int __exp)
 324:/home/hallmar/Developer/gcc-arm-none-eabi-10.3-2021.10/arm-none-eabi/include/c++/10.3.1/cmath ****   { return __builtin_ldexpl(__x, __exp); }
 325:/home/hallmar/Developer/gcc-arm-none-eabi-10.3-2021.10/arm-none-eabi/include/c++/10.3.1/cmath **** #endif
 326:/home/hallmar/Developer/gcc-arm-none-eabi-10.3-2021.10/arm-none-eabi/include/c++/10.3.1/cmath **** 
 327:/home/hallmar/Developer/gcc-arm-none-eabi-10.3-2021.10/arm-none-eabi/include/c++/10.3.1/cmath ****   template<typename _Tp>
 328:/home/hallmar/Developer/gcc-arm-none-eabi-10.3-2021.10/arm-none-eabi/include/c++/10.3.1/cmath ****     inline _GLIBCXX_CONSTEXPR
 329:/home/hallmar/Developer/gcc-arm-none-eabi-10.3-2021.10/arm-none-eabi/include/c++/10.3.1/cmath ****     typename __gnu_cxx::__enable_if<__is_integer<_Tp>::__value, 
 330:/home/hallmar/Developer/gcc-arm-none-eabi-10.3-2021.10/arm-none-eabi/include/c++/10.3.1/cmath ****                                     double>::__type
 331:/home/hallmar/Developer/gcc-arm-none-eabi-10.3-2021.10/arm-none-eabi/include/c++/10.3.1/cmath ****     ldexp(_Tp __x, int __exp)
 332:/home/hallmar/Developer/gcc-arm-none-eabi-10.3-2021.10/arm-none-eabi/include/c++/10.3.1/cmath ****     { return __builtin_ldexp(__x, __exp); }
 333:/home/hallmar/Developer/gcc-arm-none-eabi-10.3-2021.10/arm-none-eabi/include/c++/10.3.1/cmath **** 
 334:/home/hallmar/Developer/gcc-arm-none-eabi-10.3-2021.10/arm-none-eabi/include/c++/10.3.1/cmath ****   using ::log;
 335:/home/hallmar/Developer/gcc-arm-none-eabi-10.3-2021.10/arm-none-eabi/include/c++/10.3.1/cmath **** 
 336:/home/hallmar/Developer/gcc-arm-none-eabi-10.3-2021.10/arm-none-eabi/include/c++/10.3.1/cmath **** #ifndef __CORRECT_ISO_CPP_MATH_H_PROTO
 337:/home/hallmar/Developer/gcc-arm-none-eabi-10.3-2021.10/arm-none-eabi/include/c++/10.3.1/cmath ****   inline _GLIBCXX_CONSTEXPR float
 338:/home/hallmar/Developer/gcc-arm-none-eabi-10.3-2021.10/arm-none-eabi/include/c++/10.3.1/cmath ****   log(float __x)
 339:/home/hallmar/Developer/gcc-arm-none-eabi-10.3-2021.10/arm-none-eabi/include/c++/10.3.1/cmath ****   { return __builtin_logf(__x); }
ARM GAS  /tmp/cca3rxWD.s 			page 34


 340:/home/hallmar/Developer/gcc-arm-none-eabi-10.3-2021.10/arm-none-eabi/include/c++/10.3.1/cmath **** 
 341:/home/hallmar/Developer/gcc-arm-none-eabi-10.3-2021.10/arm-none-eabi/include/c++/10.3.1/cmath ****   inline _GLIBCXX_CONSTEXPR long double
 342:/home/hallmar/Developer/gcc-arm-none-eabi-10.3-2021.10/arm-none-eabi/include/c++/10.3.1/cmath ****   log(long double __x)
 343:/home/hallmar/Developer/gcc-arm-none-eabi-10.3-2021.10/arm-none-eabi/include/c++/10.3.1/cmath ****   { return __builtin_logl(__x); }
 344:/home/hallmar/Developer/gcc-arm-none-eabi-10.3-2021.10/arm-none-eabi/include/c++/10.3.1/cmath **** #endif
 345:/home/hallmar/Developer/gcc-arm-none-eabi-10.3-2021.10/arm-none-eabi/include/c++/10.3.1/cmath **** 
 346:/home/hallmar/Developer/gcc-arm-none-eabi-10.3-2021.10/arm-none-eabi/include/c++/10.3.1/cmath ****   template<typename _Tp>
 347:/home/hallmar/Developer/gcc-arm-none-eabi-10.3-2021.10/arm-none-eabi/include/c++/10.3.1/cmath ****     inline _GLIBCXX_CONSTEXPR
 348:/home/hallmar/Developer/gcc-arm-none-eabi-10.3-2021.10/arm-none-eabi/include/c++/10.3.1/cmath ****     typename __gnu_cxx::__enable_if<__is_integer<_Tp>::__value, 
 349:/home/hallmar/Developer/gcc-arm-none-eabi-10.3-2021.10/arm-none-eabi/include/c++/10.3.1/cmath ****                                     double>::__type
 350:/home/hallmar/Developer/gcc-arm-none-eabi-10.3-2021.10/arm-none-eabi/include/c++/10.3.1/cmath ****     log(_Tp __x)
 351:/home/hallmar/Developer/gcc-arm-none-eabi-10.3-2021.10/arm-none-eabi/include/c++/10.3.1/cmath ****     { return __builtin_log(__x); }
 352:/home/hallmar/Developer/gcc-arm-none-eabi-10.3-2021.10/arm-none-eabi/include/c++/10.3.1/cmath **** 
 353:/home/hallmar/Developer/gcc-arm-none-eabi-10.3-2021.10/arm-none-eabi/include/c++/10.3.1/cmath ****   using ::log10;
 354:/home/hallmar/Developer/gcc-arm-none-eabi-10.3-2021.10/arm-none-eabi/include/c++/10.3.1/cmath **** 
 355:/home/hallmar/Developer/gcc-arm-none-eabi-10.3-2021.10/arm-none-eabi/include/c++/10.3.1/cmath **** #ifndef __CORRECT_ISO_CPP_MATH_H_PROTO
 356:/home/hallmar/Developer/gcc-arm-none-eabi-10.3-2021.10/arm-none-eabi/include/c++/10.3.1/cmath ****   inline _GLIBCXX_CONSTEXPR float
 357:/home/hallmar/Developer/gcc-arm-none-eabi-10.3-2021.10/arm-none-eabi/include/c++/10.3.1/cmath ****   log10(float __x)
 358:/home/hallmar/Developer/gcc-arm-none-eabi-10.3-2021.10/arm-none-eabi/include/c++/10.3.1/cmath ****   { return __builtin_log10f(__x); }
 359:/home/hallmar/Developer/gcc-arm-none-eabi-10.3-2021.10/arm-none-eabi/include/c++/10.3.1/cmath **** 
 360:/home/hallmar/Developer/gcc-arm-none-eabi-10.3-2021.10/arm-none-eabi/include/c++/10.3.1/cmath ****   inline _GLIBCXX_CONSTEXPR long double
 361:/home/hallmar/Developer/gcc-arm-none-eabi-10.3-2021.10/arm-none-eabi/include/c++/10.3.1/cmath ****   log10(long double __x)
 362:/home/hallmar/Developer/gcc-arm-none-eabi-10.3-2021.10/arm-none-eabi/include/c++/10.3.1/cmath ****   { return __builtin_log10l(__x); }
 363:/home/hallmar/Developer/gcc-arm-none-eabi-10.3-2021.10/arm-none-eabi/include/c++/10.3.1/cmath **** #endif
 364:/home/hallmar/Developer/gcc-arm-none-eabi-10.3-2021.10/arm-none-eabi/include/c++/10.3.1/cmath **** 
 365:/home/hallmar/Developer/gcc-arm-none-eabi-10.3-2021.10/arm-none-eabi/include/c++/10.3.1/cmath ****   template<typename _Tp>
 366:/home/hallmar/Developer/gcc-arm-none-eabi-10.3-2021.10/arm-none-eabi/include/c++/10.3.1/cmath ****     inline _GLIBCXX_CONSTEXPR
 367:/home/hallmar/Developer/gcc-arm-none-eabi-10.3-2021.10/arm-none-eabi/include/c++/10.3.1/cmath ****     typename __gnu_cxx::__enable_if<__is_integer<_Tp>::__value,
 368:/home/hallmar/Developer/gcc-arm-none-eabi-10.3-2021.10/arm-none-eabi/include/c++/10.3.1/cmath ****                                     double>::__type
 369:/home/hallmar/Developer/gcc-arm-none-eabi-10.3-2021.10/arm-none-eabi/include/c++/10.3.1/cmath ****     log10(_Tp __x)
 370:/home/hallmar/Developer/gcc-arm-none-eabi-10.3-2021.10/arm-none-eabi/include/c++/10.3.1/cmath ****     { return __builtin_log10(__x); }
 371:/home/hallmar/Developer/gcc-arm-none-eabi-10.3-2021.10/arm-none-eabi/include/c++/10.3.1/cmath **** 
 372:/home/hallmar/Developer/gcc-arm-none-eabi-10.3-2021.10/arm-none-eabi/include/c++/10.3.1/cmath ****   using ::modf;
 373:/home/hallmar/Developer/gcc-arm-none-eabi-10.3-2021.10/arm-none-eabi/include/c++/10.3.1/cmath **** 
 374:/home/hallmar/Developer/gcc-arm-none-eabi-10.3-2021.10/arm-none-eabi/include/c++/10.3.1/cmath **** #ifndef __CORRECT_ISO_CPP_MATH_H_PROTO
 375:/home/hallmar/Developer/gcc-arm-none-eabi-10.3-2021.10/arm-none-eabi/include/c++/10.3.1/cmath ****   inline float
 376:/home/hallmar/Developer/gcc-arm-none-eabi-10.3-2021.10/arm-none-eabi/include/c++/10.3.1/cmath ****   modf(float __x, float* __iptr)
 377:/home/hallmar/Developer/gcc-arm-none-eabi-10.3-2021.10/arm-none-eabi/include/c++/10.3.1/cmath ****   { return __builtin_modff(__x, __iptr); }
 378:/home/hallmar/Developer/gcc-arm-none-eabi-10.3-2021.10/arm-none-eabi/include/c++/10.3.1/cmath **** 
 379:/home/hallmar/Developer/gcc-arm-none-eabi-10.3-2021.10/arm-none-eabi/include/c++/10.3.1/cmath ****   inline long double
 380:/home/hallmar/Developer/gcc-arm-none-eabi-10.3-2021.10/arm-none-eabi/include/c++/10.3.1/cmath ****   modf(long double __x, long double* __iptr)
 381:/home/hallmar/Developer/gcc-arm-none-eabi-10.3-2021.10/arm-none-eabi/include/c++/10.3.1/cmath ****   { return __builtin_modfl(__x, __iptr); }
 382:/home/hallmar/Developer/gcc-arm-none-eabi-10.3-2021.10/arm-none-eabi/include/c++/10.3.1/cmath **** #endif
 383:/home/hallmar/Developer/gcc-arm-none-eabi-10.3-2021.10/arm-none-eabi/include/c++/10.3.1/cmath **** 
 384:/home/hallmar/Developer/gcc-arm-none-eabi-10.3-2021.10/arm-none-eabi/include/c++/10.3.1/cmath ****   using ::pow;
 385:/home/hallmar/Developer/gcc-arm-none-eabi-10.3-2021.10/arm-none-eabi/include/c++/10.3.1/cmath **** 
 386:/home/hallmar/Developer/gcc-arm-none-eabi-10.3-2021.10/arm-none-eabi/include/c++/10.3.1/cmath **** #ifndef __CORRECT_ISO_CPP_MATH_H_PROTO
 387:/home/hallmar/Developer/gcc-arm-none-eabi-10.3-2021.10/arm-none-eabi/include/c++/10.3.1/cmath ****   inline _GLIBCXX_CONSTEXPR float
 388:/home/hallmar/Developer/gcc-arm-none-eabi-10.3-2021.10/arm-none-eabi/include/c++/10.3.1/cmath ****   pow(float __x, float __y)
 389:/home/hallmar/Developer/gcc-arm-none-eabi-10.3-2021.10/arm-none-eabi/include/c++/10.3.1/cmath ****   { return __builtin_powf(__x, __y); }
 390:/home/hallmar/Developer/gcc-arm-none-eabi-10.3-2021.10/arm-none-eabi/include/c++/10.3.1/cmath **** 
 391:/home/hallmar/Developer/gcc-arm-none-eabi-10.3-2021.10/arm-none-eabi/include/c++/10.3.1/cmath ****   inline _GLIBCXX_CONSTEXPR long double
 392:/home/hallmar/Developer/gcc-arm-none-eabi-10.3-2021.10/arm-none-eabi/include/c++/10.3.1/cmath ****   pow(long double __x, long double __y)
 393:/home/hallmar/Developer/gcc-arm-none-eabi-10.3-2021.10/arm-none-eabi/include/c++/10.3.1/cmath ****   { return __builtin_powl(__x, __y); }
 394:/home/hallmar/Developer/gcc-arm-none-eabi-10.3-2021.10/arm-none-eabi/include/c++/10.3.1/cmath **** 
 395:/home/hallmar/Developer/gcc-arm-none-eabi-10.3-2021.10/arm-none-eabi/include/c++/10.3.1/cmath **** #if __cplusplus < 201103L
 396:/home/hallmar/Developer/gcc-arm-none-eabi-10.3-2021.10/arm-none-eabi/include/c++/10.3.1/cmath ****   // _GLIBCXX_RESOLVE_LIB_DEFECTS
ARM GAS  /tmp/cca3rxWD.s 			page 35


 397:/home/hallmar/Developer/gcc-arm-none-eabi-10.3-2021.10/arm-none-eabi/include/c++/10.3.1/cmath ****   // DR 550. What should the return type of pow(float,int) be?
 398:/home/hallmar/Developer/gcc-arm-none-eabi-10.3-2021.10/arm-none-eabi/include/c++/10.3.1/cmath ****   inline double
 399:/home/hallmar/Developer/gcc-arm-none-eabi-10.3-2021.10/arm-none-eabi/include/c++/10.3.1/cmath ****   pow(double __x, int __i)
 400:/home/hallmar/Developer/gcc-arm-none-eabi-10.3-2021.10/arm-none-eabi/include/c++/10.3.1/cmath ****   { return __builtin_powi(__x, __i); }
 401:/home/hallmar/Developer/gcc-arm-none-eabi-10.3-2021.10/arm-none-eabi/include/c++/10.3.1/cmath **** 
 402:/home/hallmar/Developer/gcc-arm-none-eabi-10.3-2021.10/arm-none-eabi/include/c++/10.3.1/cmath ****   inline float
 403:/home/hallmar/Developer/gcc-arm-none-eabi-10.3-2021.10/arm-none-eabi/include/c++/10.3.1/cmath ****   pow(float __x, int __n)
 404:/home/hallmar/Developer/gcc-arm-none-eabi-10.3-2021.10/arm-none-eabi/include/c++/10.3.1/cmath ****   { return __builtin_powif(__x, __n); }
 405:/home/hallmar/Developer/gcc-arm-none-eabi-10.3-2021.10/arm-none-eabi/include/c++/10.3.1/cmath **** 
 406:/home/hallmar/Developer/gcc-arm-none-eabi-10.3-2021.10/arm-none-eabi/include/c++/10.3.1/cmath ****   inline long double
 407:/home/hallmar/Developer/gcc-arm-none-eabi-10.3-2021.10/arm-none-eabi/include/c++/10.3.1/cmath ****   pow(long double __x, int __n)
 408:/home/hallmar/Developer/gcc-arm-none-eabi-10.3-2021.10/arm-none-eabi/include/c++/10.3.1/cmath ****   { return __builtin_powil(__x, __n); }
 409:/home/hallmar/Developer/gcc-arm-none-eabi-10.3-2021.10/arm-none-eabi/include/c++/10.3.1/cmath **** #endif
 410:/home/hallmar/Developer/gcc-arm-none-eabi-10.3-2021.10/arm-none-eabi/include/c++/10.3.1/cmath **** #endif
 411:/home/hallmar/Developer/gcc-arm-none-eabi-10.3-2021.10/arm-none-eabi/include/c++/10.3.1/cmath **** 
 412:/home/hallmar/Developer/gcc-arm-none-eabi-10.3-2021.10/arm-none-eabi/include/c++/10.3.1/cmath ****   template<typename _Tp, typename _Up>
 413:/home/hallmar/Developer/gcc-arm-none-eabi-10.3-2021.10/arm-none-eabi/include/c++/10.3.1/cmath ****     inline _GLIBCXX_CONSTEXPR
 414:/home/hallmar/Developer/gcc-arm-none-eabi-10.3-2021.10/arm-none-eabi/include/c++/10.3.1/cmath ****     typename __gnu_cxx::__promote_2<_Tp, _Up>::__type
 415:/home/hallmar/Developer/gcc-arm-none-eabi-10.3-2021.10/arm-none-eabi/include/c++/10.3.1/cmath ****     pow(_Tp __x, _Up __y)
 416:/home/hallmar/Developer/gcc-arm-none-eabi-10.3-2021.10/arm-none-eabi/include/c++/10.3.1/cmath ****     {
 417:/home/hallmar/Developer/gcc-arm-none-eabi-10.3-2021.10/arm-none-eabi/include/c++/10.3.1/cmath ****       typedef typename __gnu_cxx::__promote_2<_Tp, _Up>::__type __type;
 418:/home/hallmar/Developer/gcc-arm-none-eabi-10.3-2021.10/arm-none-eabi/include/c++/10.3.1/cmath ****       return pow(__type(__x), __type(__y));
 419:/home/hallmar/Developer/gcc-arm-none-eabi-10.3-2021.10/arm-none-eabi/include/c++/10.3.1/cmath ****     }
 420:/home/hallmar/Developer/gcc-arm-none-eabi-10.3-2021.10/arm-none-eabi/include/c++/10.3.1/cmath **** 
 421:/home/hallmar/Developer/gcc-arm-none-eabi-10.3-2021.10/arm-none-eabi/include/c++/10.3.1/cmath ****   using ::sin;
 422:/home/hallmar/Developer/gcc-arm-none-eabi-10.3-2021.10/arm-none-eabi/include/c++/10.3.1/cmath **** 
 423:/home/hallmar/Developer/gcc-arm-none-eabi-10.3-2021.10/arm-none-eabi/include/c++/10.3.1/cmath **** #ifndef __CORRECT_ISO_CPP_MATH_H_PROTO
 424:/home/hallmar/Developer/gcc-arm-none-eabi-10.3-2021.10/arm-none-eabi/include/c++/10.3.1/cmath ****   inline _GLIBCXX_CONSTEXPR float
 425:/home/hallmar/Developer/gcc-arm-none-eabi-10.3-2021.10/arm-none-eabi/include/c++/10.3.1/cmath ****   sin(float __x)
 680              		.loc 11 425 3 is_stmt 1 view .LVU145
 681              	.LBB572:
 426:/home/hallmar/Developer/gcc-arm-none-eabi-10.3-2021.10/arm-none-eabi/include/c++/10.3.1/cmath ****   { return __builtin_sinf(__x); }
 682              		.loc 11 426 5 view .LVU146
 683              		.loc 11 426 26 is_stmt 0 view .LVU147
 684 000a FFF7FEFF 		bl	sinf
 685              	.LVL34:
 686              		.loc 11 426 26 view .LVU148
 687              	.LBE572:
 688              	.LBE571:
 689              		.loc 7 257 46 view .LVU149
 690 000e B7EEC00A 		vcvt.f64.f32	d0, s0
 691              		.loc 7 257 30 view .LVU150
 692 0012 9FED0D7B 		vldr.64	d7, .L29
 693              		.loc 7 257 23 view .LVU151
 694 0016 B7EEC86A 		vcvt.f64.f32	d6, s16
 695              		.loc 7 257 30 view .LVU152
 696 001a 26EE076B 		vmul.f64	d6, d6, d7
 697              		.loc 7 257 21 view .LVU153
 698 001e 26EE006B 		vmul.f64	d6, d6, d0
 699 0022 B5EE406B 		vcmp.f64	d6, #0
 700 0026 F1EE10FA 		vmrs	APSR_nzcv, FPSCR
 701 002a 06D4     		bmi	.L27
 702 002c B1EEC60B 		vsqrt.f64	d0, d6
 703              	.L25:
 704              	.LVL35:
 258:fjol.cpp      ****   //Serial.println(String("Right:") + right);
 259:fjol.cpp      ****   return right;
ARM GAS  /tmp/cca3rxWD.s 			page 36


 705              		.loc 7 259 3 is_stmt 1 view .LVU154
 260:fjol.cpp      **** }
 706              		.loc 7 260 1 is_stmt 0 view .LVU155
 707 0030 B7EEC00B 		vcvt.f32.f64	s0, d0
 708              	.LVL36:
 709              		.loc 7 260 1 view .LVU156
 710 0034 BDEC028B 		vldm	sp!, {d8}
 711              		.cfi_remember_state
 712              		.cfi_restore 80
 713              		.cfi_restore 81
 714              		.cfi_def_cfa_offset 8
 715              	.LVL37:
 716              		.loc 7 260 1 view .LVU157
 717 0038 08BD     		pop	{r3, pc}
 718              	.LVL38:
 719              	.L27:
 720              		.cfi_restore_state
 257:fjol.cpp      ****   //Serial.println(String("Right:") + right);
 721              		.loc 7 257 21 view .LVU158
 722 003a B0EE460B 		vmov.f64	d0, d6
 723 003e FFF7FEFF 		bl	sqrt
 724              	.LVL39:
 725 0042 F5E7     		b	.L25
 726              	.L30:
 727 0044 AFF30080 		.align	3
 728              	.L29:
 729 0048 F5DA7A8E 		.word	-1904551179
 730 004c 315FE43F 		.word	1071931185
 731              		.cfi_endproc
 732              	.LFE4815:
 734              		.section	.text._Z8calcleftf,"ax",%progbits
 735              		.align	1
 736              		.p2align 2,,3
 737              		.global	_Z8calcleftf
 738              		.syntax unified
 739              		.thumb
 740              		.thumb_func
 742              	_Z8calcleftf:
 743              	.LVL40:
 744              	.LFB4816:
 261:fjol.cpp      **** 
 262:fjol.cpp      **** float calcleft(float theta) //calculate -4.5dB pan law
 263:fjol.cpp      **** {
 745              		.loc 7 263 1 is_stmt 1 view -0
 746              		.cfi_startproc
 747              		@ args = 0, pretend = 0, frame = 0
 748              		@ frame_needed = 0, uses_anonymous_args = 0
 264:fjol.cpp      ****   float left = sqrt((PI / 2 - (theta)) * (2 / PI) * cos(theta));
 749              		.loc 7 264 3 view .LVU160
 263:fjol.cpp      ****   float left = sqrt((PI / 2 - (theta)) * (2 / PI) * cos(theta));
 750              		.loc 7 263 1 is_stmt 0 view .LVU161
 751 0000 08B5     		push	{r3, lr}
 752              		.cfi_def_cfa_offset 8
 753              		.cfi_offset 3, -8
 754              		.cfi_offset 14, -4
 755 0002 2DED028B 		vpush.64	{d8}
 756              		.cfi_def_cfa_offset 16
ARM GAS  /tmp/cca3rxWD.s 			page 37


 757              		.cfi_offset 80, -16
 758              		.cfi_offset 81, -12
 263:fjol.cpp      ****   float left = sqrt((PI / 2 - (theta)) * (2 / PI) * cos(theta));
 759              		.loc 7 263 1 view .LVU162
 760 0006 B0EE408A 		vmov.f32	s16, s0
 761              	.LVL41:
 762              	.LBB575:
 763              	.LBI575:
 184:/home/hallmar/Developer/gcc-arm-none-eabi-10.3-2021.10/arm-none-eabi/include/c++/10.3.1/cmath ****   { return __builtin_cosf(__x); }
 764              		.loc 11 184 3 is_stmt 1 view .LVU163
 765              	.LBB576:
 185:/home/hallmar/Developer/gcc-arm-none-eabi-10.3-2021.10/arm-none-eabi/include/c++/10.3.1/cmath **** 
 766              		.loc 11 185 5 view .LVU164
 185:/home/hallmar/Developer/gcc-arm-none-eabi-10.3-2021.10/arm-none-eabi/include/c++/10.3.1/cmath **** 
 767              		.loc 11 185 26 is_stmt 0 view .LVU165
 768 000a FFF7FEFF 		bl	cosf
 769              	.LVL42:
 185:/home/hallmar/Developer/gcc-arm-none-eabi-10.3-2021.10/arm-none-eabi/include/c++/10.3.1/cmath **** 
 770              		.loc 11 185 26 view .LVU166
 771              	.LBE576:
 772              	.LBE575:
 773              		.loc 7 264 56 view .LVU167
 774 000e B7EEC00A 		vcvt.f64.f32	d0, s0
 775              		.loc 7 264 29 view .LVU168
 776 0012 9FED0F6B 		vldr.64	d6, .L38
 777              		.loc 7 264 32 view .LVU169
 778 0016 B7EEC87A 		vcvt.f64.f32	d7, s16
 779              		.loc 7 264 40 view .LVU170
 780 001a 9FED0F5B 		vldr.64	d5, .L38+8
 781              		.loc 7 264 29 view .LVU171
 782 001e 36EE477B 		vsub.f64	d7, d6, d7
 783              		.loc 7 264 40 view .LVU172
 784 0022 27EE057B 		vmul.f64	d7, d7, d5
 785              		.loc 7 264 20 view .LVU173
 786 0026 27EE007B 		vmul.f64	d7, d7, d0
 787 002a B5EE407B 		vcmp.f64	d7, #0
 788 002e F1EE10FA 		vmrs	APSR_nzcv, FPSCR
 789 0032 06D4     		bmi	.L36
 790 0034 B1EEC70B 		vsqrt.f64	d0, d7
 791              	.L34:
 792              	.LVL43:
 265:fjol.cpp      ****   //Serial.println(String("Left:") + left);
 266:fjol.cpp      ****   return left;
 793              		.loc 7 266 3 is_stmt 1 view .LVU174
 267:fjol.cpp      **** }
 794              		.loc 7 267 1 is_stmt 0 view .LVU175
 795 0038 B7EEC00B 		vcvt.f32.f64	s0, d0
 796              	.LVL44:
 797              		.loc 7 267 1 view .LVU176
 798 003c BDEC028B 		vldm	sp!, {d8}
 799              		.cfi_remember_state
 800              		.cfi_restore 80
 801              		.cfi_restore 81
 802              		.cfi_def_cfa_offset 8
 803              	.LVL45:
 804              		.loc 7 267 1 view .LVU177
 805 0040 08BD     		pop	{r3, pc}
ARM GAS  /tmp/cca3rxWD.s 			page 38


 806              	.LVL46:
 807              	.L36:
 808              		.cfi_restore_state
 264:fjol.cpp      ****   //Serial.println(String("Left:") + left);
 809              		.loc 7 264 20 view .LVU178
 810 0042 B0EE470B 		vmov.f64	d0, d7
 811 0046 FFF7FEFF 		bl	sqrt
 812              	.LVL47:
 813 004a F5E7     		b	.L34
 814              	.L39:
 815 004c AFF30080 		.align	3
 816              	.L38:
 817 0050 6E861BF0 		.word	-266631570
 818 0054 F921F93F 		.word	1073291769
 819 0058 F5DA7A8E 		.word	-1904551179
 820 005c 315FE43F 		.word	1071931185
 821              		.cfi_endproc
 822              	.LFE4816:
 824              		.section	.text._Z12updatespreadv,"ax",%progbits
 825              		.align	1
 826              		.p2align 2,,3
 827              		.global	_Z12updatespreadv
 828              		.syntax unified
 829              		.thumb
 830              		.thumb_func
 832              	_Z12updatespreadv:
 833              	.LFB4817:
 268:fjol.cpp      **** 
 269:fjol.cpp      **** void updatespread()
 270:fjol.cpp      **** {
 834              		.loc 7 270 1 is_stmt 1 view -0
 835              		.cfi_startproc
 836              		@ args = 0, pretend = 0, frame = 0
 837              		@ frame_needed = 0, uses_anonymous_args = 0
 271:fjol.cpp      ****    //spread algorithm starts
 272:fjol.cpp      ****   float righttemp = calcright( ((param[0]/2)+0.5)*PI/2 );
 838              		.loc 7 272 3 view .LVU180
 270:fjol.cpp      ****    //spread algorithm starts
 839              		.loc 7 270 1 is_stmt 0 view .LVU181
 840 0000 38B5     		push	{r3, r4, r5, lr}
 841              		.cfi_def_cfa_offset 16
 842              		.cfi_offset 3, -16
 843              		.cfi_offset 4, -12
 844              		.cfi_offset 5, -8
 845              		.cfi_offset 14, -4
 846              		.loc 7 272 41 view .LVU182
 847 0002 754D     		ldr	r5, .L62+24
 270:fjol.cpp      ****    //spread algorithm starts
 848              		.loc 7 270 1 view .LVU183
 849 0004 2DED0C8B 		vpush.64	{d8, d9, d10, d11, d12, d13}
 850              		.cfi_def_cfa_offset 64
 851              		.cfi_offset 80, -64
 852              		.cfi_offset 81, -60
 853              		.cfi_offset 82, -56
 854              		.cfi_offset 83, -52
 855              		.cfi_offset 84, -48
 856              		.cfi_offset 85, -44
ARM GAS  /tmp/cca3rxWD.s 			page 39


 857              		.cfi_offset 86, -40
 858              		.cfi_offset 87, -36
 859              		.cfi_offset 88, -32
 860              		.cfi_offset 89, -28
 861              		.cfi_offset 90, -24
 862              		.cfi_offset 91, -20
 863              		.loc 7 272 42 view .LVU184
 864 0008 F6EE009A 		vmov.f32	s19, #5.0e-1
 865              		.loc 7 272 41 view .LVU185
 866 000c 95ED00CA 		vldr.32	s24, [r5]
 867              		.loc 7 272 45 view .LVU186
 868 0010 B6EE00BB 		vmov.f64	d11, #5.0e-1
 869              		.loc 7 272 42 view .LVU187
 870 0014 2CEE290A 		vmul.f32	s0, s24, s19
 871              		.loc 7 272 50 view .LVU188
 872 0018 9FED698B 		vldr.64	d8, .L62
 873              		.loc 7 272 42 view .LVU189
 874 001c B7EEC00A 		vcvt.f64.f32	d0, s0
 875              		.loc 7 272 45 view .LVU190
 876 0020 30EE0B0B 		vadd.f64	d0, d0, d11
 877              		.loc 7 272 50 view .LVU191
 878 0024 20EE080B 		vmul.f64	d0, d0, d8
 879              		.loc 7 272 53 view .LVU192
 880 0028 20EE0B0B 		vmul.f64	d0, d0, d11
 881              		.loc 7 272 30 view .LVU193
 882 002c B7EEC09B 		vcvt.f32.f64	s18, d0
 883              	.LVL48:
 884              	.LBB593:
 885              	.LBI593:
 254:fjol.cpp      **** {
 886              		.loc 7 254 7 is_stmt 1 view .LVU194
 887              	.LBB594:
 257:fjol.cpp      ****   //Serial.println(String("Right:") + right);
 888              		.loc 7 257 3 view .LVU195
 889              	.LBB595:
 890              	.LBB596:
 891              		.loc 11 426 26 is_stmt 0 view .LVU196
 892 0030 B0EE490A 		vmov.f32	s0, s18
 893 0034 FFF7FEFF 		bl	sinf
 894              	.LVL49:
 895              	.LBE596:
 896              	.LBE595:
 257:fjol.cpp      ****   //Serial.println(String("Right:") + right);
 897              		.loc 7 257 23 view .LVU197
 898 0038 B7EEC9AA 		vcvt.f64.f32	d10, s18
 899              	.LVL50:
 900              	.LBB598:
 901              	.LBI595:
 425:/home/hallmar/Developer/gcc-arm-none-eabi-10.3-2021.10/arm-none-eabi/include/c++/10.3.1/cmath ****   { return __builtin_sinf(__x); }
 902              		.loc 11 425 3 is_stmt 1 view .LVU198
 903              	.LBB597:
 904              		.loc 11 426 5 view .LVU199
 905              		.loc 11 426 5 is_stmt 0 view .LVU200
 906              	.LBE597:
 907              	.LBE598:
 257:fjol.cpp      ****   //Serial.println(String("Right:") + right);
 908              		.loc 7 257 46 view .LVU201
ARM GAS  /tmp/cca3rxWD.s 			page 40


 909 003c B7EEC00A 		vcvt.f64.f32	d0, s0
 257:fjol.cpp      ****   //Serial.println(String("Right:") + right);
 910              		.loc 7 257 30 view .LVU202
 911 0040 9FED617B 		vldr.64	d7, .L62+8
 912 0044 2AEE077B 		vmul.f64	d7, d10, d7
 257:fjol.cpp      ****   //Serial.println(String("Right:") + right);
 913              		.loc 7 257 21 view .LVU203
 914 0048 27EE000B 		vmul.f64	d0, d7, d0
 915 004c B5EE400B 		vcmp.f64	d0, #0
 916 0050 F1EE10FA 		vmrs	APSR_nzcv, FPSCR
 917 0054 79D4     		bmi	.L57
 918 0056 B1EEC07B 		vsqrt.f64	d7, d0
 919              	.LVL51:
 920              	.L43:
 257:fjol.cpp      ****   //Serial.println(String("Right:") + right);
 921              		.loc 7 257 21 view .LVU204
 922              	.LBE594:
 923              	.LBE593:
 924              	.LBB602:
 925              	.LBB603:
 926              	.LBB604:
 927              	.LBB605:
 185:/home/hallmar/Developer/gcc-arm-none-eabi-10.3-2021.10/arm-none-eabi/include/c++/10.3.1/cmath **** 
 928              		.loc 11 185 26 view .LVU205
 929 005a B0EE490A 		vmov.f32	s0, s18
 930              	.LBE605:
 931              	.LBE604:
 932              	.LBE603:
 933              	.LBE602:
 934              	.LBB613:
 935              	.LBB599:
 257:fjol.cpp      ****   //Serial.println(String("Right:") + right);
 936              		.loc 7 257 53 view .LVU206
 937 005e F7EEC7CB 		vcvt.f32.f64	s25, d7
 938              	.LVL52:
 259:fjol.cpp      **** }
 939              		.loc 7 259 3 is_stmt 1 view .LVU207
 259:fjol.cpp      **** }
 940              		.loc 7 259 3 is_stmt 0 view .LVU208
 941              	.LBE599:
 942              	.LBE613:
 273:fjol.cpp      ****   float lefttemp = calcleft( ((param[0]/2)+0.5)*PI/2 );
 943              		.loc 7 273 3 is_stmt 1 view .LVU209
 944              	.LBB614:
 945              	.LBI602:
 262:fjol.cpp      **** {
 946              		.loc 7 262 7 view .LVU210
 947              	.LBB608:
 264:fjol.cpp      ****   //Serial.println(String("Left:") + left);
 948              		.loc 7 264 3 view .LVU211
 949              	.LBB607:
 950              	.LBI604:
 184:/home/hallmar/Developer/gcc-arm-none-eabi-10.3-2021.10/arm-none-eabi/include/c++/10.3.1/cmath ****   { return __builtin_cosf(__x); }
 951              		.loc 11 184 3 view .LVU212
 952              	.LBB606:
 185:/home/hallmar/Developer/gcc-arm-none-eabi-10.3-2021.10/arm-none-eabi/include/c++/10.3.1/cmath **** 
 953              		.loc 11 185 5 view .LVU213
ARM GAS  /tmp/cca3rxWD.s 			page 41


 185:/home/hallmar/Developer/gcc-arm-none-eabi-10.3-2021.10/arm-none-eabi/include/c++/10.3.1/cmath **** 
 954              		.loc 11 185 26 is_stmt 0 view .LVU214
 955 0062 FFF7FEFF 		bl	cosf
 956              	.LVL53:
 185:/home/hallmar/Developer/gcc-arm-none-eabi-10.3-2021.10/arm-none-eabi/include/c++/10.3.1/cmath **** 
 957              		.loc 11 185 26 view .LVU215
 958              	.LBE606:
 959              	.LBE607:
 264:fjol.cpp      ****   //Serial.println(String("Left:") + left);
 960              		.loc 7 264 56 view .LVU216
 961 0066 B7EEC00A 		vcvt.f64.f32	d0, s0
 264:fjol.cpp      ****   //Serial.println(String("Left:") + left);
 962              		.loc 7 264 29 view .LVU217
 963 006a 9FED597B 		vldr.64	d7, .L62+16
 264:fjol.cpp      ****   //Serial.println(String("Left:") + left);
 964              		.loc 7 264 40 view .LVU218
 965 006e 9FED566B 		vldr.64	d6, .L62+8
 264:fjol.cpp      ****   //Serial.println(String("Left:") + left);
 966              		.loc 7 264 29 view .LVU219
 967 0072 37EE4A7B 		vsub.f64	d7, d7, d10
 264:fjol.cpp      ****   //Serial.println(String("Left:") + left);
 968              		.loc 7 264 40 view .LVU220
 969 0076 27EE067B 		vmul.f64	d7, d7, d6
 264:fjol.cpp      ****   //Serial.println(String("Left:") + left);
 970              		.loc 7 264 20 view .LVU221
 971 007a 27EE000B 		vmul.f64	d0, d7, d0
 972 007e B5EE400B 		vcmp.f64	d0, #0
 973 0082 F1EE10FA 		vmrs	APSR_nzcv, FPSCR
 974 0086 00F19180 		bmi	.L58
 975 008a B1EEC06B 		vsqrt.f64	d6, d0
 976              	.L46:
 977              	.LBE608:
 978              	.LBE614:
 274:fjol.cpp      ****   voice[0].panL = lefttemp;
 275:fjol.cpp      ****   voice[0].panR = righttemp;
 276:fjol.cpp      ****   voice[3].panL = lefttemp;
 277:fjol.cpp      ****   voice[3].panR = righttemp;
 278:fjol.cpp      **** 
 279:fjol.cpp      ****   righttemp = calcright( (( (1-param[0])/400 ) +0.25)*PI/2 );
 979              		.loc 7 279 41 view .LVU222
 980 008e DFED53BA 		vldr.32	s23, .L62+28
 274:fjol.cpp      ****   voice[0].panL = lefttemp;
 981              		.loc 7 274 17 view .LVU223
 982 0092 534C     		ldr	r4, .L62+32
 983              		.loc 7 279 31 view .LVU224
 984 0094 B7EE00BA 		vmov.f32	s22, #1.0e+0
 275:fjol.cpp      ****   voice[3].panL = lefttemp;
 985              		.loc 7 275 17 view .LVU225
 986 0098 C4ED25CA 		vstr.32	s25, [r4, #148]
 987              		.loc 7 279 48 view .LVU226
 988 009c B5EE00AB 		vmov.f64	d10, #2.5e-1
 277:fjol.cpp      **** 
 989              		.loc 7 277 17 view .LVU227
 990 00a0 C4EDAFCA 		vstr.32	s25, [r4, #700]
 991              		.loc 7 279 57 view .LVU228
 992 00a4 B6EE008B 		vmov.f64	d8, #5.0e-1
 993              		.loc 7 279 31 view .LVU229
ARM GAS  /tmp/cca3rxWD.s 			page 42


 994 00a8 3BEE4CCA 		vsub.f32	s24, s22, s24
 995              	.LBB615:
 996              	.LBB609:
 264:fjol.cpp      ****   //Serial.println(String("Left:") + left);
 997              		.loc 7 264 63 view .LVU230
 998 00ac B7EEC66B 		vcvt.f32.f64	s12, d6
 999              	.LVL54:
 266:fjol.cpp      **** }
 1000              		.loc 7 266 3 is_stmt 1 view .LVU231
 266:fjol.cpp      **** }
 1001              		.loc 7 266 3 is_stmt 0 view .LVU232
 1002              	.LBE609:
 1003              	.LBE615:
 274:fjol.cpp      ****   voice[0].panR = righttemp;
 1004              		.loc 7 274 3 is_stmt 1 view .LVU233
 1005              		.loc 7 279 41 is_stmt 0 view .LVU234
 1006 00b0 8CEE2B0A 		vdiv.f32	s0, s24, s23
 274:fjol.cpp      ****   voice[0].panR = righttemp;
 1007              		.loc 7 274 17 view .LVU235
 1008 00b4 84ED246A 		vstr.32	s12, [r4, #144]
 275:fjol.cpp      ****   voice[3].panL = lefttemp;
 1009              		.loc 7 275 3 is_stmt 1 view .LVU236
 276:fjol.cpp      ****   voice[3].panR = righttemp;
 1010              		.loc 7 276 3 view .LVU237
 276:fjol.cpp      ****   voice[3].panR = righttemp;
 1011              		.loc 7 276 17 is_stmt 0 view .LVU238
 1012 00b8 84EDAE6A 		vstr.32	s12, [r4, #696]
 277:fjol.cpp      **** 
 1013              		.loc 7 277 3 is_stmt 1 view .LVU239
 1014              		.loc 7 279 3 view .LVU240
 1015              		.loc 7 279 54 is_stmt 0 view .LVU241
 1016 00bc 9FED409B 		vldr.64	d9, .L62
 1017              		.loc 7 279 41 view .LVU242
 1018 00c0 B7EEC00A 		vcvt.f64.f32	d0, s0
 1019              		.loc 7 279 48 view .LVU243
 1020 00c4 30EE0A0B 		vadd.f64	d0, d0, d10
 1021              		.loc 7 279 54 view .LVU244
 1022 00c8 20EE090B 		vmul.f64	d0, d0, d9
 1023              		.loc 7 279 57 view .LVU245
 1024 00cc 20EE080B 		vmul.f64	d0, d0, d8
 1025              		.loc 7 279 24 view .LVU246
 1026 00d0 B7EEC0DB 		vcvt.f32.f64	s26, d0
 1027              	.LVL55:
 1028              	.LBB616:
 1029              	.LBI616:
 254:fjol.cpp      **** {
 1030              		.loc 7 254 7 is_stmt 1 view .LVU247
 1031              	.LBB617:
 257:fjol.cpp      ****   //Serial.println(String("Right:") + right);
 1032              		.loc 7 257 3 view .LVU248
 1033              	.LBB618:
 1034              	.LBB619:
 1035              		.loc 11 426 26 is_stmt 0 view .LVU249
 1036 00d4 B0EE4D0A 		vmov.f32	s0, s26
 1037 00d8 FFF7FEFF 		bl	sinf
 1038              	.LVL56:
 1039              		.loc 11 426 26 view .LVU250
ARM GAS  /tmp/cca3rxWD.s 			page 43


 1040              	.LBE619:
 1041              	.LBE618:
 257:fjol.cpp      ****   //Serial.println(String("Right:") + right);
 1042              		.loc 7 257 23 view .LVU251
 1043 00dc B7EECDCA 		vcvt.f64.f32	d12, s26
 1044              	.LVL57:
 1045              	.LBB621:
 1046              	.LBI618:
 425:/home/hallmar/Developer/gcc-arm-none-eabi-10.3-2021.10/arm-none-eabi/include/c++/10.3.1/cmath ****   { return __builtin_sinf(__x); }
 1047              		.loc 11 425 3 is_stmt 1 view .LVU252
 1048              	.LBB620:
 1049              		.loc 11 426 5 view .LVU253
 1050              		.loc 11 426 5 is_stmt 0 view .LVU254
 1051              	.LBE620:
 1052              	.LBE621:
 257:fjol.cpp      ****   //Serial.println(String("Right:") + right);
 1053              		.loc 7 257 46 view .LVU255
 1054 00e0 B7EEC00A 		vcvt.f64.f32	d0, s0
 257:fjol.cpp      ****   //Serial.println(String("Right:") + right);
 1055              		.loc 7 257 30 view .LVU256
 1056 00e4 9FED387B 		vldr.64	d7, .L62+8
 1057 00e8 2CEE077B 		vmul.f64	d7, d12, d7
 257:fjol.cpp      ****   //Serial.println(String("Right:") + right);
 1058              		.loc 7 257 21 view .LVU257
 1059 00ec 27EE000B 		vmul.f64	d0, d7, d0
 1060 00f0 B5EE400B 		vcmp.f64	d0, #0
 1061 00f4 F1EE10FA 		vmrs	APSR_nzcv, FPSCR
 1062 00f8 41D4     		bmi	.L59
 1063 00fa B1EEC06B 		vsqrt.f64	d6, d0
 1064              	.LVL58:
 1065              	.L49:
 257:fjol.cpp      ****   //Serial.println(String("Right:") + right);
 1066              		.loc 7 257 21 view .LVU258
 1067              	.LBE617:
 1068              	.LBE616:
 1069              	.LBB625:
 1070              	.LBB626:
 1071              	.LBB627:
 1072              	.LBB628:
 185:/home/hallmar/Developer/gcc-arm-none-eabi-10.3-2021.10/arm-none-eabi/include/c++/10.3.1/cmath **** 
 1073              		.loc 11 185 26 view .LVU259
 1074 00fe B0EE4D0A 		vmov.f32	s0, s26
 1075              	.LBE628:
 1076              	.LBE627:
 1077              	.LBE626:
 1078              	.LBE625:
 1079              	.LBB635:
 1080              	.LBB622:
 257:fjol.cpp      ****   //Serial.println(String("Right:") + right);
 1081              		.loc 7 257 53 view .LVU260
 1082 0102 B7EEC68B 		vcvt.f32.f64	s16, d6
 1083              	.LVL59:
 259:fjol.cpp      **** }
 1084              		.loc 7 259 3 is_stmt 1 view .LVU261
 259:fjol.cpp      **** }
 1085              		.loc 7 259 3 is_stmt 0 view .LVU262
 1086              	.LBE622:
ARM GAS  /tmp/cca3rxWD.s 			page 44


 1087              	.LBE635:
 280:fjol.cpp      ****   lefttemp = calcleft( (( (1-param[0])/400 )+0.25)*PI/2 );
 1088              		.loc 7 280 3 is_stmt 1 view .LVU263
 1089              	.LBB636:
 1090              	.LBI625:
 262:fjol.cpp      **** {
 1091              		.loc 7 262 7 view .LVU264
 1092              	.LBB631:
 264:fjol.cpp      ****   //Serial.println(String("Left:") + left);
 1093              		.loc 7 264 3 view .LVU265
 1094              	.LBB630:
 1095              	.LBI627:
 184:/home/hallmar/Developer/gcc-arm-none-eabi-10.3-2021.10/arm-none-eabi/include/c++/10.3.1/cmath ****   { return __builtin_cosf(__x); }
 1096              		.loc 11 184 3 view .LVU266
 1097              	.LBB629:
 185:/home/hallmar/Developer/gcc-arm-none-eabi-10.3-2021.10/arm-none-eabi/include/c++/10.3.1/cmath **** 
 1098              		.loc 11 185 5 view .LVU267
 185:/home/hallmar/Developer/gcc-arm-none-eabi-10.3-2021.10/arm-none-eabi/include/c++/10.3.1/cmath **** 
 1099              		.loc 11 185 26 is_stmt 0 view .LVU268
 1100 0106 FFF7FEFF 		bl	cosf
 1101              	.LVL60:
 185:/home/hallmar/Developer/gcc-arm-none-eabi-10.3-2021.10/arm-none-eabi/include/c++/10.3.1/cmath **** 
 1102              		.loc 11 185 26 view .LVU269
 1103              	.LBE629:
 1104              	.LBE630:
 264:fjol.cpp      ****   //Serial.println(String("Left:") + left);
 1105              		.loc 7 264 56 view .LVU270
 1106 010a B7EEC00A 		vcvt.f64.f32	d0, s0
 264:fjol.cpp      ****   //Serial.println(String("Left:") + left);
 1107              		.loc 7 264 29 view .LVU271
 1108 010e 9FED307B 		vldr.64	d7, .L62+16
 264:fjol.cpp      ****   //Serial.println(String("Left:") + left);
 1109              		.loc 7 264 40 view .LVU272
 1110 0112 9FED2D6B 		vldr.64	d6, .L62+8
 264:fjol.cpp      ****   //Serial.println(String("Left:") + left);
 1111              		.loc 7 264 29 view .LVU273
 1112 0116 37EE4CCB 		vsub.f64	d12, d7, d12
 264:fjol.cpp      ****   //Serial.println(String("Left:") + left);
 1113              		.loc 7 264 40 view .LVU274
 1114 011a 2CEE06CB 		vmul.f64	d12, d12, d6
 264:fjol.cpp      ****   //Serial.println(String("Left:") + left);
 1115              		.loc 7 264 20 view .LVU275
 1116 011e 2CEE000B 		vmul.f64	d0, d12, d0
 1117 0122 B5EE400B 		vcmp.f64	d0, #0
 1118 0126 F1EE10FA 		vmrs	APSR_nzcv, FPSCR
 1119 012a 23D4     		bmi	.L60
 1120 012c B1EEC07B 		vsqrt.f64	d7, d0
 1121              	.L52:
 1122              	.LBE631:
 1123              	.LBE636:
 281:fjol.cpp      ****   voice[1].panL = lefttemp;
 282:fjol.cpp      ****   voice[1].panR = righttemp;
 1124              		.loc 7 282 17 view .LVU276
 1125 0130 84ED538A 		vstr.32	s16, [r4, #332]
 283:fjol.cpp      ****   voice[2].panL = lefttemp;
 284:fjol.cpp      ****   voice[2].panR = righttemp;
 1126              		.loc 7 284 17 view .LVU277
ARM GAS  /tmp/cca3rxWD.s 			page 45


 1127 0134 84ED818A 		vstr.32	s16, [r4, #516]
 1128              	.LBB637:
 1129              	.LBB632:
 264:fjol.cpp      ****   //Serial.println(String("Left:") + left);
 1130              		.loc 7 264 63 view .LVU278
 1131 0138 B7EEC77B 		vcvt.f32.f64	s14, d7
 1132              	.LVL61:
 266:fjol.cpp      **** }
 1133              		.loc 7 266 3 is_stmt 1 view .LVU279
 266:fjol.cpp      **** }
 1134              		.loc 7 266 3 is_stmt 0 view .LVU280
 1135              	.LBE632:
 1136              	.LBE637:
 281:fjol.cpp      ****   voice[1].panR = righttemp;
 1137              		.loc 7 281 3 is_stmt 1 view .LVU281
 285:fjol.cpp      **** }
 1138              		.loc 7 285 1 is_stmt 0 view .LVU282
 1139 013c BDEC0C8B 		vldm	sp!, {d8-d13}
 1140              		.cfi_remember_state
 1141              		.cfi_restore 90
 1142              		.cfi_restore 91
 1143              		.cfi_restore 88
 1144              		.cfi_restore 89
 1145              		.cfi_restore 86
 1146              		.cfi_restore 87
 1147              		.cfi_restore 84
 1148              		.cfi_restore 85
 1149              		.cfi_restore 82
 1150              		.cfi_restore 83
 1151              		.cfi_restore 80
 1152              		.cfi_restore 81
 1153              		.cfi_def_cfa_offset 16
 1154              	.LVL62:
 281:fjol.cpp      ****   voice[1].panR = righttemp;
 1155              		.loc 7 281 17 view .LVU283
 1156 0140 84ED527A 		vstr.32	s14, [r4, #328]
 282:fjol.cpp      ****   voice[2].panL = lefttemp;
 1157              		.loc 7 282 3 is_stmt 1 view .LVU284
 283:fjol.cpp      ****   voice[2].panR = righttemp;
 1158              		.loc 7 283 3 view .LVU285
 283:fjol.cpp      ****   voice[2].panR = righttemp;
 1159              		.loc 7 283 17 is_stmt 0 view .LVU286
 1160 0144 84ED807A 		vstr.32	s14, [r4, #512]
 284:fjol.cpp      **** }
 1161              		.loc 7 284 3 is_stmt 1 view .LVU287
 1162              		.loc 7 285 1 is_stmt 0 view .LVU288
 1163 0148 38BD     		pop	{r3, r4, r5, pc}
 1164              	.LVL63:
 1165              	.L57:
 1166              		.cfi_restore_state
 1167              	.LBB638:
 1168              	.LBB600:
 257:fjol.cpp      ****   //Serial.println(String("Right:") + right);
 1169              		.loc 7 257 21 view .LVU289
 1170 014a FFF7FEFF 		bl	sqrt
 1171              	.LVL64:
 1172              	.LBE600:
ARM GAS  /tmp/cca3rxWD.s 			page 46


 1173              	.LBE638:
 273:fjol.cpp      ****   voice[0].panL = lefttemp;
 1174              		.loc 7 273 39 view .LVU290
 1175 014e 95ED00CA 		vldr.32	s24, [r5]
 1176              	.LBB639:
 1177              	.LBB601:
 257:fjol.cpp      ****   //Serial.println(String("Right:") + right);
 1178              		.loc 7 257 21 view .LVU291
 1179 0152 B0EE407B 		vmov.f64	d7, d0
 1180              	.LBE601:
 1181              	.LBE639:
 273:fjol.cpp      ****   voice[0].panL = lefttemp;
 1182              		.loc 7 273 40 view .LVU292
 1183 0156 2CEE290A 		vmul.f32	s0, s24, s19
 1184 015a B7EEC00A 		vcvt.f64.f32	d0, s0
 273:fjol.cpp      ****   voice[0].panL = lefttemp;
 1185              		.loc 7 273 43 view .LVU293
 1186 015e 30EE0B0B 		vadd.f64	d0, d0, d11
 273:fjol.cpp      ****   voice[0].panL = lefttemp;
 1187              		.loc 7 273 48 view .LVU294
 1188 0162 20EE080B 		vmul.f64	d0, d0, d8
 273:fjol.cpp      ****   voice[0].panL = lefttemp;
 1189              		.loc 7 273 51 view .LVU295
 1190 0166 20EE0B0B 		vmul.f64	d0, d0, d11
 273:fjol.cpp      ****   voice[0].panL = lefttemp;
 1191              		.loc 7 273 28 view .LVU296
 1192 016a B7EEC09B 		vcvt.f32.f64	s18, d0
 1193              	.LVL65:
 1194              	.LBB640:
 1195              	.LBB610:
 264:fjol.cpp      ****   //Serial.println(String("Left:") + left);
 1196              		.loc 7 264 32 view .LVU297
 1197 016e B7EEC9AA 		vcvt.f64.f32	d10, s18
 1198 0172 72E7     		b	.L43
 1199              	.LVL66:
 1200              	.L60:
 264:fjol.cpp      ****   //Serial.println(String("Left:") + left);
 1201              		.loc 7 264 32 view .LVU298
 1202              	.LBE610:
 1203              	.LBE640:
 1204              	.LBB641:
 1205              	.LBB633:
 264:fjol.cpp      ****   //Serial.println(String("Left:") + left);
 1206              		.loc 7 264 20 view .LVU299
 1207 0174 FFF7FEFF 		bl	sqrt
 1208              	.LVL67:
 1209 0178 B0EE407B 		vmov.f64	d7, d0
 1210 017c D8E7     		b	.L52
 1211              	.LVL68:
 1212              	.L59:
 264:fjol.cpp      ****   //Serial.println(String("Left:") + left);
 1213              		.loc 7 264 20 view .LVU300
 1214              	.LBE633:
 1215              	.LBE641:
 1216              	.LBB642:
 1217              	.LBB623:
 257:fjol.cpp      ****   //Serial.println(String("Right:") + right);
ARM GAS  /tmp/cca3rxWD.s 			page 47


 1218              		.loc 7 257 21 view .LVU301
 1219 017e FFF7FEFF 		bl	sqrt
 1220              	.LVL69:
 1221              	.LBE623:
 1222              	.LBE642:
 280:fjol.cpp      ****   voice[1].panL = lefttemp;
 1223              		.loc 7 280 29 view .LVU302
 1224 0182 D5ED007A 		vldr.32	s15, [r5]
 1225              	.LBB643:
 1226              	.LBB624:
 257:fjol.cpp      ****   //Serial.println(String("Right:") + right);
 1227              		.loc 7 257 21 view .LVU303
 1228 0186 B0EE406B 		vmov.f64	d6, d0
 1229              	.LBE624:
 1230              	.LBE643:
 280:fjol.cpp      ****   voice[1].panL = lefttemp;
 1231              		.loc 7 280 29 view .LVU304
 1232 018a 3BEE67BA 		vsub.f32	s22, s22, s15
 280:fjol.cpp      ****   voice[1].panL = lefttemp;
 1233              		.loc 7 280 39 view .LVU305
 1234 018e 8BEE2B7A 		vdiv.f32	s14, s22, s23
 1235 0192 B7EEC77A 		vcvt.f64.f32	d7, s14
 280:fjol.cpp      ****   voice[1].panL = lefttemp;
 1236              		.loc 7 280 45 view .LVU306
 1237 0196 37EE0AAB 		vadd.f64	d10, d7, d10
 280:fjol.cpp      ****   voice[1].panL = lefttemp;
 1238              		.loc 7 280 51 view .LVU307
 1239 019a 2AEE099B 		vmul.f64	d9, d10, d9
 280:fjol.cpp      ****   voice[1].panL = lefttemp;
 1240              		.loc 7 280 54 view .LVU308
 1241 019e 29EE088B 		vmul.f64	d8, d9, d8
 280:fjol.cpp      ****   voice[1].panL = lefttemp;
 1242              		.loc 7 280 22 view .LVU309
 1243 01a2 B7EEC8DB 		vcvt.f32.f64	s26, d8
 1244              	.LVL70:
 1245              	.LBB644:
 1246              	.LBB634:
 264:fjol.cpp      ****   //Serial.println(String("Left:") + left);
 1247              		.loc 7 264 32 view .LVU310
 1248 01a6 B7EECDCA 		vcvt.f64.f32	d12, s26
 1249 01aa A8E7     		b	.L49
 1250              	.L58:
 264:fjol.cpp      ****   //Serial.println(String("Left:") + left);
 1251              		.loc 7 264 32 view .LVU311
 1252              	.LBE634:
 1253              	.LBE644:
 1254              	.LBB645:
 1255              	.LBB611:
 264:fjol.cpp      ****   //Serial.println(String("Left:") + left);
 1256              		.loc 7 264 20 view .LVU312
 1257 01ac FFF7FEFF 		bl	sqrt
 1258              	.LVL71:
 1259              	.LBE611:
 1260              	.LBE645:
 279:fjol.cpp      ****   lefttemp = calcleft( (( (1-param[0])/400 )+0.25)*PI/2 );
 1261              		.loc 7 279 39 view .LVU313
 1262 01b0 95ED00CA 		vldr.32	s24, [r5]
ARM GAS  /tmp/cca3rxWD.s 			page 48


 1263              	.LBB646:
 1264              	.LBB612:
 264:fjol.cpp      ****   //Serial.println(String("Left:") + left);
 1265              		.loc 7 264 20 view .LVU314
 1266 01b4 B0EE406B 		vmov.f64	d6, d0
 1267 01b8 69E7     		b	.L46
 1268              	.L63:
 1269 01ba 00BFAFF3 		.align	3
 1269      0080
 1270              	.L62:
 1271 01c0 6E861BF0 		.word	-266631570
 1272 01c4 F9210940 		.word	1074340345
 1273 01c8 F5DA7A8E 		.word	-1904551179
 1274 01cc 315FE43F 		.word	1071931185
 1275 01d0 6E861BF0 		.word	-266631570
 1276 01d4 F921F93F 		.word	1073291769
 1277 01d8 00000000 		.word	param
 1278 01dc 0000C843 		.word	1137180672
 1279 01e0 00000000 		.word	.LANCHOR0
 1280              	.LBE612:
 1281              	.LBE646:
 1282              		.cfi_endproc
 1283              	.LFE4817:
 1285              		.section	.text._Z16getorsetsettingsb,"ax",%progbits
 1286              		.align	1
 1287              		.p2align 2,,3
 1288              		.global	_Z16getorsetsettingsb
 1289              		.syntax unified
 1290              		.thumb
 1291              		.thumb_func
 1293              	_Z16getorsetsettingsb:
 1294              	.LVL72:
 1295              	.LFB4818:
 286:fjol.cpp      **** 
 287:fjol.cpp      **** void getorsetsettings(bool getorset)
 288:fjol.cpp      **** {
 1296              		.loc 7 288 1 is_stmt 1 view -0
 1297              		.cfi_startproc
 1298              		@ args = 0, pretend = 0, frame = 40
 1299              		@ frame_needed = 0, uses_anonymous_args = 0
 289:fjol.cpp      ****   uint8_t eeaddress = 0;
 1300              		.loc 7 289 3 view .LVU316
 290:fjol.cpp      **** 
 291:fjol.cpp      ****   data qspidata;
 1301              		.loc 7 291 3 view .LVU317
 288:fjol.cpp      ****   uint8_t eeaddress = 0;
 1302              		.loc 7 288 1 is_stmt 0 view .LVU318
 1303 0000 30B5     		push	{r4, r5, lr}
 1304              		.cfi_def_cfa_offset 12
 1305              		.cfi_offset 4, -12
 1306              		.cfi_offset 5, -8
 1307              		.cfi_offset 14, -4
 1308              		.loc 7 291 8 view .LVU319
 1309 0002 144C     		ldr	r4, .L67
 288:fjol.cpp      ****   uint8_t eeaddress = 0;
 1310              		.loc 7 288 1 view .LVU320
 1311 0004 8BB0     		sub	sp, sp, #44
ARM GAS  /tmp/cca3rxWD.s 			page 49


 1312              		.cfi_def_cfa_offset 56
 1313              	.LBB658:
 292:fjol.cpp      **** 
 293:fjol.cpp      **** 
 294:fjol.cpp      **** 
 295:fjol.cpp      ****   if (getorset == load)
 1314              		.loc 7 295 3 view .LVU321
 1315 0006 8646     		mov	lr, r0
 1316              	.LBE658:
 291:fjol.cpp      **** 
 1317              		.loc 7 291 8 view .LVU322
 1318 0008 EC46     		mov	ip, sp
 1319 000a 0FCC     		ldmia	r4!, {r0, r1, r2, r3}
 1320              	.LVL73:
 291:fjol.cpp      **** 
 1321              		.loc 7 291 8 view .LVU323
 1322 000c ACE80F00 		stmia	ip!, {r0, r1, r2, r3}
 1323 0010 0FCC     		ldmia	r4!, {r0, r1, r2, r3}
 1324 0012 ACE80F00 		stmia	ip!, {r0, r1, r2, r3}
 1325 0016 94E80300 		ldm	r4, {r0, r1}
 1326 001a 8CE80300 		stm	ip, {r0, r1}
 1327              		.loc 7 295 3 is_stmt 1 view .LVU324
 1328              	.LBB661:
 1329 001e BEF1000F 		cmp	lr, #0
 1330 0022 14D1     		bne	.L64
 1331              	.LBE661:
 1332              	.LBB662:
 1333              	.LBB663:
 1334              	.LBB664:
 296:fjol.cpp      ****   {
 297:fjol.cpp      ****    
 298:fjol.cpp      ****     for(int i = 0; i<8; i++)
 299:fjol.cpp      ****     {
 300:fjol.cpp      ****       param[i] = qspidata.d_param[i];
 301:fjol.cpp      ****     }
 302:fjol.cpp      ****     enc[0].ctldest = qspidata.d_states[0];
 1335              		.loc 7 302 20 is_stmt 0 view .LVU325
 1336 0024 0C4B     		ldr	r3, .L67+4
 303:fjol.cpp      ****     enc[0].ctlcvdest = qspidata.d_states[1];
 304:fjol.cpp      ****     enc[1].ctldest = qspidata.d_states[2];
 1337              		.loc 7 304 20 view .LVU326
 1338 0026 40F20442 		movw	r2, #1028
 1339              	.LBE664:
 1340              	.LBE663:
 1341              	.LBE662:
 1342              	.LBB669:
 1343              	.LBB659:
 300:fjol.cpp      ****     }
 1344              		.loc 7 300 16 view .LVU327
 1345 002a 6C46     		mov	r4, sp
 1346 002c 0B4D     		ldr	r5, .L67+8
 1347              	.LBE659:
 1348              	.LBE669:
 1349              	.LBB670:
 1350              	.LBB667:
 1351              	.LBB665:
 1352              		.loc 7 304 20 view .LVU328
ARM GAS  /tmp/cca3rxWD.s 			page 50


 1353 002e A3F85420 		strh	r2, [r3, #84]	@ movhi
 305:fjol.cpp      ****     enc[1].ctlcvdest = qspidata.d_states[3];
 306:fjol.cpp      ****     algo_select = qspidata.d_states[4];
 1354              		.loc 7 306 17 view .LVU329
 1355 0032 0B4A     		ldr	r2, .L67+12
 302:fjol.cpp      ****     enc[0].ctlcvdest = qspidata.d_states[1];
 1356              		.loc 7 302 20 view .LVU330
 1357 0034 A3F828E0 		strh	lr, [r3, #40]	@ movhi
 1358              		.loc 7 306 17 view .LVU331
 1359 0038 82F800E0 		strb	lr, [r2]
 307:fjol.cpp      ****     midichannel = qspidata.d_states[5];
 1360              		.loc 7 307 17 view .LVU332
 1361 003c 0122     		movs	r2, #1
 1362 003e 094B     		ldr	r3, .L67+16
 1363 0040 1A70     		strb	r2, [r3]
 1364              	.LBE665:
 1365              	.LBE667:
 1366              	.LBE670:
 1367              	.LBB671:
 1368              	.LBB660:
 300:fjol.cpp      ****     }
 1369              		.loc 7 300 16 view .LVU333
 1370 0042 0FCC     		ldmia	r4!, {r0, r1, r2, r3}
 1371 0044 0FC5     		stmia	r5!, {r0, r1, r2, r3}
 1372 0046 94E80F00 		ldm	r4, {r0, r1, r2, r3}
 1373 004a 85E80F00 		stm	r5, {r0, r1, r2, r3}
 1374              	.LBE660:
 1375              	.LBE671:
 1376              	.LBB672:
 1377              	.LBI662:
 287:fjol.cpp      **** {
 1378              		.loc 7 287 6 is_stmt 1 view .LVU334
 1379              	.LVL74:
 1380              	.LBB668:
 1381              	.LBB666:
 302:fjol.cpp      ****     enc[0].ctlcvdest = qspidata.d_states[1];
 1382              		.loc 7 302 5 view .LVU335
 303:fjol.cpp      ****     enc[1].ctldest = qspidata.d_states[2];
 1383              		.loc 7 303 5 view .LVU336
 304:fjol.cpp      ****     enc[1].ctlcvdest = qspidata.d_states[3];
 1384              		.loc 7 304 5 view .LVU337
 305:fjol.cpp      ****     algo_select = qspidata.d_states[4];
 1385              		.loc 7 305 5 view .LVU338
 306:fjol.cpp      ****     midichannel = qspidata.d_states[5];
 1386              		.loc 7 306 5 view .LVU339
 1387              		.loc 7 307 5 view .LVU340
 308:fjol.cpp      ****     return;
 1388              		.loc 7 308 5 view .LVU341
 1389              	.L64:
 1390              		.loc 7 308 5 is_stmt 0 view .LVU342
 1391              	.LBE666:
 1392              	.LBE668:
 1393              	.LBE672:
 309:fjol.cpp      ****   }
 310:fjol.cpp      ****   else if (getorset == save)
 311:fjol.cpp      ****   {
 312:fjol.cpp      ****     // Serial.println(String("saved data to point:")+ eeaddress);
ARM GAS  /tmp/cca3rxWD.s 			page 51


 313:fjol.cpp      ****     // EEPROM.put(0, midichannel);
 314:fjol.cpp      ****     for(int i = 0; i<8; i++)
 315:fjol.cpp      ****     {
 316:fjol.cpp      ****        qspidata.d_param[i] = param[i];
 317:fjol.cpp      ****     }
 318:fjol.cpp      ****     qspidata.d_states[0] = enc[0].ctldest;
 319:fjol.cpp      ****     qspidata.d_states[1] = enc[0].ctlcvdest;
 320:fjol.cpp      ****     qspidata.d_states[2]= enc[1].ctldest;
 321:fjol.cpp      ****     qspidata.d_states[3] = enc[1].ctlcvdest;
 322:fjol.cpp      ****     qspidata.d_states[4] = algo_select;
 323:fjol.cpp      ****     qspidata.d_states[5] = midichannel;
 324:fjol.cpp      ****     //** Erase qspi and then write our new data
 325:fjol.cpp      ****     // for(int i = 0; i<8;i++)
 326:fjol.cpp      ****     // {
 327:fjol.cpp      ****     //   hw.qspi.Erase(eeaddress, eeaddress);
 328:fjol.cpp      ****     //   hw.qspi.Write(eeaddress, sizeof(qspidata.d_param[i]), qspidata.d_param[i]);
 329:fjol.cpp      ****     //   eeaddress += sizeof(qspidata.d_param[i]);
 330:fjol.cpp      ****     //   System::Delay(1);
 331:fjol.cpp      ****     // }
 332:fjol.cpp      ****     // for(int i = 0; i<6;i++)
 333:fjol.cpp      ****     // {
 334:fjol.cpp      ****     //   hw.qspi.Erase(eeaddress, eeaddress);
 335:fjol.cpp      ****     //   hw.qspi.Write(eeaddress, sizeof(qspidata.d_param[i]), qspidata.d_states[i]);
 336:fjol.cpp      ****     //   eeaddress += sizeof(qspidata.d_param[i]);
 337:fjol.cpp      ****     // }
 338:fjol.cpp      ****     
 339:fjol.cpp      ****     return;
 340:fjol.cpp      ****   }
 341:fjol.cpp      **** } //get or set ends
 1394              		.loc 7 341 1 view .LVU343
 1395 004e 0BB0     		add	sp, sp, #44
 1396              		.cfi_def_cfa_offset 12
 1397              		@ sp needed
 1398 0050 30BD     		pop	{r4, r5, pc}
 1399              	.L68:
 1400 0052 00BF     		.align	2
 1401              	.L67:
 1402 0054 00000000 		.word	.LANCHOR3
 1403 0058 00000000 		.word	.LANCHOR4
 1404 005c 00000000 		.word	param
 1405 0060 00000000 		.word	algo_select
 1406 0064 00000000 		.word	midichannel
 1407              		.cfi_endproc
 1408              	.LFE4818:
 1410              		.section	.text._Z8glidevalv,"ax",%progbits
 1411              		.align	1
 1412              		.p2align 2,,3
 1413              		.global	_Z8glidevalv
 1414              		.syntax unified
 1415              		.thumb
 1416              		.thumb_func
 1418              	_Z8glidevalv:
 1419              	.LFB4822:
 342:fjol.cpp      **** 
 343:fjol.cpp      **** void glideval()
 344:fjol.cpp      **** {
 1420              		.loc 7 344 1 is_stmt 1 view -0
ARM GAS  /tmp/cca3rxWD.s 			page 52


 1421              		.cfi_startproc
 1422              		@ args = 0, pretend = 0, frame = 0
 1423              		@ frame_needed = 0, uses_anonymous_args = 0
 1424              		@ link register save eliminated.
 345:fjol.cpp      ****   int voicenumb = 4;
 1425              		.loc 7 345 3 view .LVU345
 1426              	.LVL75:
 346:fjol.cpp      ****   if (glidetime > 0)
 1427              		.loc 7 346 3 view .LVU346
 1428              	.LBB673:
 1429              		.loc 7 346 17 is_stmt 0 view .LVU347
 1430 0000 284B     		ldr	r3, .L91
 1431 0002 D3ED007A 		vldr.32	s15, [r3]
 1432              		.loc 7 346 3 view .LVU348
 1433 0006 F5EEC07A 		vcmpe.f32	s15, #0
 1434 000a F1EE10FA 		vmrs	APSR_nzcv, FPSCR
 1435 000e 36DD     		ble	.L87
 1436              	.LBB674:
 347:fjol.cpp      ****   {
 348:fjol.cpp      **** 
 349:fjol.cpp      ****     for (int i = 0; i < voicenumb; i++)
 350:fjol.cpp      ****     {
 351:fjol.cpp      ****       if (voicefreqtarget[i] > int(voicefreq[i]))
 352:fjol.cpp      ****       {
 353:fjol.cpp      ****         voicefreq[i] = voicefreq[i] + glide;
 354:fjol.cpp      ****         if (int(voicefreq[i]) > voicefreqtarget[i])
 355:fjol.cpp      ****           voicefreq[i] = voicefreqtarget[i];
 356:fjol.cpp      ****       }
 357:fjol.cpp      ****       else if (voicefreqtarget[i] < int(voicefreq[i]))
 358:fjol.cpp      ****       {
 359:fjol.cpp      ****         voicefreq[i] = voicefreq[i] - glide;
 1437              		.loc 7 359 37 view .LVU349
 1438 0010 2549     		ldr	r1, .L91+4
 1439 0012 264B     		ldr	r3, .L91+8
 1440 0014 91ED006A 		vldr.32	s12, [r1]	@ int
 1441 0018 254A     		ldr	r2, .L91+12
 1442 001a 03F11001 		add	r1, r3, #16
 1443              	.L80:
 351:fjol.cpp      ****       {
 1444              		.loc 7 351 7 is_stmt 1 view .LVU350
 353:fjol.cpp      ****         if (int(voicefreq[i]) > voicefreqtarget[i])
 1445              		.loc 7 353 9 view .LVU351
 357:fjol.cpp      ****       {
 1446              		.loc 7 357 12 view .LVU352
 351:fjol.cpp      ****       {
 1447              		.loc 7 351 47 is_stmt 0 view .LVU353
 1448 001e F2EC016A 		vldmia.32	r2!, {s13}
 351:fjol.cpp      ****       {
 1449              		.loc 7 351 28 view .LVU354
 1450 0022 B3EC017A 		vldmia.32	r3!, {s14}
 351:fjol.cpp      ****       {
 1451              		.loc 7 351 32 view .LVU355
 1452 0026 FDEEE67A 		vcvt.s32.f32	s15, s13
 351:fjol.cpp      ****       {
 1453              		.loc 7 351 30 view .LVU356
 1454 002a F8EEE77A 		vcvt.f32.s32	s15, s15
 351:fjol.cpp      ****       {
ARM GAS  /tmp/cca3rxWD.s 			page 53


 1455              		.loc 7 351 7 view .LVU357
 1456 002e B4EEE77A 		vcmpe.f32	s14, s15
 1457 0032 F1EE10FA 		vmrs	APSR_nzcv, FPSCR
 1458 0036 11DD     		ble	.L88
 355:fjol.cpp      ****       }
 1459              		.loc 7 355 11 is_stmt 1 view .LVU358
 353:fjol.cpp      ****         if (int(voicefreq[i]) > voicefreqtarget[i])
 1460              		.loc 7 353 37 is_stmt 0 view .LVU359
 1461 0038 F8EEC67A 		vcvt.f32.s32	s15, s12
 1462 003c 77EEA66A 		vadd.f32	s13, s15, s13
 354:fjol.cpp      ****           voicefreq[i] = voicefreqtarget[i];
 1463              		.loc 7 354 9 is_stmt 1 view .LVU360
 354:fjol.cpp      ****           voicefreq[i] = voicefreqtarget[i];
 1464              		.loc 7 354 13 is_stmt 0 view .LVU361
 1465 0040 FDEEE67A 		vcvt.s32.f32	s15, s13
 354:fjol.cpp      ****           voicefreq[i] = voicefreqtarget[i];
 1466              		.loc 7 354 31 view .LVU362
 1467 0044 F8EEE77A 		vcvt.f32.s32	s15, s15
 354:fjol.cpp      ****           voicefreq[i] = voicefreqtarget[i];
 1468              		.loc 7 354 9 view .LVU363
 1469 0048 B4EEE77A 		vcmpe.f32	s14, s15
 1470 004c F1EE10FA 		vmrs	APSR_nzcv, FPSCR
 1471 0050 12D4     		bmi	.L89
 1472              	.L90:
 1473              		.loc 7 359 22 view .LVU364
 1474 0052 42ED016A 		vstr.32	s13, [r2, #-4]
 1475              	.L75:
 349:fjol.cpp      ****     {
 1476              		.loc 7 349 5 is_stmt 1 discriminator 2 view .LVU365
 349:fjol.cpp      ****     {
 1477              		.loc 7 349 23 discriminator 2 view .LVU366
 1478 0056 8B42     		cmp	r3, r1
 1479 0058 E1D1     		bne	.L80
 1480 005a 7047     		bx	lr
 1481              	.L88:
 1482              		.loc 7 359 9 view .LVU367
 360:fjol.cpp      ****         if (int(voicefreq[i]) < voicefreqtarget[i])
 361:fjol.cpp      ****           voicefreq[i] = voicefreqtarget[i];
 362:fjol.cpp      ****       }
 363:fjol.cpp      ****       else
 364:fjol.cpp      ****       {
 365:fjol.cpp      ****         voicefreq[i] = voicefreqtarget[i];
 1483              		.loc 7 365 9 view .LVU368
 357:fjol.cpp      ****       {
 1484              		.loc 7 357 12 is_stmt 0 view .LVU369
 1485 005c 0CD5     		bpl	.L89
 361:fjol.cpp      ****       }
 1486              		.loc 7 361 11 is_stmt 1 view .LVU370
 359:fjol.cpp      ****         if (int(voicefreq[i]) < voicefreqtarget[i])
 1487              		.loc 7 359 37 is_stmt 0 view .LVU371
 1488 005e F8EEC67A 		vcvt.f32.s32	s15, s12
 1489 0062 76EEE76A 		vsub.f32	s13, s13, s15
 360:fjol.cpp      ****           voicefreq[i] = voicefreqtarget[i];
 1490              		.loc 7 360 9 is_stmt 1 view .LVU372
 360:fjol.cpp      ****           voicefreq[i] = voicefreqtarget[i];
 1491              		.loc 7 360 13 is_stmt 0 view .LVU373
 1492 0066 FDEEE67A 		vcvt.s32.f32	s15, s13
ARM GAS  /tmp/cca3rxWD.s 			page 54


 360:fjol.cpp      ****           voicefreq[i] = voicefreqtarget[i];
 1493              		.loc 7 360 31 view .LVU374
 1494 006a F8EEE77A 		vcvt.f32.s32	s15, s15
 360:fjol.cpp      ****           voicefreq[i] = voicefreqtarget[i];
 1495              		.loc 7 360 9 view .LVU375
 1496 006e B4EEE77A 		vcmpe.f32	s14, s15
 1497 0072 F1EE10FA 		vmrs	APSR_nzcv, FPSCR
 1498 0076 ECDD     		ble	.L90
 1499              	.L89:
 1500              		.loc 7 365 22 view .LVU376
 1501 0078 02ED017A 		vstr.32	s14, [r2, #-4]
 1502 007c EBE7     		b	.L75
 1503              	.L87:
 1504              	.LBE674:
 1505              	.LBE673:
 366:fjol.cpp      ****       }
 367:fjol.cpp      ****     }
 368:fjol.cpp      ****   } //if glidetime > 0 ends
 369:fjol.cpp      ****   else if (glidetime == 0)
 1506              		.loc 7 369 8 is_stmt 1 view .LVU377
 1507              	.LBB677:
 1508              	.LBB675:
 1509 007e F5EE407A 		vcmp.f32	s15, #0
 1510 0082 F1EE10FA 		vmrs	APSR_nzcv, FPSCR
 1511 0086 0BD1     		bne	.L69
 1512              	.LVL76:
 1513              	.LBB676:
 370:fjol.cpp      ****   {
 371:fjol.cpp      ****     for (int i = 0; i < voicenumb; i++)
 1514              		.loc 7 371 23 view .LVU378
 372:fjol.cpp      ****     {
 373:fjol.cpp      ****       voicefreq[i] = voicefreqtarget[i];
 1515              		.loc 7 373 7 view .LVU379
 1516              		.loc 7 373 39 is_stmt 0 view .LVU380
 1517 0088 084A     		ldr	r2, .L91+8
 1518              		.loc 7 373 20 view .LVU381
 1519 008a 094B     		ldr	r3, .L91+12
 1520 008c D2F800C0 		ldr	ip, [r2]	@ float
 1521 0090 5068     		ldr	r0, [r2, #4]	@ float
 1522 0092 9168     		ldr	r1, [r2, #8]	@ float
 1523 0094 D268     		ldr	r2, [r2, #12]	@ float
 1524 0096 C3F800C0 		str	ip, [r3]	@ float
 371:fjol.cpp      ****     {
 1525              		.loc 7 371 5 is_stmt 1 view .LVU382
 1526              	.LVL77:
 371:fjol.cpp      ****     {
 1527              		.loc 7 371 23 view .LVU383
 1528              		.loc 7 373 7 view .LVU384
 1529              		.loc 7 373 20 is_stmt 0 view .LVU385
 1530 009a 5860     		str	r0, [r3, #4]	@ float
 371:fjol.cpp      ****     {
 1531              		.loc 7 371 5 is_stmt 1 view .LVU386
 1532              	.LVL78:
 371:fjol.cpp      ****     {
 1533              		.loc 7 371 23 view .LVU387
 1534              		.loc 7 373 7 view .LVU388
 1535              		.loc 7 373 20 is_stmt 0 view .LVU389
ARM GAS  /tmp/cca3rxWD.s 			page 55


 1536 009c 9960     		str	r1, [r3, #8]	@ float
 371:fjol.cpp      ****     {
 1537              		.loc 7 371 5 is_stmt 1 view .LVU390
 1538              	.LVL79:
 371:fjol.cpp      ****     {
 1539              		.loc 7 371 23 view .LVU391
 1540              		.loc 7 373 7 view .LVU392
 1541              		.loc 7 373 20 is_stmt 0 view .LVU393
 1542 009e DA60     		str	r2, [r3, #12]	@ float
 371:fjol.cpp      ****     {
 1543              		.loc 7 371 5 is_stmt 1 view .LVU394
 1544              	.LVL80:
 371:fjol.cpp      ****     {
 1545              		.loc 7 371 23 view .LVU395
 1546              	.L69:
 371:fjol.cpp      ****     {
 1547              		.loc 7 371 23 is_stmt 0 view .LVU396
 1548              	.LBE676:
 1549              	.LBE675:
 1550              	.LBE677:
 374:fjol.cpp      ****     }
 375:fjol.cpp      ****   }
 376:fjol.cpp      **** } //glideval() ends
 1551              		.loc 7 376 1 view .LVU397
 1552 00a0 7047     		bx	lr
 1553              	.L92:
 1554 00a2 00BF     		.align	2
 1555              	.L91:
 1556 00a4 00000000 		.word	glidetime
 1557 00a8 00000000 		.word	glide
 1558 00ac 00000000 		.word	voicefreqtarget
 1559 00b0 00000000 		.word	voicefreq
 1560              		.cfi_endproc
 1561              	.LFE4822:
 1563              		.section	.text._Z9midipanicv,"ax",%progbits
 1564              		.align	1
 1565              		.p2align 2,,3
 1566              		.global	_Z9midipanicv
 1567              		.syntax unified
 1568              		.thumb
 1569              		.thumb_func
 1571              	_Z9midipanicv:
 1572              	.LFB4823:
 377:fjol.cpp      **** 
 378:fjol.cpp      **** void midipanic()
 379:fjol.cpp      **** {
 1573              		.loc 7 379 1 is_stmt 1 view -0
 1574              		.cfi_startproc
 1575              		@ args = 0, pretend = 0, frame = 0
 1576              		@ frame_needed = 0, uses_anonymous_args = 0
 1577              		@ link register save eliminated.
 380:fjol.cpp      ****   voicetrig[0] = 0;
 1578              		.loc 7 380 3 view .LVU399
 1579              		.loc 7 380 16 is_stmt 0 view .LVU400
 1580 0000 0023     		movs	r3, #0
 1581 0002 044A     		ldr	r2, .L94
 381:fjol.cpp      ****   voicetrig[1] = 0;
ARM GAS  /tmp/cca3rxWD.s 			page 56


 382:fjol.cpp      ****   voicetrig[2] = 0;
 383:fjol.cpp      ****   voicetrig[3] = 0;
 384:fjol.cpp      ****   gate_out = 0;
 1582              		.loc 7 384 12 view .LVU401
 1583 0004 0449     		ldr	r1, .L94+4
 380:fjol.cpp      ****   voicetrig[0] = 0;
 1584              		.loc 7 380 16 view .LVU402
 1585 0006 1370     		strb	r3, [r2]
 381:fjol.cpp      ****   voicetrig[1] = 0;
 1586              		.loc 7 381 3 is_stmt 1 view .LVU403
 381:fjol.cpp      ****   voicetrig[1] = 0;
 1587              		.loc 7 381 16 is_stmt 0 view .LVU404
 1588 0008 5370     		strb	r3, [r2, #1]
 382:fjol.cpp      ****   voicetrig[3] = 0;
 1589              		.loc 7 382 3 is_stmt 1 view .LVU405
 382:fjol.cpp      ****   voicetrig[3] = 0;
 1590              		.loc 7 382 16 is_stmt 0 view .LVU406
 1591 000a 9370     		strb	r3, [r2, #2]
 383:fjol.cpp      ****   gate_out = 0;
 1592              		.loc 7 383 3 is_stmt 1 view .LVU407
 383:fjol.cpp      ****   gate_out = 0;
 1593              		.loc 7 383 16 is_stmt 0 view .LVU408
 1594 000c D370     		strb	r3, [r2, #3]
 1595              		.loc 7 384 3 is_stmt 1 view .LVU409
 1596              		.loc 7 384 12 is_stmt 0 view .LVU410
 1597 000e 0B70     		strb	r3, [r1]
 385:fjol.cpp      **** }
 1598              		.loc 7 385 1 view .LVU411
 1599 0010 7047     		bx	lr
 1600              	.L95:
 1601 0012 00BF     		.align	2
 1602              	.L94:
 1603 0014 00000000 		.word	voicetrig
 1604 0018 00000000 		.word	gate_out
 1605              		.cfi_endproc
 1606              	.LFE4823:
 1608              		.section	.text._Z13update_paramsiff,"ax",%progbits
 1609              		.align	1
 1610              		.p2align 2,,3
 1611              		.global	_Z13update_paramsiff
 1612              		.syntax unified
 1613              		.thumb
 1614              		.thumb_func
 1616              	_Z13update_paramsiff:
 1617              	.LVL81:
 1618              	.LFB4824:
 386:fjol.cpp      **** 
 387:fjol.cpp      **** void update_params(int destination, float value, float mod)
 388:fjol.cpp      **** {
 1619              		.loc 7 388 1 is_stmt 1 view -0
 1620              		.cfi_startproc
 1621              		@ args = 0, pretend = 0, frame = 0
 1622              		@ frame_needed = 0, uses_anonymous_args = 0
 389:fjol.cpp      ****   
 390:fjol.cpp      ****   params_changed[destination] = 1;
 1623              		.loc 7 390 3 view .LVU413
 388:fjol.cpp      ****   
ARM GAS  /tmp/cca3rxWD.s 			page 57


 1624              		.loc 7 388 1 is_stmt 0 view .LVU414
 1625 0000 2DE9F843 		push	{r3, r4, r5, r6, r7, r8, r9, lr}
 1626              		.cfi_def_cfa_offset 32
 1627              		.cfi_offset 3, -32
 1628              		.cfi_offset 4, -28
 1629              		.cfi_offset 5, -24
 1630              		.cfi_offset 6, -20
 1631              		.cfi_offset 7, -16
 1632              		.cfi_offset 8, -12
 1633              		.cfi_offset 9, -8
 1634              		.cfi_offset 14, -4
 1635              		.loc 7 390 31 view .LVU415
 1636 0004 274E     		ldr	r6, .L109
 1637 0006 0123     		movs	r3, #1
 388:fjol.cpp      ****   
 1638              		.loc 7 388 1 view .LVU416
 1639 0008 8146     		mov	r9, r0
 1640 000a DFF8A480 		ldr	r8, .L109+12
 1641 000e 264F     		ldr	r7, .L109+4
 1642              	.LBB678:
 391:fjol.cpp      ****   for(int i = 0; i<8; i++)
 1643              		.loc 7 391 11 view .LVU417
 1644 0010 0024     		movs	r4, #0
 1645 0012 264D     		ldr	r5, .L109+8
 1646              	.LBE678:
 390:fjol.cpp      ****   for(int i = 0; i<8; i++)
 1647              		.loc 7 390 31 view .LVU418
 1648 0014 3354     		strb	r3, [r6, r0]
 1649              		.loc 7 391 3 is_stmt 1 view .LVU419
 1650              	.LVL82:
 1651              	.LBB679:
 1652              		.loc 7 391 19 view .LVU420
 1653              	.LBE679:
 388:fjol.cpp      ****   
 1654              		.loc 7 388 1 is_stmt 0 view .LVU421
 1655 0016 2DED028B 		vpush.64	{d8}
 1656              		.cfi_def_cfa_offset 40
 1657              		.cfi_offset 80, -40
 1658              		.cfi_offset 81, -36
 388:fjol.cpp      ****   
 1659              		.loc 7 388 1 view .LVU422
 1660 001a B0EE408A 		vmov.f32	s16, s0
 1661 001e 08E0     		b	.L104
 1662              	.LVL83:
 1663              	.L98:
 1664              	.LBB680:
 1665              		.loc 7 391 3 is_stmt 1 discriminator 2 view .LVU423
 1666 0020 0134     		adds	r4, r4, #1
 1667              	.LVL84:
 1668              		.loc 7 391 19 discriminator 2 view .LVU424
 1669 0022 08F10408 		add	r8, r8, #4
 1670 0026 0437     		adds	r7, r7, #4
 1671 0028 0435     		adds	r5, r5, #4
 1672 002a 082C     		cmp	r4, #8
 1673 002c 06F10106 		add	r6, r6, #1
 1674 0030 2BD0     		beq	.L108
 1675              	.LVL85:
ARM GAS  /tmp/cca3rxWD.s 			page 58


 1676              	.L104:
 392:fjol.cpp      ****   {
 393:fjol.cpp      ****     if(i == destination)
 1677              		.loc 7 393 5 view .LVU425
 1678 0032 A145     		cmp	r9, r4
 1679 0034 F4D1     		bne	.L98
 394:fjol.cpp      ****     {
 395:fjol.cpp      ****       param[i]+= value;
 1680              		.loc 7 395 7 view .LVU426
 396:fjol.cpp      ****       if(param[i] > 1){param[i] = 1; params_changed[i] = 0; led_update(i);}
 1681              		.loc 7 396 24 view .LVU427
 395:fjol.cpp      ****       if(param[i] > 1){param[i] = 1; params_changed[i] = 0; led_update(i);}
 1682              		.loc 7 395 15 is_stmt 0 view .LVU428
 1683 0036 D5ED007A 		vldr.32	s15, [r5]
 1684              		.loc 7 396 7 view .LVU429
 1685 003a B7EE007A 		vmov.f32	s14, #1.0e+0
 1686              		.loc 7 396 56 view .LVU430
 1687 003e 0023     		movs	r3, #0
 1688              		.loc 7 396 71 view .LVU431
 1689 0040 5FFA89F0 		uxtb	r0, r9
 395:fjol.cpp      ****       if(param[i] > 1){param[i] = 1; params_changed[i] = 0; led_update(i);}
 1690              		.loc 7 395 15 view .LVU432
 1691 0044 78EE277A 		vadd.f32	s15, s16, s15
 1692              		.loc 7 396 7 is_stmt 1 view .LVU433
 1693 0048 F4EEC77A 		vcmpe.f32	s15, s14
 1694 004c F1EE10FA 		vmrs	APSR_nzcv, FPSCR
 1695 0050 1FDC     		bgt	.L99
 395:fjol.cpp      ****       if(param[i] > 1){param[i] = 1; params_changed[i] = 0; led_update(i);}
 1696              		.loc 7 395 15 is_stmt 0 view .LVU434
 1697 0052 C5ED007A 		vstr.32	s15, [r5]
 1698              	.L100:
 397:fjol.cpp      ****       if(param[i] > 0){param[i] = 0; params_changed[i] = 0; led_update(i);}
 1699              		.loc 7 397 7 is_stmt 1 view .LVU435
 1700              		.loc 7 397 24 view .LVU436
 1701              		.loc 7 397 7 is_stmt 0 view .LVU437
 1702 0056 F5EEC07A 		vcmpe.f32	s15, #0
 1703 005a 0023     		movs	r3, #0
 1704              		.loc 7 397 56 view .LVU438
 1705 005c 0022     		movs	r2, #0
 1706              		.loc 7 397 71 view .LVU439
 1707 005e E0B2     		uxtb	r0, r4
 1708              		.loc 7 397 7 view .LVU440
 1709 0060 F1EE10FA 		vmrs	APSR_nzcv, FPSCR
 1710 0064 05DD     		ble	.L101
 1711              		.loc 7 397 56 discriminator 1 view .LVU441
 1712 0066 3270     		strb	r2, [r6]
 1713              		.loc 7 397 33 discriminator 1 view .LVU442
 1714 0068 2B60     		str	r3, [r5]	@ float
 1715              		.loc 7 397 38 is_stmt 1 discriminator 1 view .LVU443
 1716              		.loc 7 397 61 discriminator 1 view .LVU444
 1717              		.loc 7 397 71 is_stmt 0 discriminator 1 view .LVU445
 1718 006a FFF7FEFF 		bl	_Z10led_updateh
 1719              	.LVL86:
 398:fjol.cpp      ****       param_sum[i] = param[i] + cv_mod[i];
 1720              		.loc 7 398 29 discriminator 1 view .LVU446
 1721 006e D5ED007A 		vldr.32	s15, [r5]
 1722              	.L101:
ARM GAS  /tmp/cca3rxWD.s 			page 59


 1723              		.loc 7 398 7 is_stmt 1 view .LVU447
 1724              		.loc 7 398 31 is_stmt 0 view .LVU448
 1725 0072 98ED007A 		vldr.32	s14, [r8]
 1726 0076 77EE277A 		vadd.f32	s15, s14, s15
 1727              		.loc 7 398 20 view .LVU449
 1728 007a C7ED007A 		vstr.32	s15, [r7]
 399:fjol.cpp      ****       if(destination == 0){updatespread();}
 1729              		.loc 7 399 7 is_stmt 1 view .LVU450
 1730 007e B9F1000F 		cmp	r9, #0
 1731 0082 CDD1     		bne	.L98
 1732              		.loc 7 399 28 discriminator 1 view .LVU451
 1733              		.loc 7 399 40 is_stmt 0 discriminator 1 view .LVU452
 1734 0084 FFF7FEFF 		bl	_Z12updatespreadv
 1735              	.LVL87:
 1736 0088 CAE7     		b	.L98
 1737              	.L108:
 1738              		.loc 7 399 40 discriminator 1 view .LVU453
 1739              	.LBE680:
 400:fjol.cpp      ****     }
 401:fjol.cpp      ****   }
 402:fjol.cpp      **** }
 1740              		.loc 7 402 1 view .LVU454
 1741 008a BDEC028B 		vldm	sp!, {d8}
 1742              		.cfi_remember_state
 1743              		.cfi_restore 80
 1744              		.cfi_restore 81
 1745              		.cfi_def_cfa_offset 32
 1746              	.LVL88:
 1747              		.loc 7 402 1 view .LVU455
 1748 008e BDE8F883 		pop	{r3, r4, r5, r6, r7, r8, r9, pc}
 1749              	.LVL89:
 1750              	.L99:
 1751              		.cfi_restore_state
 1752              	.LBB681:
 396:fjol.cpp      ****       if(param[i] > 0){param[i] = 0; params_changed[i] = 0; led_update(i);}
 1753              		.loc 7 396 56 discriminator 1 view .LVU456
 1754 0092 3370     		strb	r3, [r6]
 396:fjol.cpp      ****       if(param[i] > 0){param[i] = 0; params_changed[i] = 0; led_update(i);}
 1755              		.loc 7 396 33 discriminator 1 view .LVU457
 1756 0094 85ED007A 		vstr.32	s14, [r5]
 396:fjol.cpp      ****       if(param[i] > 0){param[i] = 0; params_changed[i] = 0; led_update(i);}
 1757              		.loc 7 396 38 is_stmt 1 discriminator 1 view .LVU458
 396:fjol.cpp      ****       if(param[i] > 0){param[i] = 0; params_changed[i] = 0; led_update(i);}
 1758              		.loc 7 396 61 discriminator 1 view .LVU459
 396:fjol.cpp      ****       if(param[i] > 0){param[i] = 0; params_changed[i] = 0; led_update(i);}
 1759              		.loc 7 396 71 is_stmt 0 discriminator 1 view .LVU460
 1760 0098 FFF7FEFF 		bl	_Z10led_updateh
 1761              	.LVL90:
 397:fjol.cpp      ****       param_sum[i] = param[i] + cv_mod[i];
 1762              		.loc 7 397 17 discriminator 1 view .LVU461
 1763 009c D5ED007A 		vldr.32	s15, [r5]
 1764 00a0 D9E7     		b	.L100
 1765              	.L110:
 1766 00a2 00BF     		.align	2
 1767              	.L109:
 1768 00a4 00000000 		.word	params_changed
 1769 00a8 00000000 		.word	param_sum
ARM GAS  /tmp/cca3rxWD.s 			page 60


 1770 00ac 00000000 		.word	param
 1771 00b0 00000000 		.word	cv_mod
 1772              	.LBE681:
 1773              		.cfi_endproc
 1774              	.LFE4824:
 1776              		.section	.text._Z16select_algorithmv,"ax",%progbits
 1777              		.align	1
 1778              		.p2align 2,,3
 1779              		.global	_Z16select_algorithmv
 1780              		.syntax unified
 1781              		.thumb
 1782              		.thumb_func
 1784              	_Z16select_algorithmv:
 1785              	.LFB4825:
 403:fjol.cpp      **** 
 404:fjol.cpp      **** void select_algorithm()
 405:fjol.cpp      **** {
 1786              		.loc 7 405 1 is_stmt 1 view -0
 1787              		.cfi_startproc
 1788              		@ args = 0, pretend = 0, frame = 0
 1789              		@ frame_needed = 0, uses_anonymous_args = 0
 1790              		@ link register save eliminated.
 406:fjol.cpp      ****   switch(algo_select)
 1791              		.loc 7 406 3 view .LVU463
 1792              	.LBB682:
 1793              		.loc 7 406 10 is_stmt 0 view .LVU464
 1794 0000 1D4B     		ldr	r3, .L123
 1795 0002 1B78     		ldrb	r3, [r3]	@ zero_extendqisi2
 1796              		.loc 7 406 3 view .LVU465
 1797 0004 012B     		cmp	r3, #1
 1798 0006 03D0     		beq	.L112
 1799 0008 022B     		cmp	r3, #2
 1800 000a 23D0     		beq	.L113
 1801 000c 8BB1     		cbz	r3, .L122
 1802              	.LBE682:
 407:fjol.cpp      ****     {
 408:fjol.cpp      ****       case 0:
 409:fjol.cpp      ****       for(int i = 0; i<4; i++)
 410:fjol.cpp      ****       {
 411:fjol.cpp      ****         voice[i].op21 = 1;
 412:fjol.cpp      ****         voice[i].op31 = 1;
 413:fjol.cpp      ****         voice[i].op32 = 0;
 414:fjol.cpp      ****         voice[i].op2out = 0;
 415:fjol.cpp      ****       }
 416:fjol.cpp      ****       return;
 417:fjol.cpp      ****       break;
 418:fjol.cpp      ****       case 1:
 419:fjol.cpp      ****       for(int i = 0; i<4; i++)
 420:fjol.cpp      ****       {
 421:fjol.cpp      ****         voice[i].op21 = 1;
 422:fjol.cpp      ****         voice[i].op31 = 0;
 423:fjol.cpp      ****         voice[i].op32 = 1;
 424:fjol.cpp      ****         voice[i].op2out = 0;
 425:fjol.cpp      ****       }
 426:fjol.cpp      ****       return; 
 427:fjol.cpp      ****       break;
 428:fjol.cpp      ****       case 2:
ARM GAS  /tmp/cca3rxWD.s 			page 61


 429:fjol.cpp      ****       for(int i = 0; i<4; i++)
 430:fjol.cpp      ****       {
 431:fjol.cpp      ****         voice[i].op21 = 0;
 432:fjol.cpp      ****         voice[i].op31 = 1;
 433:fjol.cpp      ****         voice[i].op32 = 0;
 434:fjol.cpp      ****         voice[i].op2out = 1;
 435:fjol.cpp      ****       }
 436:fjol.cpp      ****       return;
 437:fjol.cpp      ****       break;
 438:fjol.cpp      ****     }
 439:fjol.cpp      **** }
 1803              		.loc 7 439 1 view .LVU466
 1804 000e 7047     		bx	lr
 1805              	.L112:
 1806 0010 1A4B     		ldr	r3, .L123+4
 1807 0012 03F53870 		add	r0, r3, #736
 1808              	.L117:
 1809              	.LBB686:
 1810              	.LBB683:
 421:fjol.cpp      ****         voice[i].op31 = 0;
 1811              		.loc 7 421 9 is_stmt 1 discriminator 2 view .LVU467
 419:fjol.cpp      ****       {
 1812              		.loc 7 419 23 is_stmt 0 discriminator 2 view .LVU468
 1813 0016 B833     		adds	r3, r3, #184
 421:fjol.cpp      ****         voice[i].op31 = 0;
 1814              		.loc 7 421 23 discriminator 2 view .LVU469
 1815 0018 0121     		movs	r1, #1
 422:fjol.cpp      ****         voice[i].op32 = 1;
 1816              		.loc 7 422 23 discriminator 2 view .LVU470
 1817 001a 0022     		movs	r2, #0
 419:fjol.cpp      ****       {
 1818              		.loc 7 419 23 discriminator 2 view .LVU471
 1819 001c 8342     		cmp	r3, r0
 421:fjol.cpp      ****         voice[i].op31 = 0;
 1820              		.loc 7 421 23 discriminator 2 view .LVU472
 1821 001e 03F81E1C 		strb	r1, [r3, #-30]
 422:fjol.cpp      ****         voice[i].op32 = 1;
 1822              		.loc 7 422 9 is_stmt 1 discriminator 2 view .LVU473
 422:fjol.cpp      ****         voice[i].op32 = 1;
 1823              		.loc 7 422 23 is_stmt 0 discriminator 2 view .LVU474
 1824 0022 03F81F2C 		strb	r2, [r3, #-31]
 423:fjol.cpp      ****         voice[i].op2out = 0;
 1825              		.loc 7 423 9 is_stmt 1 discriminator 2 view .LVU475
 423:fjol.cpp      ****         voice[i].op2out = 0;
 1826              		.loc 7 423 23 is_stmt 0 discriminator 2 view .LVU476
 1827 0026 03F8201C 		strb	r1, [r3, #-32]
 424:fjol.cpp      ****       }
 1828              		.loc 7 424 9 is_stmt 1 discriminator 2 view .LVU477
 424:fjol.cpp      ****       }
 1829              		.loc 7 424 25 is_stmt 0 discriminator 2 view .LVU478
 1830 002a 03F81D2C 		strb	r2, [r3, #-29]
 419:fjol.cpp      ****       {
 1831              		.loc 7 419 7 is_stmt 1 discriminator 2 view .LVU479
 419:fjol.cpp      ****       {
 1832              		.loc 7 419 23 discriminator 2 view .LVU480
 1833 002e F2D1     		bne	.L117
 1834 0030 7047     		bx	lr
ARM GAS  /tmp/cca3rxWD.s 			page 62


 1835              	.L122:
 1836 0032 124B     		ldr	r3, .L123+4
 1837 0034 03F53870 		add	r0, r3, #736
 1838              	.L115:
 1839              	.LBE683:
 1840              	.LBB684:
 411:fjol.cpp      ****         voice[i].op31 = 1;
 1841              		.loc 7 411 9 discriminator 2 view .LVU481
 409:fjol.cpp      ****       {
 1842              		.loc 7 409 23 is_stmt 0 discriminator 2 view .LVU482
 1843 0038 B833     		adds	r3, r3, #184
 411:fjol.cpp      ****         voice[i].op31 = 1;
 1844              		.loc 7 411 23 discriminator 2 view .LVU483
 1845 003a 0121     		movs	r1, #1
 413:fjol.cpp      ****         voice[i].op2out = 0;
 1846              		.loc 7 413 23 discriminator 2 view .LVU484
 1847 003c 0022     		movs	r2, #0
 409:fjol.cpp      ****       {
 1848              		.loc 7 409 23 discriminator 2 view .LVU485
 1849 003e 8342     		cmp	r3, r0
 411:fjol.cpp      ****         voice[i].op31 = 1;
 1850              		.loc 7 411 23 discriminator 2 view .LVU486
 1851 0040 03F81E1C 		strb	r1, [r3, #-30]
 412:fjol.cpp      ****         voice[i].op32 = 0;
 1852              		.loc 7 412 9 is_stmt 1 discriminator 2 view .LVU487
 412:fjol.cpp      ****         voice[i].op32 = 0;
 1853              		.loc 7 412 23 is_stmt 0 discriminator 2 view .LVU488
 1854 0044 03F81F1C 		strb	r1, [r3, #-31]
 413:fjol.cpp      ****         voice[i].op2out = 0;
 1855              		.loc 7 413 9 is_stmt 1 discriminator 2 view .LVU489
 413:fjol.cpp      ****         voice[i].op2out = 0;
 1856              		.loc 7 413 23 is_stmt 0 discriminator 2 view .LVU490
 1857 0048 03F8202C 		strb	r2, [r3, #-32]
 414:fjol.cpp      ****       }
 1858              		.loc 7 414 9 is_stmt 1 discriminator 2 view .LVU491
 414:fjol.cpp      ****       }
 1859              		.loc 7 414 25 is_stmt 0 discriminator 2 view .LVU492
 1860 004c 03F81D2C 		strb	r2, [r3, #-29]
 409:fjol.cpp      ****       {
 1861              		.loc 7 409 7 is_stmt 1 discriminator 2 view .LVU493
 409:fjol.cpp      ****       {
 1862              		.loc 7 409 23 discriminator 2 view .LVU494
 1863 0050 F2D1     		bne	.L115
 1864 0052 7047     		bx	lr
 1865              	.L113:
 1866 0054 094B     		ldr	r3, .L123+4
 1867 0056 03F53870 		add	r0, r3, #736
 1868              	.L118:
 1869              	.LBE684:
 1870              	.LBB685:
 431:fjol.cpp      ****         voice[i].op31 = 1;
 1871              		.loc 7 431 9 discriminator 2 view .LVU495
 429:fjol.cpp      ****       {
 1872              		.loc 7 429 23 is_stmt 0 discriminator 2 view .LVU496
 1873 005a B833     		adds	r3, r3, #184
 431:fjol.cpp      ****         voice[i].op31 = 1;
 1874              		.loc 7 431 23 discriminator 2 view .LVU497
ARM GAS  /tmp/cca3rxWD.s 			page 63


 1875 005c 0021     		movs	r1, #0
 432:fjol.cpp      ****         voice[i].op32 = 0;
 1876              		.loc 7 432 23 discriminator 2 view .LVU498
 1877 005e 0122     		movs	r2, #1
 429:fjol.cpp      ****       {
 1878              		.loc 7 429 23 discriminator 2 view .LVU499
 1879 0060 8342     		cmp	r3, r0
 431:fjol.cpp      ****         voice[i].op31 = 1;
 1880              		.loc 7 431 23 discriminator 2 view .LVU500
 1881 0062 03F81E1C 		strb	r1, [r3, #-30]
 432:fjol.cpp      ****         voice[i].op32 = 0;
 1882              		.loc 7 432 9 is_stmt 1 discriminator 2 view .LVU501
 432:fjol.cpp      ****         voice[i].op32 = 0;
 1883              		.loc 7 432 23 is_stmt 0 discriminator 2 view .LVU502
 1884 0066 03F81F2C 		strb	r2, [r3, #-31]
 433:fjol.cpp      ****         voice[i].op2out = 1;
 1885              		.loc 7 433 9 is_stmt 1 discriminator 2 view .LVU503
 433:fjol.cpp      ****         voice[i].op2out = 1;
 1886              		.loc 7 433 23 is_stmt 0 discriminator 2 view .LVU504
 1887 006a 03F8201C 		strb	r1, [r3, #-32]
 434:fjol.cpp      ****       }
 1888              		.loc 7 434 9 is_stmt 1 discriminator 2 view .LVU505
 434:fjol.cpp      ****       }
 1889              		.loc 7 434 25 is_stmt 0 discriminator 2 view .LVU506
 1890 006e 03F81D2C 		strb	r2, [r3, #-29]
 429:fjol.cpp      ****       {
 1891              		.loc 7 429 7 is_stmt 1 discriminator 2 view .LVU507
 429:fjol.cpp      ****       {
 1892              		.loc 7 429 23 discriminator 2 view .LVU508
 1893 0072 F2D1     		bne	.L118
 1894              	.LBE685:
 1895              	.LBE686:
 1896              		.loc 7 439 1 is_stmt 0 view .LVU509
 1897 0074 7047     		bx	lr
 1898              	.L124:
 1899 0076 00BF     		.align	2
 1900              	.L123:
 1901 0078 00000000 		.word	algo_select
 1902 007c 00000000 		.word	.LANCHOR0
 1903              		.cfi_endproc
 1904              	.LFE4825:
 1906              		.section	.text._Z9updateadcv,"ax",%progbits
 1907              		.align	1
 1908              		.p2align 2,,3
 1909              		.global	_Z9updateadcv
 1910              		.syntax unified
 1911              		.thumb
 1912              		.thumb_func
 1914              	_Z9updateadcv:
 1915              	.LFB4827:
 440:fjol.cpp      **** 
 441:fjol.cpp      **** void updatecontrols()
 442:fjol.cpp      **** {
 443:fjol.cpp      ****   float temp = 0;
 444:fjol.cpp      **** 
 445:fjol.cpp      ****   for(int i= 0; i<2; i++)
 446:fjol.cpp      ****   {
ARM GAS  /tmp/cca3rxWD.s 			page 64


 447:fjol.cpp      ****     enc[i].enc.Debounce();
 448:fjol.cpp      ****     if(enc[i].enc.Pressed() == 0)
 449:fjol.cpp      ****     {temp = encoder_read(enc[i].enc.Increment());}
 450:fjol.cpp      ****     if(temp != 0)
 451:fjol.cpp      ****     {update_params(enc[i].ctldest,temp,0);}
 452:fjol.cpp      ****   }
 453:fjol.cpp      **** 
 454:fjol.cpp      ****   updateSwitches();
 455:fjol.cpp      ****   updateadc();
 456:fjol.cpp      **** }
 457:fjol.cpp      **** 
 458:fjol.cpp      **** void updateadc()
 459:fjol.cpp      **** {
 1916              		.loc 7 459 1 is_stmt 1 view -0
 1917              		.cfi_startproc
 1918              		@ args = 0, pretend = 0, frame = 0
 1919              		@ frame_needed = 0, uses_anonymous_args = 0
 460:fjol.cpp      **** 
 461:fjol.cpp      ****   for(int i = 0; i<8; i++)
 1920              		.loc 7 461 3 view .LVU511
 1921              	.LVL91:
 1922              	.LBB687:
 1923              		.loc 7 461 19 view .LVU512
 1924              	.LBE687:
 459:fjol.cpp      **** 
 1925              		.loc 7 459 1 is_stmt 0 view .LVU513
 1926 0000 F8B5     		push	{r3, r4, r5, r6, r7, lr}
 1927              		.cfi_def_cfa_offset 24
 1928              		.cfi_offset 3, -24
 1929              		.cfi_offset 4, -20
 1930              		.cfi_offset 5, -16
 1931              		.cfi_offset 6, -12
 1932              		.cfi_offset 7, -8
 1933              		.cfi_offset 14, -4
 1934 0002 224C     		ldr	r4, .L134
 1935 0004 04F53875 		add	r5, r4, #736
 1936              	.LVL92:
 1937              	.L126:
 1938              	.LBB688:
 462:fjol.cpp      ****   {
 463:fjol.cpp      ****     controls[i].value = controls[i].param.Process();
 1939              		.loc 7 463 5 is_stmt 1 discriminator 2 view .LVU514
 1940              		.loc 7 463 50 is_stmt 0 discriminator 2 view .LVU515
 1941 0008 2046     		mov	r0, r4
 461:fjol.cpp      ****   {
 1942              		.loc 7 461 19 discriminator 2 view .LVU516
 1943 000a 5C34     		adds	r4, r4, #92
 1944              		.loc 7 463 50 discriminator 2 view .LVU517
 1945 000c FFF7FEFF 		bl	_ZN5daisy9Parameter7ProcessEv
 1946              	.LVL93:
 461:fjol.cpp      ****   {
 1947              		.loc 7 461 19 discriminator 2 view .LVU518
 1948 0010 AC42     		cmp	r4, r5
 1949              		.loc 7 463 23 discriminator 2 view .LVU519
 1950 0012 04ED090A 		vstr.32	s0, [r4, #-36]
 461:fjol.cpp      ****   {
 1951              		.loc 7 461 3 is_stmt 1 discriminator 2 view .LVU520
ARM GAS  /tmp/cca3rxWD.s 			page 65


 461:fjol.cpp      ****   {
 1952              		.loc 7 461 19 discriminator 2 view .LVU521
 1953 0016 F7D1     		bne	.L126
 1954              	.LBE688:
 464:fjol.cpp      ****   }
 465:fjol.cpp      **** 
 466:fjol.cpp      ****   cv_mod[enc[0].ctlcvdest]= cv[0].input.Process();
 1955              		.loc 7 466 3 view .LVU522
 1956              		.loc 7 466 17 is_stmt 0 view .LVU523
 1957 0018 1D4E     		ldr	r6, .L134+4
 1958              		.loc 7 466 27 view .LVU524
 1959 001a 1E4C     		ldr	r4, .L134+8
 1960              		.loc 7 466 17 view .LVU525
 1961 001c 96F82970 		ldrb	r7, [r6, #41]	@ zero_extendqisi2
 1962              		.loc 7 466 48 view .LVU526
 1963 0020 1D48     		ldr	r0, .L134+12
 1964              		.loc 7 466 27 view .LVU527
 1965 0022 04EB8707 		add	r7, r4, r7, lsl #2
 1966              		.loc 7 466 48 view .LVU528
 1967 0026 FFF7FEFF 		bl	_ZN5daisy13AnalogControl7ProcessEv
 1968              	.LVL94:
 467:fjol.cpp      ****   cv_mod[enc[1].ctlcvdest]= cv[1].input.Process();
 1969              		.loc 7 467 17 view .LVU529
 1970 002a 96F85550 		ldrb	r5, [r6, #85]	@ zero_extendqisi2
 1971              		.loc 7 467 48 view .LVU530
 1972 002e 1B48     		ldr	r0, .L134+16
 466:fjol.cpp      ****   cv_mod[enc[1].ctlcvdest]= cv[1].input.Process();
 1973              		.loc 7 466 27 view .LVU531
 1974 0030 87ED000A 		vstr.32	s0, [r7]
 1975              		.loc 7 467 3 is_stmt 1 view .LVU532
 1976              		.loc 7 467 27 is_stmt 0 view .LVU533
 1977 0034 04EB8505 		add	r5, r4, r5, lsl #2
 1978              		.loc 7 467 48 view .LVU534
 1979 0038 FFF7FEFF 		bl	_ZN5daisy13AnalogControl7ProcessEv
 1980              	.LVL95:
 1981              	.LBB689:
 1982              	.LBB690:
 468:fjol.cpp      ****   //reset values that cv destination isn't mapped to
 469:fjol.cpp      ****   for(int j = 0; j<1; j++)
 470:fjol.cpp      ****   {
 471:fjol.cpp      ****    for(int i = 0; i<7; i++)
 472:fjol.cpp      ****    {
 473:fjol.cpp      ****      if(i != enc[j].ctlcvdest)
 1983              		.loc 7 473 21 view .LVU535
 1984 003c 96F82920 		ldrb	r2, [r6, #41]	@ zero_extendqisi2
 471:fjol.cpp      ****    {
 1985              		.loc 7 471 12 view .LVU536
 1986 0040 0023     		movs	r3, #0
 1987              	.LBE690:
 1988              	.LBE689:
 467:fjol.cpp      ****   //reset values that cv destination isn't mapped to
 1989              		.loc 7 467 27 view .LVU537
 1990 0042 85ED000A 		vstr.32	s0, [r5]
 469:fjol.cpp      ****   {
 1991              		.loc 7 469 3 is_stmt 1 view .LVU538
 1992              	.LVL96:
 1993              	.LBB692:
ARM GAS  /tmp/cca3rxWD.s 			page 66


 469:fjol.cpp      ****   {
 1994              		.loc 7 469 19 view .LVU539
 1995              	.LBB691:
 471:fjol.cpp      ****    {
 1996              		.loc 7 471 20 view .LVU540
 1997              	.L128:
 1998              		.loc 7 473 6 view .LVU541
 474:fjol.cpp      ****      {
 475:fjol.cpp      ****        cv_mod[enc[j].ctlcvdest] = 0;
 1999              		.loc 7 475 8 view .LVU542
 471:fjol.cpp      ****    {
 2000              		.loc 7 471 4 view .LVU543
 473:fjol.cpp      ****      {
 2001              		.loc 7 473 6 is_stmt 0 view .LVU544
 2002 0046 9A42     		cmp	r2, r3
 2003              		.loc 7 475 33 view .LVU545
 2004 0048 04EB8201 		add	r1, r4, r2, lsl #2
 471:fjol.cpp      ****    {
 2005              		.loc 7 471 4 view .LVU546
 2006 004c 03F10103 		add	r3, r3, #1
 2007              	.LVL97:
 471:fjol.cpp      ****    {
 2008              		.loc 7 471 20 is_stmt 1 view .LVU547
 2009              		.loc 7 475 33 is_stmt 0 view .LVU548
 2010 0050 4FF00000 		mov	r0, #0
 2011 0054 18BF     		it	ne
 2012 0056 0860     		strne	r0, [r1]	@ float
 471:fjol.cpp      ****    {
 2013              		.loc 7 471 20 view .LVU549
 2014 0058 072B     		cmp	r3, #7
 2015 005a F4D1     		bne	.L128
 2016 005c 104C     		ldr	r4, .L134+20
 2017 005e 114D     		ldr	r5, .L134+24
 2018 0060 04F58076 		add	r6, r4, #256
 2019              	.LVL98:
 2020              	.L129:
 471:fjol.cpp      ****    {
 2021              		.loc 7 471 20 view .LVU550
 2022              	.LBE691:
 2023              	.LBE692:
 2024              	.LBB693:
 476:fjol.cpp      ****      }
 477:fjol.cpp      ****    }
 478:fjol.cpp      ****   }//reset cv array ends
 479:fjol.cpp      ****   //set attack decay for envelope
 480:fjol.cpp      ****   for(int i = 0; i<4; i++)
 481:fjol.cpp      ****   {
 482:fjol.cpp      ****     envelope[i].env.SetAttackTime(controls[4].value);
 2025              		.loc 7 482 5 is_stmt 1 discriminator 2 view .LVU551
 2026              		.loc 7 482 34 is_stmt 0 discriminator 2 view .LVU552
 2027 0064 2046     		mov	r0, r4
 2028 0066 DFED100A 		vldr.32	s1, .L134+28
 2029 006a 95ED720A 		vldr.32	s0, [r5, #456]
 2030 006e FFF7FEFF 		bl	_ZN7daisysp4Adsr13SetAttackTimeEff
 2031              	.LVL99:
 483:fjol.cpp      ****     envelope[i].env.SetDecayTime(controls[5].value);
 2032              		.loc 7 483 5 is_stmt 1 discriminator 2 view .LVU553
ARM GAS  /tmp/cca3rxWD.s 			page 67


 2033              		.loc 7 483 33 is_stmt 0 discriminator 2 view .LVU554
 2034 0072 2046     		mov	r0, r4
 480:fjol.cpp      ****   {
 2035              		.loc 7 480 19 discriminator 2 view .LVU555
 2036 0074 4034     		adds	r4, r4, #64
 2037              		.loc 7 483 33 discriminator 2 view .LVU556
 2038 0076 95ED890A 		vldr.32	s0, [r5, #548]
 2039 007a FFF7FEFF 		bl	_ZN7daisysp4Adsr12SetDecayTimeEf
 2040              	.LVL100:
 480:fjol.cpp      ****   {
 2041              		.loc 7 480 3 is_stmt 1 discriminator 2 view .LVU557
 480:fjol.cpp      ****   {
 2042              		.loc 7 480 19 discriminator 2 view .LVU558
 2043 007e A642     		cmp	r6, r4
 2044 0080 F0D1     		bne	.L129
 2045              	.LBE693:
 484:fjol.cpp      ****   }
 485:fjol.cpp      ****   filtenvelope.env.SetMax(controls[7].value); //set amplitude of envelope for filter
 2046              		.loc 7 485 3 view .LVU559
 2047              	.LVL101:
 2048              	.LBB694:
 2049              	.LBI694:
  36:DaisySP/Source/Control/adenv.h ****     /** Initializes the ad envelope.
  37:DaisySP/Source/Control/adenv.h **** 
  38:DaisySP/Source/Control/adenv.h ****         Defaults:
  39:DaisySP/Source/Control/adenv.h ****             - current segment = idle
  40:DaisySP/Source/Control/adenv.h ****             - curve = linear
  41:DaisySP/Source/Control/adenv.h ****             - phase = 0
  42:DaisySP/Source/Control/adenv.h ****             - min = 0
  43:DaisySP/Source/Control/adenv.h ****             - max = 1
  44:DaisySP/Source/Control/adenv.h **** 
  45:DaisySP/Source/Control/adenv.h ****         \param sample_rate      sample rate of the audio engine being run
  46:DaisySP/Source/Control/adenv.h ****     */
  47:DaisySP/Source/Control/adenv.h ****     void Init(float sample_rate);
  48:DaisySP/Source/Control/adenv.h **** 
  49:DaisySP/Source/Control/adenv.h ****     /** Processes the current sample of the envelope. This should be called once
  50:DaisySP/Source/Control/adenv.h ****         per sample period.
  51:DaisySP/Source/Control/adenv.h ****         \return the current envelope value.
  52:DaisySP/Source/Control/adenv.h ****     */
  53:DaisySP/Source/Control/adenv.h ****     float Process();
  54:DaisySP/Source/Control/adenv.h **** 
  55:DaisySP/Source/Control/adenv.h ****     /** Starts or retriggers the envelope.*/
  56:DaisySP/Source/Control/adenv.h ****     inline void Trigger() { trigger_ = 1; }
  57:DaisySP/Source/Control/adenv.h ****     /** Sets the length of time (in seconds) for a specific segment. */
  58:DaisySP/Source/Control/adenv.h ****     inline void SetTime(uint8_t seg, float time) { segment_time_[seg] = time; }
  59:DaisySP/Source/Control/adenv.h ****     /** Sets the amount of curve applied. A positve value will create a log
  60:DaisySP/Source/Control/adenv.h ****         curve. Input range: -100 to 100.  (or more)
  61:DaisySP/Source/Control/adenv.h ****     */
  62:DaisySP/Source/Control/adenv.h ****     inline void SetCurve(float scalar) { curve_scalar_ = scalar; }
  63:DaisySP/Source/Control/adenv.h ****     /** Sets the minimum value of the envelope output.
  64:DaisySP/Source/Control/adenv.h ****         Input range: -FLTmax_, to FLTmax_
  65:DaisySP/Source/Control/adenv.h ****     */
  66:DaisySP/Source/Control/adenv.h ****     inline void SetMin(float min) { min_ = min; }
  67:DaisySP/Source/Control/adenv.h ****     /** Sets the maximum value of the envelope output.
  68:DaisySP/Source/Control/adenv.h ****         Input range: -FLTmax_, to FLTmax_
  69:DaisySP/Source/Control/adenv.h ****     */
  70:DaisySP/Source/Control/adenv.h ****     inline void SetMax(float max) { max_ = max; }
ARM GAS  /tmp/cca3rxWD.s 			page 68


 2050              		.loc 8 70 17 view .LVU560
 2051              	.LBB695:
 2052              		.loc 8 70 37 view .LVU561
 2053              		.loc 8 70 42 is_stmt 0 view .LVU562
 2054 0082 0A4B     		ldr	r3, .L134+32
 2055 0084 D5F8DC22 		ldr	r2, [r5, #732]	@ float
 2056 0088 9A61     		str	r2, [r3, #24]	@ float
 2057              	.LVL102:
 2058              		.loc 8 70 42 view .LVU563
 2059              	.LBE695:
 2060              	.LBE694:
 486:fjol.cpp      **** }
 2061              		.loc 7 486 1 view .LVU564
 2062 008a F8BD     		pop	{r3, r4, r5, r6, r7, pc}
 2063              	.L135:
 2064              		.align	2
 2065              	.L134:
 2066 008c 20000000 		.word	.LANCHOR2+32
 2067 0090 00000000 		.word	.LANCHOR4
 2068 0094 00000000 		.word	cv_mod
 2069 0098 00000000 		.word	.LANCHOR5
 2070 009c 5C000000 		.word	.LANCHOR5+92
 2071 00a0 00000000 		.word	.LANCHOR1
 2072 00a4 00000000 		.word	.LANCHOR2
 2073 00a8 00000000 		.word	0
 2074 00ac 00000000 		.word	.LANCHOR6
 2075              		.cfi_endproc
 2076              	.LFE4827:
 2078              		.section	.text._Z14updateSwitchesv,"ax",%progbits
 2079              		.align	1
 2080              		.p2align 2,,3
 2081              		.global	_Z14updateSwitchesv
 2082              		.syntax unified
 2083              		.thumb
 2084              		.thumb_func
 2086              	_Z14updateSwitchesv:
 2087              	.LFB4828:
 487:fjol.cpp      **** 
 488:fjol.cpp      **** void updateSwitches()
 489:fjol.cpp      **** {
 2088              		.loc 7 489 1 is_stmt 1 view -0
 2089              		.cfi_startproc
 2090              		@ args = 0, pretend = 0, frame = 0
 2091              		@ frame_needed = 0, uses_anonymous_args = 0
 490:fjol.cpp      ****   
 491:fjol.cpp      ****   shift_sw.Debounce();
 2092              		.loc 7 491 3 view .LVU566
 489:fjol.cpp      ****   
 2093              		.loc 7 489 1 is_stmt 0 view .LVU567
 2094 0000 2DE9F041 		push	{r4, r5, r6, r7, r8, lr}
 2095              		.cfi_def_cfa_offset 24
 2096              		.cfi_offset 4, -24
 2097              		.cfi_offset 5, -20
 2098              		.cfi_offset 6, -16
 2099              		.cfi_offset 7, -12
 2100              		.cfi_offset 8, -8
 2101              		.cfi_offset 14, -4
ARM GAS  /tmp/cca3rxWD.s 			page 69


 2102 0004 4E4F     		ldr	r7, .L188
 2103              	.LBB726:
 492:fjol.cpp      ****   //get encoder switches
 493:fjol.cpp      ****   for(int i=0;i<2;i++)
 2104              		.loc 7 493 11 view .LVU568
 2105 0006 0025     		movs	r5, #0
 2106              	.LBE726:
 491:fjol.cpp      ****   //get encoder switches
 2107              		.loc 7 491 20 view .LVU569
 2108 0008 4E48     		ldr	r0, .L188+4
 2109 000a 3C46     		mov	r4, r7
 2110 000c 0646     		mov	r6, r0
 2111 000e FFF7FEFF 		bl	_ZN5daisy6Switch8DebounceEv
 2112              	.LVL103:
 2113              		.loc 7 493 3 is_stmt 1 view .LVU570
 2114              	.LBB741:
 2115              		.loc 7 493 16 view .LVU571
 494:fjol.cpp      ****   {
 495:fjol.cpp      ****     enc[i].enc.Debounce();
 2116              		.loc 7 495 5 view .LVU572
 2117              		.loc 7 495 24 is_stmt 0 view .LVU573
 2118 0012 2046     		mov	r0, r4
 2119 0014 FFF7FEFF 		bl	_ZN5daisy7Encoder8DebounceEv
 2120              	.LVL104:
 496:fjol.cpp      ****     if((shift_sw.Pressed() == false) && enc[i].enc.RisingEdge())
 2121              		.loc 7 496 5 is_stmt 1 view .LVU574
 2122              	.LBB727:
 2123              	.LBI727:
  43:libDaisy/src/hid/switch.h **** 
  44:libDaisy/src/hid/switch.h ****     /** 
  45:libDaisy/src/hid/switch.h ****     Initializes the switch object with a given port/pin combo.
  46:libDaisy/src/hid/switch.h ****     \param pin port/pin object to tell the switch which hardware pin to use.
  47:libDaisy/src/hid/switch.h ****     \param update_rate Does nothing. Backwards compatibility until next breaking update.
  48:libDaisy/src/hid/switch.h ****     \param t switch type -- Default: TYPE_MOMENTARY
  49:libDaisy/src/hid/switch.h ****     \param pol switch polarity -- Default: POLARITY_INVERTED
  50:libDaisy/src/hid/switch.h ****     \param pu switch pull up/down -- Default: PULL_UP
  51:libDaisy/src/hid/switch.h ****     */
  52:libDaisy/src/hid/switch.h ****     void
  53:libDaisy/src/hid/switch.h ****     Init(dsy_gpio_pin pin, float update_rate, Type t, Polarity pol, Pull pu);
  54:libDaisy/src/hid/switch.h **** 
  55:libDaisy/src/hid/switch.h ****     /**
  56:libDaisy/src/hid/switch.h ****        Simplified Init.
  57:libDaisy/src/hid/switch.h ****        \param pin port/pin object to tell the switch which hardware pin to use.
  58:libDaisy/src/hid/switch.h ****        \param update_rate Left for backwards compatibility until next breaking change.
  59:libDaisy/src/hid/switch.h ****     */
  60:libDaisy/src/hid/switch.h ****     void Init(dsy_gpio_pin pin, float update_rate = 0.f);
  61:libDaisy/src/hid/switch.h **** 
  62:libDaisy/src/hid/switch.h ****     /** 
  63:libDaisy/src/hid/switch.h ****     Called at update_rate to debounce and handle timing for the switch.
  64:libDaisy/src/hid/switch.h ****     In order for events not to be missed, its important that the Edge/Pressed checks
  65:libDaisy/src/hid/switch.h ****     be made at the same rate as the debounce function is being called.
  66:libDaisy/src/hid/switch.h ****     */
  67:libDaisy/src/hid/switch.h ****     void Debounce();
  68:libDaisy/src/hid/switch.h **** 
  69:libDaisy/src/hid/switch.h ****     /** \return true if a button was just pressed. */
  70:libDaisy/src/hid/switch.h ****     inline bool RisingEdge() const { return updated_ ? state_ == 0x7f : false; }
  71:libDaisy/src/hid/switch.h **** 
ARM GAS  /tmp/cca3rxWD.s 			page 70


  72:libDaisy/src/hid/switch.h ****     /** \return true if the button was just released */
  73:libDaisy/src/hid/switch.h ****     inline bool FallingEdge() const
  74:libDaisy/src/hid/switch.h ****     {
  75:libDaisy/src/hid/switch.h ****         return updated_ ? state_ == 0x80 : false;
  76:libDaisy/src/hid/switch.h ****     }
  77:libDaisy/src/hid/switch.h **** 
  78:libDaisy/src/hid/switch.h ****     /** \return true if the button is held down (or if the toggle is on) */
  79:libDaisy/src/hid/switch.h ****     inline bool Pressed() const { return state_ == 0xff; }
 2124              		.loc 1 79 17 view .LVU575
 2125              	.LBB728:
 2126              		.loc 1 79 35 view .LVU576
 2127              		.loc 1 79 35 is_stmt 0 view .LVU577
 2128              	.LBE728:
 2129              	.LBE727:
 2130              		.loc 7 496 38 view .LVU578
 2131 0018 B37A     		ldrb	r3, [r6, #10]	@ zero_extendqisi2
 2132 001a FF2B     		cmp	r3, #255
 2133 001c 2AD0     		beq	.L144
 2134              	.L137:
 2135              	.LVL105:
 2136              	.LBB730:
 2137              	.LBI730:
 2138              		.file 12 "libDaisy/src/hid/encoder.h"
   1:libDaisy/src/hid/encoder.h **** #pragma once
   2:libDaisy/src/hid/encoder.h **** #ifndef DSY_ENCODER_H
   3:libDaisy/src/hid/encoder.h **** #define DSY_ENCODER_H
   4:libDaisy/src/hid/encoder.h **** #include "daisy_core.h"
   5:libDaisy/src/hid/encoder.h **** #include "per/gpio.h"
   6:libDaisy/src/hid/encoder.h **** #include "hid/switch.h"
   7:libDaisy/src/hid/encoder.h **** 
   8:libDaisy/src/hid/encoder.h **** namespace daisy
   9:libDaisy/src/hid/encoder.h **** {
  10:libDaisy/src/hid/encoder.h **** /** 
  11:libDaisy/src/hid/encoder.h ****     @brief Generic Class for handling Quadrature Encoders \n 
  12:libDaisy/src/hid/encoder.h ****     Inspired/influenced by Mutable Instruments (pichenettes) Encoder classes
  13:libDaisy/src/hid/encoder.h ****     @author Stephen Hensley
  14:libDaisy/src/hid/encoder.h ****     @date December 2019
  15:libDaisy/src/hid/encoder.h ****     @ingroup controls
  16:libDaisy/src/hid/encoder.h **** */
  17:libDaisy/src/hid/encoder.h **** class Encoder
  18:libDaisy/src/hid/encoder.h **** {
  19:libDaisy/src/hid/encoder.h ****   public:
  20:libDaisy/src/hid/encoder.h ****     Encoder() {}
  21:libDaisy/src/hid/encoder.h ****     ~Encoder() {}
  22:libDaisy/src/hid/encoder.h **** 
  23:libDaisy/src/hid/encoder.h ****     /** Initializes the encoder with the specified hardware pins.
  24:libDaisy/src/hid/encoder.h ****      * Update rate is to be deprecated in a future release
  25:libDaisy/src/hid/encoder.h ****      */
  26:libDaisy/src/hid/encoder.h ****     void Init(dsy_gpio_pin a,
  27:libDaisy/src/hid/encoder.h ****               dsy_gpio_pin b,
  28:libDaisy/src/hid/encoder.h ****               dsy_gpio_pin click,
  29:libDaisy/src/hid/encoder.h ****               float        update_rate = 0.f);
  30:libDaisy/src/hid/encoder.h ****     /** Called at update_rate to debounce and handle timing for the switch.
  31:libDaisy/src/hid/encoder.h ****      * In order for events not to be missed, its important that the Edge/Pressed checks be made at 
  32:libDaisy/src/hid/encoder.h ****      */
  33:libDaisy/src/hid/encoder.h ****     void Debounce();
  34:libDaisy/src/hid/encoder.h **** 
ARM GAS  /tmp/cca3rxWD.s 			page 71


  35:libDaisy/src/hid/encoder.h ****     /** Returns +1 if the encoder was turned clockwise, -1 if it was turned counter-clockwise, or 0
  36:libDaisy/src/hid/encoder.h ****     inline int32_t Increment() const { return updated_ ? inc_ : 0; }
  37:libDaisy/src/hid/encoder.h **** 
  38:libDaisy/src/hid/encoder.h ****     /** Returns true if the encoder was just pressed. */
  39:libDaisy/src/hid/encoder.h ****     inline bool RisingEdge() const { return sw_.RisingEdge(); }
 2139              		.loc 12 39 17 is_stmt 1 discriminator 1 view .LVU579
 2140              	.LBE730:
 2141              	.LBE741:
 2142              		.loc 12 39 38 discriminator 1 view .LVU580
 2143              	.LBB742:
 2144              	.LBB733:
 2145              	.LBB731:
 2146              	.LBI731:
  70:libDaisy/src/hid/switch.h **** 
 2147              		.loc 1 70 17 discriminator 1 view .LVU581
 2148              	.LBB732:
  70:libDaisy/src/hid/switch.h **** 
 2149              		.loc 1 70 38 discriminator 1 view .LVU582
  70:libDaisy/src/hid/switch.h **** 
 2150              		.loc 1 70 54 is_stmt 0 discriminator 1 view .LVU583
 2151 001e 237B     		ldrb	r3, [r4, #12]	@ zero_extendqisi2
 2152 0020 13B1     		cbz	r3, .L141
 2153              	.LVL106:
  70:libDaisy/src/hid/switch.h **** 
 2154              		.loc 1 70 54 discriminator 1 view .LVU584
 2155              	.LBE732:
 2156              	.LBE731:
 2157              	.LBE733:
 2158              		.loc 7 496 38 view .LVU585
 2159 0022 A37C     		ldrb	r3, [r4, #18]	@ zero_extendqisi2
 2160 0024 7F2B     		cmp	r3, #127
 2161 0026 46D0     		beq	.L184
 2162              	.L141:
 493:fjol.cpp      ****   {
 2163              		.loc 7 493 3 is_stmt 1 discriminator 2 view .LVU586
 2164              	.LVL107:
 493:fjol.cpp      ****   {
 2165              		.loc 7 493 16 discriminator 2 view .LVU587
 2166 0028 2C34     		adds	r4, r4, #44
 2167 002a E5B1     		cbz	r5, .L149
 493:fjol.cpp      ****   {
 2168              		.loc 7 493 16 is_stmt 0 discriminator 2 view .LVU588
 2169              	.LBE742:
 497:fjol.cpp      ****     {
 498:fjol.cpp      ****       enc[i].ctldest = enc[i].ctldest+1;
 499:fjol.cpp      ****       if(enc[i].ctldest > 3 && i == 0){enc[i].ctldest = 0;}
 500:fjol.cpp      ****       if(enc[i].ctldest > 7 && i == 1){enc[i].ctldest = 0;}
 501:fjol.cpp      ****       led_takeover = 1;
 502:fjol.cpp      ****       ledlastmillis = System::GetNow();
 503:fjol.cpp      ****       led_menu_step(enc[i].ctldest,green);
 504:fjol.cpp      ****       //getorsetsettings(1,0); 
 505:fjol.cpp      ****     }
 506:fjol.cpp      ****     //ctl1 cv destination
 507:fjol.cpp      ****     if((shift_sw.Pressed() == true) && enc[i].enc.RisingEdge())
 508:fjol.cpp      ****     {
 509:fjol.cpp      ****       enc[i].ctlcvdest = enc[i].ctlcvdest+1;
 510:fjol.cpp      ****       if(enc[i].ctlcvdest > 3 && i == 0){enc[i].ctlcvdest = 0;}
ARM GAS  /tmp/cca3rxWD.s 			page 72


 511:fjol.cpp      ****       if(enc[i].ctlcvdest > 7 && i == 1){enc[i].ctlcvdest = 0;}
 512:fjol.cpp      ****       led_takeover = 1;
 513:fjol.cpp      ****       ledlastmillis = System::GetNow();
 514:fjol.cpp      ****       led_menu_step(enc[i].ctlcvdest,red);
 515:fjol.cpp      ****       //getorsetsettings(1,0); 
 516:fjol.cpp      ****     }
 517:fjol.cpp      ****   }
 518:fjol.cpp      ****   //get algorithm switch
 519:fjol.cpp      ****   algo_sw.Debounce();
 2170              		.loc 7 519 3 is_stmt 1 view .LVU589
 2171              		.loc 7 519 19 is_stmt 0 view .LVU590
 2172 002c 464C     		ldr	r4, .L188+8
 2173 002e 2046     		mov	r0, r4
 2174 0030 FFF7FEFF 		bl	_ZN5daisy6Switch8DebounceEv
 2175              	.LVL108:
 520:fjol.cpp      ****   if(algo_sw.RisingEdge() && shift_sw.Pressed() == false)
 2176              		.loc 7 520 3 is_stmt 1 view .LVU591
 2177              	.LBB743:
 2178              	.LBI743:
  70:libDaisy/src/hid/switch.h **** 
 2179              		.loc 1 70 17 view .LVU592
 2180              	.LBB744:
  70:libDaisy/src/hid/switch.h **** 
 2181              		.loc 1 70 38 view .LVU593
  70:libDaisy/src/hid/switch.h **** 
 2182              		.loc 1 70 54 is_stmt 0 view .LVU594
 2183 0034 2379     		ldrb	r3, [r4, #4]	@ zero_extendqisi2
 2184 0036 2BB1     		cbz	r3, .L148
 2185              	.LVL109:
  70:libDaisy/src/hid/switch.h **** 
 2186              		.loc 1 70 54 view .LVU595
 2187              	.LBE744:
 2188              	.LBE743:
 2189              		.loc 7 520 27 view .LVU596
 2190 0038 A37A     		ldrb	r3, [r4, #10]	@ zero_extendqisi2
 2191 003a 7F2B     		cmp	r3, #127
 2192 003c 02D1     		bne	.L148
 2193              	.LVL110:
 2194              	.LBB745:
 2195              	.LBI745:
 2196              		.loc 1 79 17 is_stmt 1 view .LVU597
 2197              	.LBB746:
 2198              		.loc 1 79 35 view .LVU598
 2199              		.loc 1 79 35 is_stmt 0 view .LVU599
 2200              	.LBE746:
 2201              	.LBE745:
 2202              		.loc 7 520 27 view .LVU600
 2203 003e B37A     		ldrb	r3, [r6, #10]	@ zero_extendqisi2
 2204 0040 FF2B     		cmp	r3, #255
 2205 0042 5ED1     		bne	.L185
 2206              	.L148:
 521:fjol.cpp      ****   {
 522:fjol.cpp      ****     algo_select++;
 523:fjol.cpp      ****     algo_select = DSY_CLAMP(algo_select,0,3);
 524:fjol.cpp      ****      //PM algorithm select
 525:fjol.cpp      ****     //AudioNoInterrupts();
 526:fjol.cpp      ****     select_algorithm();
ARM GAS  /tmp/cca3rxWD.s 			page 73


 527:fjol.cpp      ****     led_takeover = 1;
 528:fjol.cpp      ****     ledlastmillis = System::GetNow();
 529:fjol.cpp      ****     led_menu_step(algo_select,red);
 530:fjol.cpp      ****     //getorsetsettings(save); //save settings
 531:fjol.cpp      ****   }
 532:fjol.cpp      ****   midi_sw.Debounce();
 2207              		.loc 7 532 3 is_stmt 1 view .LVU601
 2208              		.loc 7 532 19 is_stmt 0 view .LVU602
 2209 0044 4148     		ldr	r0, .L188+12
 2210 0046 FFF7FEFF 		bl	_ZN5daisy6Switch8DebounceEv
 2211              	.LVL111:
 533:fjol.cpp      ****   if(midi_sw.RisingEdge())
 2212              		.loc 7 533 3 is_stmt 1 view .LVU603
  70:libDaisy/src/hid/switch.h **** 
 2213              		.loc 1 70 38 view .LVU604
 2214              	.LBB747:
 534:fjol.cpp      ****   {
 535:fjol.cpp      ****     while(midi_sw.Pressed())
 536:fjol.cpp      ****     {
 537:fjol.cpp      ****       if(midi_sw.TimeHeldMs() >= 2000)
 538:fjol.cpp      ****       {
 539:fjol.cpp      ****         learn_active = 1;
 540:fjol.cpp      ****       }
 541:fjol.cpp      ****       else
 542:fjol.cpp      ****       {
 543:fjol.cpp      ****         midipanic();
 544:fjol.cpp      ****       }
 545:fjol.cpp      ****     }
 546:fjol.cpp      ****   } //midi switch ends
 547:fjol.cpp      ****   //gate expander
 548:fjol.cpp      ****   for(int i = 0; i<4;i++)
 549:fjol.cpp      ****   {
 550:fjol.cpp      ****     if(gate[i].gate.State())
 2215              		.loc 7 550 5 view .LVU605
 2216              	.LBB748:
 2217              	.LBI748:
 2218              		.file 13 "libDaisy/src/hid/gatein.h"
   1:libDaisy/src/hid/gatein.h **** #pragma once
   2:libDaisy/src/hid/gatein.h **** #ifndef DSY_GATEIN_H
   3:libDaisy/src/hid/gatein.h **** #define DSY_GATEIN_H
   4:libDaisy/src/hid/gatein.h **** #include "per/gpio.h"
   5:libDaisy/src/hid/gatein.h **** 
   6:libDaisy/src/hid/gatein.h **** namespace daisy
   7:libDaisy/src/hid/gatein.h **** {
   8:libDaisy/src/hid/gatein.h **** /**
   9:libDaisy/src/hid/gatein.h ****    @brief Generic Class for handling gate inputs through GPIO.
  10:libDaisy/src/hid/gatein.h ****    @author Stephen Hensley
  11:libDaisy/src/hid/gatein.h ****    @date    March 2020
  12:libDaisy/src/hid/gatein.h ****    @ingroup controls
  13:libDaisy/src/hid/gatein.h **** */
  14:libDaisy/src/hid/gatein.h **** class GateIn
  15:libDaisy/src/hid/gatein.h **** {
  16:libDaisy/src/hid/gatein.h ****   public:
  17:libDaisy/src/hid/gatein.h ****     /** GateIn 
  18:libDaisy/src/hid/gatein.h ****     Constructor 
  19:libDaisy/src/hid/gatein.h ****     */
  20:libDaisy/src/hid/gatein.h ****     GateIn() {}
ARM GAS  /tmp/cca3rxWD.s 			page 74


  21:libDaisy/src/hid/gatein.h ****     /** GateIn~
  22:libDaisy/src/hid/gatein.h ****     Destructor 
  23:libDaisy/src/hid/gatein.h ****     */
  24:libDaisy/src/hid/gatein.h ****     ~GateIn() {}
  25:libDaisy/src/hid/gatein.h **** 
  26:libDaisy/src/hid/gatein.h ****     /** @brief Initializes the gate input with specified hardware pin
  27:libDaisy/src/hid/gatein.h ****      *
  28:libDaisy/src/hid/gatein.h ****      *  @param pin_cfg pointer to pin to initialize
  29:libDaisy/src/hid/gatein.h ****      *  @param invert True if the pin state is HIGH when 0V is present
  30:libDaisy/src/hid/gatein.h ****      *         at the input. False if input signal matches the pin state.
  31:libDaisy/src/hid/gatein.h ****      *
  32:libDaisy/src/hid/gatein.h ****      *  @note the default for invert is true because it is typical to use
  33:libDaisy/src/hid/gatein.h ****      *  an inverting input circuit (e.g. a BJT circuit) for eurorack gate inputs.
  34:libDaisy/src/hid/gatein.h ****      */
  35:libDaisy/src/hid/gatein.h ****     void Init(dsy_gpio_pin *pin_cfg, bool invert = true);
  36:libDaisy/src/hid/gatein.h **** 
  37:libDaisy/src/hid/gatein.h ****     /** Trig
  38:libDaisy/src/hid/gatein.h ****     Checks current state of gate input.
  39:libDaisy/src/hid/gatein.h **** 
  40:libDaisy/src/hid/gatein.h ****     @return True if the GPIO just transitioned.
  41:libDaisy/src/hid/gatein.h ****     */
  42:libDaisy/src/hid/gatein.h ****     bool Trig();
  43:libDaisy/src/hid/gatein.h **** 
  44:libDaisy/src/hid/gatein.h ****     /** State
  45:libDaisy/src/hid/gatein.h ****     Checks current state of gate input (no state required)
  46:libDaisy/src/hid/gatein.h **** 
  47:libDaisy/src/hid/gatein.h ****     read function is inverted because of suggested BJT input circuit
  48:libDaisy/src/hid/gatein.h ****     */
  49:libDaisy/src/hid/gatein.h ****     inline bool State()
 2219              		.loc 13 49 17 view .LVU606
 2220              	.LBB749:
  50:libDaisy/src/hid/gatein.h ****     {
  51:libDaisy/src/hid/gatein.h ****         return invert_ ? !dsy_gpio_read(&pin_) : dsy_gpio_read(&pin_);
 2221              		.loc 13 51 9 view .LVU607
 2222              		.loc 13 51 63 is_stmt 0 view .LVU608
 2223 004a 4148     		ldr	r0, .L188+16
 2224 004c FFF7FEFF 		bl	dsy_gpio_read
 2225              	.LVL112:
 2226              		.loc 13 51 63 view .LVU609
 2227              	.LBE749:
 2228              	.LBE748:
 548:fjol.cpp      ****   {
 2229              		.loc 7 548 3 is_stmt 1 view .LVU610
 548:fjol.cpp      ****   {
 2230              		.loc 7 548 19 view .LVU611
 2231              		.loc 7 550 5 view .LVU612
 2232              	.LBB754:
  49:libDaisy/src/hid/gatein.h ****     {
 2233              		.loc 13 49 17 view .LVU613
 2234              	.LBB750:
 2235              		.loc 13 51 9 view .LVU614
 2236              		.loc 13 51 63 is_stmt 0 view .LVU615
 2237 0050 4048     		ldr	r0, .L188+20
 2238 0052 FFF7FEFF 		bl	dsy_gpio_read
 2239              	.LVL113:
 2240              		.loc 13 51 63 view .LVU616
 2241              	.LBE750:
ARM GAS  /tmp/cca3rxWD.s 			page 75


 2242              	.LBE754:
 548:fjol.cpp      ****   {
 2243              		.loc 7 548 3 is_stmt 1 view .LVU617
 548:fjol.cpp      ****   {
 2244              		.loc 7 548 19 view .LVU618
 2245              		.loc 7 550 5 view .LVU619
 2246              	.LBB755:
  49:libDaisy/src/hid/gatein.h ****     {
 2247              		.loc 13 49 17 view .LVU620
 2248              	.LBB751:
 2249              		.loc 13 51 9 view .LVU621
 2250              		.loc 13 51 63 is_stmt 0 view .LVU622
 2251 0056 4048     		ldr	r0, .L188+24
 2252 0058 FFF7FEFF 		bl	dsy_gpio_read
 2253              	.LVL114:
 2254              		.loc 13 51 63 view .LVU623
 2255              	.LBE751:
 2256              	.LBE755:
 548:fjol.cpp      ****   {
 2257              		.loc 7 548 3 is_stmt 1 view .LVU624
 548:fjol.cpp      ****   {
 2258              		.loc 7 548 19 view .LVU625
 2259              		.loc 7 550 5 view .LVU626
 2260              	.LBB756:
  49:libDaisy/src/hid/gatein.h ****     {
 2261              		.loc 13 49 17 view .LVU627
 2262              	.LBB752:
 2263              		.loc 13 51 9 view .LVU628
 2264              		.loc 13 51 63 is_stmt 0 view .LVU629
 2265 005c 3F48     		ldr	r0, .L188+28
 2266              	.LBE752:
 2267              	.LBE756:
 2268              	.LBE747:
 551:fjol.cpp      ****     {
 552:fjol.cpp      ****       //trigger envelope i
 553:fjol.cpp      ****     }
 554:fjol.cpp      ****     else
 555:fjol.cpp      ****     {
 556:fjol.cpp      ****       //stop envelope i
 557:fjol.cpp      ****     }
 558:fjol.cpp      ****   }
 559:fjol.cpp      **** }
 2269              		.loc 7 559 1 view .LVU630
 2270 005e BDE8F041 		pop	{r4, r5, r6, r7, r8, lr}
 2271              		.cfi_remember_state
 2272              		.cfi_restore 14
 2273              		.cfi_restore 8
 2274              		.cfi_restore 7
 2275              		.cfi_restore 6
 2276              		.cfi_restore 5
 2277              		.cfi_restore 4
 2278              		.cfi_def_cfa_offset 0
 2279              	.LVL115:
 2280              	.LBB758:
 2281              	.LBB757:
 2282              	.LBB753:
 2283              		.loc 13 51 63 view .LVU631
ARM GAS  /tmp/cca3rxWD.s 			page 76


 2284 0062 FFF7FEBF 		b	dsy_gpio_read
 2285              	.LVL116:
 2286              	.L149:
 2287              		.cfi_restore_state
 2288              		.loc 13 51 63 view .LVU632
 2289              	.LBE753:
 2290              	.LBE757:
 2291              	.LBE758:
 2292              	.LBB759:
 495:fjol.cpp      ****     if((shift_sw.Pressed() == false) && enc[i].enc.RisingEdge())
 2293              		.loc 7 495 24 view .LVU633
 2294 0066 2046     		mov	r0, r4
 2295 0068 0125     		movs	r5, #1
 2296              	.LVL117:
 495:fjol.cpp      ****     if((shift_sw.Pressed() == false) && enc[i].enc.RisingEdge())
 2297              		.loc 7 495 5 is_stmt 1 view .LVU634
 495:fjol.cpp      ****     if((shift_sw.Pressed() == false) && enc[i].enc.RisingEdge())
 2298              		.loc 7 495 24 is_stmt 0 view .LVU635
 2299 006a FFF7FEFF 		bl	_ZN5daisy7Encoder8DebounceEv
 2300              	.LVL118:
 496:fjol.cpp      ****     {
 2301              		.loc 7 496 5 is_stmt 1 view .LVU636
 2302              	.LBB734:
 2303              		.loc 1 79 17 view .LVU637
 2304              	.LBB729:
 2305              		.loc 1 79 35 view .LVU638
 2306              		.loc 1 79 35 is_stmt 0 view .LVU639
 2307              	.LBE729:
 2308              	.LBE734:
 496:fjol.cpp      ****     {
 2309              		.loc 7 496 38 view .LVU640
 2310 006e B37A     		ldrb	r3, [r6, #10]	@ zero_extendqisi2
 2311 0070 FF2B     		cmp	r3, #255
 2312 0072 D4D1     		bne	.L137
 2313              	.L144:
 2314              	.LVL119:
 2315              	.LBB735:
 2316              	.LBI735:
 2317              		.loc 12 39 17 is_stmt 1 view .LVU641
 2318              	.LBE735:
 2319              	.LBE759:
 2320              		.loc 12 39 38 view .LVU642
 2321              	.LBB760:
 2322              	.LBB738:
 2323              	.LBB736:
 2324              	.LBI736:
  70:libDaisy/src/hid/switch.h **** 
 2325              		.loc 1 70 17 view .LVU643
 2326              	.LBB737:
  70:libDaisy/src/hid/switch.h **** 
 2327              		.loc 1 70 38 view .LVU644
  70:libDaisy/src/hid/switch.h **** 
 2328              		.loc 1 70 54 is_stmt 0 view .LVU645
 2329 0074 237B     		ldrb	r3, [r4, #12]	@ zero_extendqisi2
 2330 0076 002B     		cmp	r3, #0
 2331 0078 D6D0     		beq	.L141
 2332              	.LVL120:
ARM GAS  /tmp/cca3rxWD.s 			page 77


  70:libDaisy/src/hid/switch.h **** 
 2333              		.loc 1 70 54 view .LVU646
 2334              	.LBE737:
 2335              	.LBE736:
 2336              	.LBE738:
 507:fjol.cpp      ****     {
 2337              		.loc 7 507 37 view .LVU647
 2338 007a A37C     		ldrb	r3, [r4, #18]	@ zero_extendqisi2
 2339 007c 7F2B     		cmp	r3, #127
 2340 007e D3D1     		bne	.L141
 509:fjol.cpp      ****       if(enc[i].ctlcvdest > 3 && i == 0){enc[i].ctlcvdest = 0;}
 2341              		.loc 7 509 7 is_stmt 1 view .LVU648
 509:fjol.cpp      ****       if(enc[i].ctlcvdest > 3 && i == 0){enc[i].ctlcvdest = 0;}
 2342              		.loc 7 509 42 is_stmt 0 view .LVU649
 2343 0080 94F82930 		ldrb	r3, [r4, #41]	@ zero_extendqisi2
 2344 0084 0133     		adds	r3, r3, #1
 2345 0086 DBB2     		uxtb	r3, r3
 510:fjol.cpp      ****       if(enc[i].ctlcvdest > 7 && i == 1){enc[i].ctlcvdest = 0;}
 2346              		.loc 7 510 31 view .LVU650
 2347 0088 032B     		cmp	r3, #3
 509:fjol.cpp      ****       if(enc[i].ctlcvdest > 3 && i == 0){enc[i].ctlcvdest = 0;}
 2348              		.loc 7 509 24 view .LVU651
 2349 008a 84F82930 		strb	r3, [r4, #41]
 510:fjol.cpp      ****       if(enc[i].ctlcvdest > 7 && i == 1){enc[i].ctlcvdest = 0;}
 2350              		.loc 7 510 7 is_stmt 1 view .LVU652
 510:fjol.cpp      ****       if(enc[i].ctlcvdest > 7 && i == 1){enc[i].ctlcvdest = 0;}
 2351              		.loc 7 510 31 is_stmt 0 view .LVU653
 2352 008e 01D9     		bls	.L145
 2353 0090 002D     		cmp	r5, #0
 2354 0092 4CD0     		beq	.L186
 2355              	.L145:
 511:fjol.cpp      ****       led_takeover = 1;
 2356              		.loc 7 511 7 is_stmt 1 view .LVU654
 511:fjol.cpp      ****       led_takeover = 1;
 2357              		.loc 7 511 31 is_stmt 0 view .LVU655
 2358 0094 072B     		cmp	r3, #7
 2359 0096 01D9     		bls	.L146
 2360 0098 002D     		cmp	r5, #0
 2361 009a 4CD1     		bne	.L187
 2362              	.L146:
 512:fjol.cpp      ****       ledlastmillis = System::GetNow();
 2363              		.loc 7 512 7 is_stmt 1 view .LVU656
 512:fjol.cpp      ****       ledlastmillis = System::GetNow();
 2364              		.loc 7 512 20 is_stmt 0 view .LVU657
 2365 009c 304B     		ldr	r3, .L188+32
 2366 009e 0122     		movs	r2, #1
 2367 00a0 1A70     		strb	r2, [r3]
 513:fjol.cpp      ****       led_menu_step(enc[i].ctlcvdest,red);
 2368              		.loc 7 513 7 is_stmt 1 view .LVU658
 513:fjol.cpp      ****       led_menu_step(enc[i].ctlcvdest,red);
 2369              		.loc 7 513 37 is_stmt 0 view .LVU659
 2370 00a2 FFF7FEFF 		bl	_ZN5daisy6System6GetNowEv
 2371              	.LVL121:
 513:fjol.cpp      ****       led_menu_step(enc[i].ctlcvdest,red);
 2372              		.loc 7 513 21 view .LVU660
 2373 00a6 2F4B     		ldr	r3, .L188+36
 514:fjol.cpp      ****       //getorsetsettings(1,0); 
ARM GAS  /tmp/cca3rxWD.s 			page 78


 2374              		.loc 7 514 20 view .LVU661
 2375 00a8 0221     		movs	r1, #2
 513:fjol.cpp      ****       led_menu_step(enc[i].ctlcvdest,red);
 2376              		.loc 7 513 21 view .LVU662
 2377 00aa 1860     		str	r0, [r3]
 514:fjol.cpp      ****       //getorsetsettings(1,0); 
 2378              		.loc 7 514 7 is_stmt 1 view .LVU663
 514:fjol.cpp      ****       //getorsetsettings(1,0); 
 2379              		.loc 7 514 20 is_stmt 0 view .LVU664
 2380 00ac 94F82900 		ldrb	r0, [r4, #41]	@ zero_extendqisi2
 2381 00b0 FFF7FEFF 		bl	_Z13led_menu_stephh
 2382              	.LVL122:
 2383 00b4 B8E7     		b	.L141
 2384              	.L184:
 498:fjol.cpp      ****       if(enc[i].ctldest > 3 && i == 0){enc[i].ctldest = 0;}
 2385              		.loc 7 498 7 is_stmt 1 view .LVU665
 498:fjol.cpp      ****       if(enc[i].ctldest > 3 && i == 0){enc[i].ctldest = 0;}
 2386              		.loc 7 498 38 is_stmt 0 view .LVU666
 2387 00b6 94F82830 		ldrb	r3, [r4, #40]	@ zero_extendqisi2
 2388 00ba 0133     		adds	r3, r3, #1
 2389 00bc DBB2     		uxtb	r3, r3
 498:fjol.cpp      ****       if(enc[i].ctldest > 3 && i == 0){enc[i].ctldest = 0;}
 2390              		.loc 7 498 22 view .LVU667
 2391 00be 84F82830 		strb	r3, [r4, #40]
 499:fjol.cpp      ****       if(enc[i].ctldest > 7 && i == 1){enc[i].ctldest = 0;}
 2392              		.loc 7 499 7 is_stmt 1 view .LVU668
 499:fjol.cpp      ****       if(enc[i].ctldest > 7 && i == 1){enc[i].ctldest = 0;}
 2393              		.loc 7 499 29 is_stmt 0 view .LVU669
 2394 00c2 B5B9     		cbnz	r5, .L142
 2395 00c4 032B     		cmp	r3, #3
 2396 00c6 14D9     		bls	.L142
 499:fjol.cpp      ****       if(enc[i].ctldest > 7 && i == 1){enc[i].ctldest = 0;}
 2397              		.loc 7 499 40 is_stmt 1 discriminator 2 view .LVU670
 499:fjol.cpp      ****       if(enc[i].ctldest > 7 && i == 1){enc[i].ctldest = 0;}
 2398              		.loc 7 499 55 is_stmt 0 discriminator 2 view .LVU671
 2399 00c8 0023     		movs	r3, #0
 2400 00ca 87F82830 		strb	r3, [r7, #40]
 500:fjol.cpp      ****       led_takeover = 1;
 2401              		.loc 7 500 7 is_stmt 1 discriminator 2 view .LVU672
 2402              	.L143:
 501:fjol.cpp      ****       ledlastmillis = System::GetNow();
 2403              		.loc 7 501 7 view .LVU673
 501:fjol.cpp      ****       ledlastmillis = System::GetNow();
 2404              		.loc 7 501 20 is_stmt 0 view .LVU674
 2405 00ce 244B     		ldr	r3, .L188+32
 2406 00d0 4FF00108 		mov	r8, #1
 2407 00d4 83F80080 		strb	r8, [r3]
 502:fjol.cpp      ****       led_menu_step(enc[i].ctldest,green);
 2408              		.loc 7 502 7 is_stmt 1 view .LVU675
 502:fjol.cpp      ****       led_menu_step(enc[i].ctldest,green);
 2409              		.loc 7 502 37 is_stmt 0 view .LVU676
 2410 00d8 FFF7FEFF 		bl	_ZN5daisy6System6GetNowEv
 2411              	.LVL123:
 502:fjol.cpp      ****       led_menu_step(enc[i].ctldest,green);
 2412              		.loc 7 502 21 view .LVU677
 2413 00dc 214B     		ldr	r3, .L188+36
 503:fjol.cpp      ****       //getorsetsettings(1,0); 
ARM GAS  /tmp/cca3rxWD.s 			page 79


 2414              		.loc 7 503 20 view .LVU678
 2415 00de 4146     		mov	r1, r8
 502:fjol.cpp      ****       led_menu_step(enc[i].ctldest,green);
 2416              		.loc 7 502 21 view .LVU679
 2417 00e0 1860     		str	r0, [r3]
 503:fjol.cpp      ****       //getorsetsettings(1,0); 
 2418              		.loc 7 503 7 is_stmt 1 view .LVU680
 503:fjol.cpp      ****       //getorsetsettings(1,0); 
 2419              		.loc 7 503 20 is_stmt 0 view .LVU681
 2420 00e2 94F82800 		ldrb	r0, [r4, #40]	@ zero_extendqisi2
 2421 00e6 FFF7FEFF 		bl	_Z13led_menu_stephh
 2422              	.LVL124:
 507:fjol.cpp      ****     {
 2423              		.loc 7 507 5 is_stmt 1 view .LVU682
 2424              	.LBB739:
 2425              	.LBI739:
 2426              		.loc 1 79 17 view .LVU683
 2427              	.LBB740:
 2428              		.loc 1 79 35 view .LVU684
 2429              		.loc 1 79 35 is_stmt 0 view .LVU685
 2430              	.LBE740:
 2431              	.LBE739:
 507:fjol.cpp      ****     {
 2432              		.loc 7 507 37 view .LVU686
 2433 00ea B37A     		ldrb	r3, [r6, #10]	@ zero_extendqisi2
 2434 00ec FF2B     		cmp	r3, #255
 2435 00ee 9BD1     		bne	.L141
 2436 00f0 C0E7     		b	.L144
 2437              	.L142:
 500:fjol.cpp      ****       led_takeover = 1;
 2438              		.loc 7 500 7 is_stmt 1 view .LVU687
 500:fjol.cpp      ****       led_takeover = 1;
 2439              		.loc 7 500 29 is_stmt 0 view .LVU688
 2440 00f2 072B     		cmp	r3, #7
 2441 00f4 EBD9     		bls	.L143
 2442 00f6 002D     		cmp	r5, #0
 2443 00f8 E9D0     		beq	.L143
 500:fjol.cpp      ****       led_takeover = 1;
 2444              		.loc 7 500 40 is_stmt 1 discriminator 2 view .LVU689
 500:fjol.cpp      ****       led_takeover = 1;
 2445              		.loc 7 500 55 is_stmt 0 discriminator 2 view .LVU690
 2446 00fa 0023     		movs	r3, #0
 2447 00fc 87F85430 		strb	r3, [r7, #84]
 2448 0100 E5E7     		b	.L143
 2449              	.LVL125:
 2450              	.L185:
 500:fjol.cpp      ****       led_takeover = 1;
 2451              		.loc 7 500 55 discriminator 2 view .LVU691
 2452              	.LBE760:
 522:fjol.cpp      ****     algo_select = DSY_CLAMP(algo_select,0,3);
 2453              		.loc 7 522 5 is_stmt 1 view .LVU692
 523:fjol.cpp      ****      //PM algorithm select
 2454              		.loc 7 523 5 view .LVU693
 523:fjol.cpp      ****      //PM algorithm select
 2455              		.loc 7 523 17 is_stmt 0 view .LVU694
 2456 0102 194C     		ldr	r4, .L188+40
 522:fjol.cpp      ****     algo_select = DSY_CLAMP(algo_select,0,3);
ARM GAS  /tmp/cca3rxWD.s 			page 80


 2457              		.loc 7 522 16 view .LVU695
 2458 0104 2378     		ldrb	r3, [r4]	@ zero_extendqisi2
 2459 0106 0133     		adds	r3, r3, #1
 523:fjol.cpp      ****      //PM algorithm select
 2460              		.loc 7 523 19 view .LVU696
 2461 0108 DBB2     		uxtb	r3, r3
 2462 010a 032B     		cmp	r3, #3
 2463 010c 28BF     		it	cs
 2464 010e 0323     		movcs	r3, #3
 523:fjol.cpp      ****      //PM algorithm select
 2465              		.loc 7 523 17 view .LVU697
 2466 0110 2370     		strb	r3, [r4]
 526:fjol.cpp      ****     led_takeover = 1;
 2467              		.loc 7 526 5 is_stmt 1 view .LVU698
 526:fjol.cpp      ****     led_takeover = 1;
 2468              		.loc 7 526 21 is_stmt 0 view .LVU699
 2469 0112 FFF7FEFF 		bl	_Z16select_algorithmv
 2470              	.LVL126:
 527:fjol.cpp      ****     ledlastmillis = System::GetNow();
 2471              		.loc 7 527 5 is_stmt 1 view .LVU700
 527:fjol.cpp      ****     ledlastmillis = System::GetNow();
 2472              		.loc 7 527 18 is_stmt 0 view .LVU701
 2473 0116 124B     		ldr	r3, .L188+32
 2474 0118 1D70     		strb	r5, [r3]
 528:fjol.cpp      ****     led_menu_step(algo_select,red);
 2475              		.loc 7 528 5 is_stmt 1 view .LVU702
 528:fjol.cpp      ****     led_menu_step(algo_select,red);
 2476              		.loc 7 528 35 is_stmt 0 view .LVU703
 2477 011a FFF7FEFF 		bl	_ZN5daisy6System6GetNowEv
 2478              	.LVL127:
 528:fjol.cpp      ****     led_menu_step(algo_select,red);
 2479              		.loc 7 528 19 view .LVU704
 2480 011e 114B     		ldr	r3, .L188+36
 528:fjol.cpp      ****     led_menu_step(algo_select,red);
 2481              		.loc 7 528 35 view .LVU705
 2482 0120 0246     		mov	r2, r0
 529:fjol.cpp      ****     //getorsetsettings(save); //save settings
 2483              		.loc 7 529 18 view .LVU706
 2484 0122 0221     		movs	r1, #2
 2485 0124 2078     		ldrb	r0, [r4]	@ zero_extendqisi2
 528:fjol.cpp      ****     led_menu_step(algo_select,red);
 2486              		.loc 7 528 19 view .LVU707
 2487 0126 1A60     		str	r2, [r3]
 529:fjol.cpp      ****     //getorsetsettings(save); //save settings
 2488              		.loc 7 529 5 is_stmt 1 view .LVU708
 529:fjol.cpp      ****     //getorsetsettings(save); //save settings
 2489              		.loc 7 529 18 is_stmt 0 view .LVU709
 2490 0128 FFF7FEFF 		bl	_Z13led_menu_stephh
 2491              	.LVL128:
 2492 012c 8AE7     		b	.L148
 2493              	.LVL129:
 2494              	.L186:
 2495              	.LBB761:
 510:fjol.cpp      ****       if(enc[i].ctlcvdest > 7 && i == 1){enc[i].ctlcvdest = 0;}
 2496              		.loc 7 510 42 is_stmt 1 discriminator 2 view .LVU710
 510:fjol.cpp      ****       if(enc[i].ctlcvdest > 7 && i == 1){enc[i].ctlcvdest = 0;}
 2497              		.loc 7 510 59 is_stmt 0 discriminator 2 view .LVU711
ARM GAS  /tmp/cca3rxWD.s 			page 81


 2498 012e 0023     		movs	r3, #0
 2499 0130 87F82930 		strb	r3, [r7, #41]
 511:fjol.cpp      ****       led_takeover = 1;
 2500              		.loc 7 511 7 is_stmt 1 discriminator 2 view .LVU712
 2501 0134 B2E7     		b	.L146
 2502              	.L187:
 511:fjol.cpp      ****       led_takeover = 1;
 2503              		.loc 7 511 42 discriminator 2 view .LVU713
 511:fjol.cpp      ****       led_takeover = 1;
 2504              		.loc 7 511 59 is_stmt 0 discriminator 2 view .LVU714
 2505 0136 0023     		movs	r3, #0
 2506 0138 87F85530 		strb	r3, [r7, #85]
 2507 013c AEE7     		b	.L146
 2508              	.L189:
 2509 013e 00BF     		.align	2
 2510              	.L188:
 2511 0140 00000000 		.word	.LANCHOR4
 2512 0144 00000000 		.word	.LANCHOR7
 2513 0148 00000000 		.word	.LANCHOR8
 2514 014c 00000000 		.word	.LANCHOR9
 2515 0150 00000000 		.word	.LANCHOR10
 2516 0154 07000000 		.word	.LANCHOR10+7
 2517 0158 0E000000 		.word	.LANCHOR10+14
 2518 015c 15000000 		.word	.LANCHOR10+21
 2519 0160 00000000 		.word	led_takeover
 2520 0164 00000000 		.word	ledlastmillis
 2521 0168 00000000 		.word	algo_select
 2522              	.LBE761:
 2523              		.cfi_endproc
 2524              	.LFE4828:
 2526              		.section	.text._Z14updatecontrolsv,"ax",%progbits
 2527              		.align	1
 2528              		.p2align 2,,3
 2529              		.global	_Z14updatecontrolsv
 2530              		.syntax unified
 2531              		.thumb
 2532              		.thumb_func
 2534              	_Z14updatecontrolsv:
 2535              	.LFB4826:
 442:fjol.cpp      ****   float temp = 0;
 2536              		.loc 7 442 1 is_stmt 1 view -0
 2537              		.cfi_startproc
 2538              		@ args = 0, pretend = 0, frame = 0
 2539              		@ frame_needed = 0, uses_anonymous_args = 0
 443:fjol.cpp      **** 
 2540              		.loc 7 443 3 view .LVU716
 2541              	.LVL130:
 445:fjol.cpp      ****   {
 2542              		.loc 7 445 3 view .LVU717
 2543              	.LBB762:
 445:fjol.cpp      ****   {
 2544              		.loc 7 445 18 view .LVU718
 2545              	.LBE762:
 442:fjol.cpp      ****   float temp = 0;
 2546              		.loc 7 442 1 is_stmt 0 view .LVU719
 2547 0000 38B5     		push	{r3, r4, r5, lr}
 2548              		.cfi_def_cfa_offset 16
ARM GAS  /tmp/cca3rxWD.s 			page 82


 2549              		.cfi_offset 3, -16
 2550              		.cfi_offset 4, -12
 2551              		.cfi_offset 5, -8
 2552              		.cfi_offset 14, -4
 2553 0002 174C     		ldr	r4, .L202
 2554 0004 2DED028B 		vpush.64	{d8}
 2555              		.cfi_def_cfa_offset 24
 2556              		.cfi_offset 80, -24
 2557              		.cfi_offset 81, -20
 2558 0008 04F15805 		add	r5, r4, #88
 443:fjol.cpp      **** 
 2559              		.loc 7 443 9 view .LVU720
 2560 000c 9FED158A 		vldr.32	s16, .L202+4
 2561              	.LVL131:
 2562              	.L194:
 2563              	.LBB771:
 447:fjol.cpp      ****     if(enc[i].enc.Pressed() == 0)
 2564              		.loc 7 447 5 is_stmt 1 view .LVU721
 447:fjol.cpp      ****     if(enc[i].enc.Pressed() == 0)
 2565              		.loc 7 447 24 is_stmt 0 view .LVU722
 2566 0010 2046     		mov	r0, r4
 2567 0012 FFF7FEFF 		bl	_ZN5daisy7Encoder8DebounceEv
 2568              	.LVL132:
 448:fjol.cpp      ****     {temp = encoder_read(enc[i].enc.Increment());}
 2569              		.loc 7 448 5 is_stmt 1 view .LVU723
 2570              	.LBB763:
 2571              	.LBI763:
  40:libDaisy/src/hid/encoder.h **** 
  41:libDaisy/src/hid/encoder.h ****     /** Returns true if the encoder was just released. */
  42:libDaisy/src/hid/encoder.h ****     inline bool FallingEdge() const { return sw_.FallingEdge(); }
  43:libDaisy/src/hid/encoder.h **** 
  44:libDaisy/src/hid/encoder.h ****     /** Returns true while the encoder is held down.*/
  45:libDaisy/src/hid/encoder.h ****     inline bool Pressed() const { return sw_.Pressed(); }
 2572              		.loc 12 45 17 view .LVU724
 2573              	.LBE763:
 2574              	.LBE771:
 2575              		.loc 12 45 35 view .LVU725
 2576              	.LBB772:
 2577              	.LBB766:
 2578              	.LBB764:
 2579              	.LBI764:
 2580              		.loc 1 79 17 view .LVU726
 2581              	.LBB765:
 2582              		.loc 1 79 35 view .LVU727
 2583              		.loc 1 79 35 is_stmt 0 view .LVU728
 2584              	.LBE765:
 2585              	.LBE764:
 2586              	.LBE766:
 449:fjol.cpp      ****     if(temp != 0)
 2587              		.loc 7 449 6 is_stmt 1 view .LVU729
 2588              	.LBB767:
 2589              	.LBI767:
  36:libDaisy/src/hid/encoder.h **** 
 2590              		.loc 12 36 20 view .LVU730
 2591              	.LBB768:
  36:libDaisy/src/hid/encoder.h **** 
 2592              		.loc 12 36 40 view .LVU731
ARM GAS  /tmp/cca3rxWD.s 			page 83


 2593              	.LBE768:
 2594              	.LBE767:
 448:fjol.cpp      ****     {temp = encoder_read(enc[i].enc.Increment());}
 2595              		.loc 7 448 5 is_stmt 0 view .LVU732
 2596 0016 A37C     		ldrb	r3, [r4, #18]	@ zero_extendqisi2
 2597 0018 FF2B     		cmp	r3, #255
 2598 001a 08D0     		beq	.L191
 2599              	.LBB770:
 2600              	.LBB769:
  36:libDaisy/src/hid/encoder.h **** 
 2601              		.loc 12 36 56 view .LVU733
 2602 001c 2379     		ldrb	r3, [r4, #4]	@ zero_extendqisi2
 2603 001e 1846     		mov	r0, r3
 2604 0020 0BB1     		cbz	r3, .L192
 2605              	.LBE769:
 2606              	.LBE770:
 449:fjol.cpp      ****     if(temp != 0)
 2607              		.loc 7 449 25 view .LVU734
 2608 0022 94F92400 		ldrsb	r0, [r4, #36]
 2609              	.L192:
 449:fjol.cpp      ****     if(temp != 0)
 2610              		.loc 7 449 25 view .LVU735
 2611 0026 FFF7FEFF 		bl	_Z12encoder_reada
 2612              	.LVL133:
 2613 002a B0EE408A 		vmov.f32	s16, s0
 2614              	.LVL134:
 2615              	.L191:
 450:fjol.cpp      ****     {update_params(enc[i].ctldest,temp,0);}
 2616              		.loc 7 450 5 is_stmt 1 view .LVU736
 2617 002e B5EE408A 		vcmp.f32	s16, #0
 2618 0032 F1EE10FA 		vmrs	APSR_nzcv, FPSCR
 2619 0036 0AD1     		bne	.L201
 2620              	.L193:
 445:fjol.cpp      ****   {
 2621              		.loc 7 445 3 discriminator 2 view .LVU737
 445:fjol.cpp      ****   {
 2622              		.loc 7 445 18 discriminator 2 view .LVU738
 2623 0038 2C34     		adds	r4, r4, #44
 2624 003a AC42     		cmp	r4, r5
 2625 003c E8D1     		bne	.L194
 2626              	.LBE772:
 454:fjol.cpp      ****   updateadc();
 2627              		.loc 7 454 3 view .LVU739
 454:fjol.cpp      ****   updateadc();
 2628              		.loc 7 454 17 is_stmt 0 view .LVU740
 2629 003e FFF7FEFF 		bl	_Z14updateSwitchesv
 2630              	.LVL135:
 455:fjol.cpp      **** }
 2631              		.loc 7 455 3 is_stmt 1 view .LVU741
 456:fjol.cpp      **** 
 2632              		.loc 7 456 1 is_stmt 0 view .LVU742
 2633 0042 BDEC028B 		vldm	sp!, {d8}
 2634              		.cfi_remember_state
 2635              		.cfi_restore 80
 2636              		.cfi_restore 81
 2637              		.cfi_def_cfa_offset 16
 2638              	.LVL136:
ARM GAS  /tmp/cca3rxWD.s 			page 84


 456:fjol.cpp      **** 
 2639              		.loc 7 456 1 view .LVU743
 2640 0046 BDE83840 		pop	{r3, r4, r5, lr}
 2641              		.cfi_restore 14
 2642              		.cfi_restore 5
 2643              		.cfi_restore 4
 2644              		.cfi_restore 3
 2645              		.cfi_def_cfa_offset 0
 455:fjol.cpp      **** }
 2646              		.loc 7 455 12 view .LVU744
 2647 004a FFF7FEBF 		b	_Z9updateadcv
 2648              	.LVL137:
 2649              	.L201:
 2650              		.cfi_restore_state
 2651              	.LBB773:
 451:fjol.cpp      ****   }
 2652              		.loc 7 451 6 is_stmt 1 view .LVU745
 451:fjol.cpp      ****   }
 2653              		.loc 7 451 19 is_stmt 0 view .LVU746
 2654 004e B0EE480A 		vmov.f32	s0, s16
 2655 0052 94F82800 		ldrb	r0, [r4, #40]	@ zero_extendqisi2
 2656 0056 DFED030A 		vldr.32	s1, .L202+4
 2657 005a FFF7FEFF 		bl	_Z13update_paramsiff
 2658              	.LVL138:
 2659 005e EBE7     		b	.L193
 2660              	.L203:
 2661              		.align	2
 2662              	.L202:
 2663 0060 00000000 		.word	.LANCHOR4
 2664 0064 00000000 		.word	0
 2665              	.LBE773:
 2666              		.cfi_endproc
 2667              	.LFE4826:
 2669              		.section	.text._Z15initializeaudiov,"ax",%progbits
 2670              		.align	1
 2671              		.p2align 2,,3
 2672              		.global	_Z15initializeaudiov
 2673              		.syntax unified
 2674              		.thumb
 2675              		.thumb_func
 2677              	_Z15initializeaudiov:
 2678              	.LFB4829:
 560:fjol.cpp      **** 
 561:fjol.cpp      **** void initializeaudio()
 562:fjol.cpp      **** {
 2679              		.loc 7 562 1 is_stmt 1 view -0
 2680              		.cfi_startproc
 2681              		@ args = 0, pretend = 0, frame = 0
 2682              		@ frame_needed = 0, uses_anonymous_args = 0
 563:fjol.cpp      **** 
 564:fjol.cpp      ****   //initialize operators and VCA envelopes
 565:fjol.cpp      ****   for(int i = 0;i<voicecount;i++)
 2683              		.loc 7 565 3 view .LVU748
 2684              	.LVL139:
 2685              	.LBB796:
 2686              		.loc 7 565 18 view .LVU749
 2687              	.LBE796:
ARM GAS  /tmp/cca3rxWD.s 			page 85


 562:fjol.cpp      **** 
 2688              		.loc 7 562 1 is_stmt 0 view .LVU750
 2689 0000 2DE9F84F 		push	{r3, r4, r5, r6, r7, r8, r9, r10, fp, lr}
 2690              		.cfi_def_cfa_offset 40
 2691              		.cfi_offset 3, -40
 2692              		.cfi_offset 4, -36
 2693              		.cfi_offset 5, -32
 2694              		.cfi_offset 6, -28
 2695              		.cfi_offset 7, -24
 2696              		.cfi_offset 8, -20
 2697              		.cfi_offset 9, -16
 2698              		.cfi_offset 10, -12
 2699              		.cfi_offset 11, -8
 2700              		.cfi_offset 14, -4
 2701              	.LBB839:
 566:fjol.cpp      ****   {
 567:fjol.cpp      ****     voice[i].op1.Init(samplerate);
 568:fjol.cpp      ****     voice[i].op2.Init(samplerate);
 569:fjol.cpp      ****     voice[i].op3.Init(samplerate);
 570:fjol.cpp      ****     voice[i].op1.SetWaveform(Oscillator::WAVE_SIN);
 571:fjol.cpp      ****     voice[i].op2.SetWaveform(Oscillator::WAVE_SIN);
 572:fjol.cpp      ****     voice[i].op3.SetWaveform(Oscillator::WAVE_SIN);
 573:fjol.cpp      ****     voice[i].op1.SetAmp(pm1amp);
 2702              		.loc 7 573 24 view .LVU751
 2703 0004 5A4B     		ldr	r3, .L208
 2704 0006 5B4C     		ldr	r4, .L208+4
 2705 0008 DFF88881 		ldr	r8, .L208+36
 2706 000c DFF88891 		ldr	r9, .L208+40
 2707 0010 04F5387B 		add	fp, r4, #736
 2708              	.LBE839:
 562:fjol.cpp      **** 
 2709              		.loc 7 562 1 view .LVU752
 2710 0014 2DED048B 		vpush.64	{d8, d9}
 2711              		.cfi_def_cfa_offset 56
 2712              		.cfi_offset 80, -56
 2713              		.cfi_offset 81, -52
 2714              		.cfi_offset 82, -48
 2715              		.cfi_offset 83, -44
 2716              	.LBB840:
 2717              		.loc 7 573 24 view .LVU753
 2718 0018 D3ED009A 		vldr.32	s19, [r3]
 2719              	.LVL140:
 2720              	.L205:
 567:fjol.cpp      ****     voice[i].op2.Init(samplerate);
 2721              		.loc 7 567 5 is_stmt 1 discriminator 2 view .LVU754
 2722              	.LBB797:
 2723              	.LBB798:
  45:DaisySP/Source/Synthesis/oscillator.h ****         freq_      = 100.0f;
 2724              		.loc 10 45 27 is_stmt 0 discriminator 2 view .LVU755
 2725 001c B7EE009A 		vmov.f32	s18, #1.0e+0
 2726              	.LBE798:
 2727              	.LBE797:
 567:fjol.cpp      ****     voice[i].op2.Init(samplerate);
 2728              		.loc 7 567 22 discriminator 2 view .LVU756
 2729 0020 D9ED007A 		vldr.32	s15, [r9]
 2730              	.LVL141:
 2731              	.LBB803:
ARM GAS  /tmp/cca3rxWD.s 			page 86


 2732              	.LBI797:
  42:DaisySP/Source/Synthesis/oscillator.h ****     {
 2733              		.loc 10 42 10 is_stmt 1 discriminator 2 view .LVU757
 2734              	.LBB799:
  44:DaisySP/Source/Synthesis/oscillator.h ****         sr_recip_  = 1.0f / sample_rate;
 2735              		.loc 10 44 9 discriminator 2 view .LVU758
  47:DaisySP/Source/Synthesis/oscillator.h ****         pw_        = 0.5f;
 2736              		.loc 10 47 20 is_stmt 0 discriminator 2 view .LVU759
 2737 0024 4FF07C56 		mov	r6, #1056964608
  46:DaisySP/Source/Synthesis/oscillator.h ****         amp_       = 0.5f;
 2738              		.loc 10 46 20 discriminator 2 view .LVU760
 2739 0028 9FED538A 		vldr.32	s16, .L208+8
  50:DaisySP/Source/Synthesis/oscillator.h ****         phase_inc_ = CalcPhaseInc(freq_);
 2740              		.loc 10 50 20 discriminator 2 view .LVU761
 2741 002c DFED538A 		vldr.32	s17, .L208+12
  51:DaisySP/Source/Synthesis/oscillator.h ****         waveform_  = WAVE_SIN;
 2742              		.loc 10 51 34 discriminator 2 view .LVU762
 2743 0030 A4F16000 		sub	r0, r4, #96
 2744              	.LVL142:
  45:DaisySP/Source/Synthesis/oscillator.h ****         freq_      = 100.0f;
 2745              		.loc 10 45 27 discriminator 2 view .LVU763
 2746 0034 89EE277A 		vdiv.f32	s14, s18, s15
  49:DaisySP/Source/Synthesis/oscillator.h ****         phase_     = 0.0f;
 2747              		.loc 10 49 20 discriminator 2 view .LVU764
 2748 0038 DFF860A1 		ldr	r10, .L208+44
  44:DaisySP/Source/Synthesis/oscillator.h ****         sr_recip_  = 1.0f / sample_rate;
 2749              		.loc 10 44 20 discriminator 2 view .LVU765
 2750 003c 44ED137A 		vstr.32	s15, [r4, #-76]
  45:DaisySP/Source/Synthesis/oscillator.h ****         freq_      = 100.0f;
 2751              		.loc 10 45 9 is_stmt 1 discriminator 2 view .LVU766
  53:DaisySP/Source/Synthesis/oscillator.h ****         eor_       = true;
 2752              		.loc 10 53 20 is_stmt 0 discriminator 2 view .LVU767
 2753 0040 0125     		movs	r5, #1
  50:DaisySP/Source/Synthesis/oscillator.h ****         phase_inc_ = CalcPhaseInc(freq_);
 2754              		.loc 10 50 20 discriminator 2 view .LVU768
 2755 0042 44ED118A 		vstr.32	s17, [r4, #-68]
  52:DaisySP/Source/Synthesis/oscillator.h ****         eoc_       = true;
 2756              		.loc 10 52 20 discriminator 2 view .LVU769
 2757 0046 0027     		movs	r7, #0
  46:DaisySP/Source/Synthesis/oscillator.h ****         amp_       = 0.5f;
 2758              		.loc 10 46 20 discriminator 2 view .LVU770
 2759 0048 04ED168A 		vstr.32	s16, [r4, #-88]
  47:DaisySP/Source/Synthesis/oscillator.h ****         pw_        = 0.5f;
 2760              		.loc 10 47 20 discriminator 2 view .LVU771
 2761 004c 44F85C6C 		str	r6, [r4, #-92]	@ float
  48:DaisySP/Source/Synthesis/oscillator.h ****         pw_rad_    = pw_ * TWOPI_F;
 2762              		.loc 10 48 20 discriminator 2 view .LVU772
 2763 0050 44F8546C 		str	r6, [r4, #-84]	@ float
  51:DaisySP/Source/Synthesis/oscillator.h ****         waveform_  = WAVE_SIN;
 2764              		.loc 10 51 34 discriminator 2 view .LVU773
 2765 0054 B0EE480A 		vmov.f32	s0, s16
  49:DaisySP/Source/Synthesis/oscillator.h ****         phase_     = 0.0f;
 2766              		.loc 10 49 20 discriminator 2 view .LVU774
 2767 0058 44F850AC 		str	r10, [r4, #-80]	@ float
  45:DaisySP/Source/Synthesis/oscillator.h ****         freq_      = 100.0f;
 2768              		.loc 10 45 20 discriminator 2 view .LVU775
 2769 005c 04ED127A 		vstr.32	s14, [r4, #-72]
ARM GAS  /tmp/cca3rxWD.s 			page 87


  46:DaisySP/Source/Synthesis/oscillator.h ****         amp_       = 0.5f;
 2770              		.loc 10 46 9 is_stmt 1 discriminator 2 view .LVU776
  47:DaisySP/Source/Synthesis/oscillator.h ****         pw_        = 0.5f;
 2771              		.loc 10 47 9 discriminator 2 view .LVU777
  48:DaisySP/Source/Synthesis/oscillator.h ****         pw_rad_    = pw_ * TWOPI_F;
 2772              		.loc 10 48 9 discriminator 2 view .LVU778
  49:DaisySP/Source/Synthesis/oscillator.h ****         phase_     = 0.0f;
 2773              		.loc 10 49 9 discriminator 2 view .LVU779
  50:DaisySP/Source/Synthesis/oscillator.h ****         phase_inc_ = CalcPhaseInc(freq_);
 2774              		.loc 10 50 9 discriminator 2 view .LVU780
  51:DaisySP/Source/Synthesis/oscillator.h ****         waveform_  = WAVE_SIN;
 2775              		.loc 10 51 9 discriminator 2 view .LVU781
  51:DaisySP/Source/Synthesis/oscillator.h ****         waveform_  = WAVE_SIN;
 2776              		.loc 10 51 34 is_stmt 0 discriminator 2 view .LVU782
 2777 0060 FFF7FEFF 		bl	_ZN7daisysp10Oscillator12CalcPhaseIncEf
 2778              	.LVL143:
  51:DaisySP/Source/Synthesis/oscillator.h ****         waveform_  = WAVE_SIN;
 2779              		.loc 10 51 34 discriminator 2 view .LVU783
 2780              	.LBE799:
 2781              	.LBE803:
 568:fjol.cpp      ****     voice[i].op3.Init(samplerate);
 2782              		.loc 7 568 22 discriminator 2 view .LVU784
 2783 0064 D9ED007A 		vldr.32	s15, [r9]
 2784              	.LBB804:
 2785              	.LBB800:
  51:DaisySP/Source/Synthesis/oscillator.h ****         waveform_  = WAVE_SIN;
 2786              		.loc 10 51 34 discriminator 2 view .LVU785
 2787 0068 F0EE406A 		vmov.f32	s13, s0
 2788              	.LBE800:
 2789              	.LBE804:
 2790              	.LBB805:
 2791              	.LBB806:
 2792 006c A4F13000 		sub	r0, r4, #48
  45:DaisySP/Source/Synthesis/oscillator.h ****         freq_      = 100.0f;
 2793              		.loc 10 45 27 discriminator 2 view .LVU786
 2794 0070 89EE277A 		vdiv.f32	s14, s18, s15
  44:DaisySP/Source/Synthesis/oscillator.h ****         sr_recip_  = 1.0f / sample_rate;
 2795              		.loc 10 44 20 discriminator 2 view .LVU787
 2796 0074 44ED077A 		vstr.32	s15, [r4, #-28]
 2797              	.LBE806:
 2798              	.LBE805:
 2799              	.LBB811:
 2800              	.LBB801:
  53:DaisySP/Source/Synthesis/oscillator.h ****         eor_       = true;
 2801              		.loc 10 53 20 discriminator 2 view .LVU788
 2802 0078 04F8335C 		strb	r5, [r4, #-51]
  51:DaisySP/Source/Synthesis/oscillator.h ****         waveform_  = WAVE_SIN;
 2803              		.loc 10 51 20 discriminator 2 view .LVU789
 2804 007c 44ED106A 		vstr.32	s13, [r4, #-64]
  52:DaisySP/Source/Synthesis/oscillator.h ****         eoc_       = true;
 2805              		.loc 10 52 9 is_stmt 1 discriminator 2 view .LVU790
  54:DaisySP/Source/Synthesis/oscillator.h ****     }
 2806              		.loc 10 54 20 is_stmt 0 discriminator 2 view .LVU791
 2807 0080 04F8345C 		strb	r5, [r4, #-52]
 2808              	.LBE801:
 2809              	.LBE811:
 2810              	.LBB812:
ARM GAS  /tmp/cca3rxWD.s 			page 88


 2811              	.LBB807:
  46:DaisySP/Source/Synthesis/oscillator.h ****         amp_       = 0.5f;
 2812              		.loc 10 46 20 discriminator 2 view .LVU792
 2813 0084 04ED0A8A 		vstr.32	s16, [r4, #-40]
  47:DaisySP/Source/Synthesis/oscillator.h ****         pw_        = 0.5f;
 2814              		.loc 10 47 20 discriminator 2 view .LVU793
 2815 0088 44F82C6C 		str	r6, [r4, #-44]	@ float
  51:DaisySP/Source/Synthesis/oscillator.h ****         waveform_  = WAVE_SIN;
 2816              		.loc 10 51 34 discriminator 2 view .LVU794
 2817 008c B0EE480A 		vmov.f32	s0, s16
  48:DaisySP/Source/Synthesis/oscillator.h ****         pw_rad_    = pw_ * TWOPI_F;
 2818              		.loc 10 48 20 discriminator 2 view .LVU795
 2819 0090 44F8246C 		str	r6, [r4, #-36]	@ float
  49:DaisySP/Source/Synthesis/oscillator.h ****         phase_     = 0.0f;
 2820              		.loc 10 49 20 discriminator 2 view .LVU796
 2821 0094 44F820AC 		str	r10, [r4, #-32]	@ float
  50:DaisySP/Source/Synthesis/oscillator.h ****         phase_inc_ = CalcPhaseInc(freq_);
 2822              		.loc 10 50 20 discriminator 2 view .LVU797
 2823 0098 44ED058A 		vstr.32	s17, [r4, #-20]
 2824              	.LBE807:
 2825              	.LBE812:
 2826              	.LBB813:
 2827              	.LBB802:
  52:DaisySP/Source/Synthesis/oscillator.h ****         eoc_       = true;
 2828              		.loc 10 52 20 discriminator 2 view .LVU798
 2829 009c 04F8607C 		strb	r7, [r4, #-96]
  53:DaisySP/Source/Synthesis/oscillator.h ****         eor_       = true;
 2830              		.loc 10 53 9 is_stmt 1 discriminator 2 view .LVU799
  54:DaisySP/Source/Synthesis/oscillator.h ****     }
 2831              		.loc 10 54 9 discriminator 2 view .LVU800
 2832              	.LVL144:
  54:DaisySP/Source/Synthesis/oscillator.h ****     }
 2833              		.loc 10 54 9 is_stmt 0 discriminator 2 view .LVU801
 2834              	.LBE802:
 2835              	.LBE813:
 568:fjol.cpp      ****     voice[i].op3.Init(samplerate);
 2836              		.loc 7 568 5 is_stmt 1 discriminator 2 view .LVU802
 2837              	.LBB814:
 2838              	.LBI805:
  42:DaisySP/Source/Synthesis/oscillator.h ****     {
 2839              		.loc 10 42 10 discriminator 2 view .LVU803
 2840              	.LBB808:
  44:DaisySP/Source/Synthesis/oscillator.h ****         sr_recip_  = 1.0f / sample_rate;
 2841              		.loc 10 44 9 discriminator 2 view .LVU804
  45:DaisySP/Source/Synthesis/oscillator.h ****         freq_      = 100.0f;
 2842              		.loc 10 45 9 discriminator 2 view .LVU805
  45:DaisySP/Source/Synthesis/oscillator.h ****         freq_      = 100.0f;
 2843              		.loc 10 45 20 is_stmt 0 discriminator 2 view .LVU806
 2844 00a0 04ED067A 		vstr.32	s14, [r4, #-24]
  46:DaisySP/Source/Synthesis/oscillator.h ****         amp_       = 0.5f;
 2845              		.loc 10 46 9 is_stmt 1 discriminator 2 view .LVU807
  47:DaisySP/Source/Synthesis/oscillator.h ****         pw_        = 0.5f;
 2846              		.loc 10 47 9 discriminator 2 view .LVU808
  48:DaisySP/Source/Synthesis/oscillator.h ****         pw_rad_    = pw_ * TWOPI_F;
 2847              		.loc 10 48 9 discriminator 2 view .LVU809
  49:DaisySP/Source/Synthesis/oscillator.h ****         phase_     = 0.0f;
 2848              		.loc 10 49 9 discriminator 2 view .LVU810
ARM GAS  /tmp/cca3rxWD.s 			page 89


  50:DaisySP/Source/Synthesis/oscillator.h ****         phase_inc_ = CalcPhaseInc(freq_);
 2849              		.loc 10 50 9 discriminator 2 view .LVU811
  51:DaisySP/Source/Synthesis/oscillator.h ****         waveform_  = WAVE_SIN;
 2850              		.loc 10 51 9 discriminator 2 view .LVU812
  51:DaisySP/Source/Synthesis/oscillator.h ****         waveform_  = WAVE_SIN;
 2851              		.loc 10 51 34 is_stmt 0 discriminator 2 view .LVU813
 2852 00a4 FFF7FEFF 		bl	_ZN7daisysp10Oscillator12CalcPhaseIncEf
 2853              	.LVL145:
  51:DaisySP/Source/Synthesis/oscillator.h ****         waveform_  = WAVE_SIN;
 2854              		.loc 10 51 34 discriminator 2 view .LVU814
 2855              	.LBE808:
 2856              	.LBE814:
 569:fjol.cpp      ****     voice[i].op1.SetWaveform(Oscillator::WAVE_SIN);
 2857              		.loc 7 569 22 discriminator 2 view .LVU815
 2858 00a8 D9ED007A 		vldr.32	s15, [r9]
 2859              	.LBB815:
 2860              	.LBB809:
  51:DaisySP/Source/Synthesis/oscillator.h ****         waveform_  = WAVE_SIN;
 2861              		.loc 10 51 34 discriminator 2 view .LVU816
 2862 00ac F0EE406A 		vmov.f32	s13, s0
 2863              	.LBE809:
 2864              	.LBE815:
 2865              	.LBB816:
 2866              	.LBB817:
 2867 00b0 2046     		mov	r0, r4
  45:DaisySP/Source/Synthesis/oscillator.h ****         freq_      = 100.0f;
 2868              		.loc 10 45 27 discriminator 2 view .LVU817
 2869 00b2 89EE277A 		vdiv.f32	s14, s18, s15
  44:DaisySP/Source/Synthesis/oscillator.h ****         sr_recip_  = 1.0f / sample_rate;
 2870              		.loc 10 44 20 discriminator 2 view .LVU818
 2871 00b6 C4ED057A 		vstr.32	s15, [r4, #20]
 2872              	.LBE817:
 2873              	.LBE816:
 2874              	.LBB821:
 2875              	.LBB810:
  52:DaisySP/Source/Synthesis/oscillator.h ****         eoc_       = true;
 2876              		.loc 10 52 20 discriminator 2 view .LVU819
 2877 00ba 04F8307C 		strb	r7, [r4, #-48]
  51:DaisySP/Source/Synthesis/oscillator.h ****         waveform_  = WAVE_SIN;
 2878              		.loc 10 51 20 discriminator 2 view .LVU820
 2879 00be 44ED046A 		vstr.32	s13, [r4, #-16]
  52:DaisySP/Source/Synthesis/oscillator.h ****         eoc_       = true;
 2880              		.loc 10 52 9 is_stmt 1 discriminator 2 view .LVU821
  53:DaisySP/Source/Synthesis/oscillator.h ****         eor_       = true;
 2881              		.loc 10 53 9 discriminator 2 view .LVU822
  53:DaisySP/Source/Synthesis/oscillator.h ****         eor_       = true;
 2882              		.loc 10 53 20 is_stmt 0 discriminator 2 view .LVU823
 2883 00c2 04F8035C 		strb	r5, [r4, #-3]
  54:DaisySP/Source/Synthesis/oscillator.h ****     }
 2884              		.loc 10 54 9 is_stmt 1 discriminator 2 view .LVU824
  54:DaisySP/Source/Synthesis/oscillator.h ****     }
 2885              		.loc 10 54 20 is_stmt 0 discriminator 2 view .LVU825
 2886 00c6 04F8045C 		strb	r5, [r4, #-4]
 2887              	.LVL146:
  54:DaisySP/Source/Synthesis/oscillator.h ****     }
 2888              		.loc 10 54 20 discriminator 2 view .LVU826
 2889              	.LBE810:
ARM GAS  /tmp/cca3rxWD.s 			page 90


 2890              	.LBE821:
 569:fjol.cpp      ****     voice[i].op1.SetWaveform(Oscillator::WAVE_SIN);
 2891              		.loc 7 569 5 is_stmt 1 discriminator 2 view .LVU827
 2892              	.LBB822:
 2893              	.LBI816:
  42:DaisySP/Source/Synthesis/oscillator.h ****     {
 2894              		.loc 10 42 10 discriminator 2 view .LVU828
 2895              	.LBB818:
  44:DaisySP/Source/Synthesis/oscillator.h ****         sr_recip_  = 1.0f / sample_rate;
 2896              		.loc 10 44 9 discriminator 2 view .LVU829
  45:DaisySP/Source/Synthesis/oscillator.h ****         freq_      = 100.0f;
 2897              		.loc 10 45 9 discriminator 2 view .LVU830
  46:DaisySP/Source/Synthesis/oscillator.h ****         amp_       = 0.5f;
 2898              		.loc 10 46 20 is_stmt 0 discriminator 2 view .LVU831
 2899 00ca 84ED028A 		vstr.32	s16, [r4, #8]
  51:DaisySP/Source/Synthesis/oscillator.h ****         waveform_  = WAVE_SIN;
 2900              		.loc 10 51 34 discriminator 2 view .LVU832
 2901 00ce B0EE480A 		vmov.f32	s0, s16
  47:DaisySP/Source/Synthesis/oscillator.h ****         pw_        = 0.5f;
 2902              		.loc 10 47 20 discriminator 2 view .LVU833
 2903 00d2 6660     		str	r6, [r4, #4]	@ float
  48:DaisySP/Source/Synthesis/oscillator.h ****         pw_rad_    = pw_ * TWOPI_F;
 2904              		.loc 10 48 20 discriminator 2 view .LVU834
 2905 00d4 E660     		str	r6, [r4, #12]	@ float
  49:DaisySP/Source/Synthesis/oscillator.h ****         phase_     = 0.0f;
 2906              		.loc 10 49 20 discriminator 2 view .LVU835
 2907 00d6 C4F810A0 		str	r10, [r4, #16]	@ float
  50:DaisySP/Source/Synthesis/oscillator.h ****         phase_inc_ = CalcPhaseInc(freq_);
 2908              		.loc 10 50 20 discriminator 2 view .LVU836
 2909 00da C4ED078A 		vstr.32	s17, [r4, #28]
  45:DaisySP/Source/Synthesis/oscillator.h ****         freq_      = 100.0f;
 2910              		.loc 10 45 20 discriminator 2 view .LVU837
 2911 00de 84ED067A 		vstr.32	s14, [r4, #24]
  46:DaisySP/Source/Synthesis/oscillator.h ****         amp_       = 0.5f;
 2912              		.loc 10 46 9 is_stmt 1 discriminator 2 view .LVU838
  47:DaisySP/Source/Synthesis/oscillator.h ****         pw_        = 0.5f;
 2913              		.loc 10 47 9 discriminator 2 view .LVU839
  48:DaisySP/Source/Synthesis/oscillator.h ****         pw_rad_    = pw_ * TWOPI_F;
 2914              		.loc 10 48 9 discriminator 2 view .LVU840
  49:DaisySP/Source/Synthesis/oscillator.h ****         phase_     = 0.0f;
 2915              		.loc 10 49 9 discriminator 2 view .LVU841
  50:DaisySP/Source/Synthesis/oscillator.h ****         phase_inc_ = CalcPhaseInc(freq_);
 2916              		.loc 10 50 9 discriminator 2 view .LVU842
  51:DaisySP/Source/Synthesis/oscillator.h ****         waveform_  = WAVE_SIN;
 2917              		.loc 10 51 9 discriminator 2 view .LVU843
  51:DaisySP/Source/Synthesis/oscillator.h ****         waveform_  = WAVE_SIN;
 2918              		.loc 10 51 34 is_stmt 0 discriminator 2 view .LVU844
 2919 00e2 FFF7FEFF 		bl	_ZN7daisysp10Oscillator12CalcPhaseIncEf
 2920              	.LVL147:
  51:DaisySP/Source/Synthesis/oscillator.h ****         waveform_  = WAVE_SIN;
 2921              		.loc 10 51 34 discriminator 2 view .LVU845
 2922 00e6 F0EE407A 		vmov.f32	s15, s0
 2923              	.LBE818:
 2924              	.LBE822:
 574:fjol.cpp      ****     envelope[i].env.Init(samplerate);
 2925              		.loc 7 574 25 discriminator 2 view .LVU846
 2926 00ea 4046     		mov	r0, r8
ARM GAS  /tmp/cca3rxWD.s 			page 91


 2927              	.LBB823:
 2928              	.LBB819:
  52:DaisySP/Source/Synthesis/oscillator.h ****         eoc_       = true;
 2929              		.loc 10 52 20 discriminator 2 view .LVU847
 2930 00ec 2770     		strb	r7, [r4]
  53:DaisySP/Source/Synthesis/oscillator.h ****         eor_       = true;
 2931              		.loc 10 53 20 discriminator 2 view .LVU848
 2932 00ee 84F82D50 		strb	r5, [r4, #45]
 2933              	.LBE819:
 2934              	.LBE823:
 2935              		.loc 7 574 25 discriminator 2 view .LVU849
 2936 00f2 2946     		mov	r1, r5
 2937              	.LBB824:
 2938              	.LBB820:
  51:DaisySP/Source/Synthesis/oscillator.h ****         waveform_  = WAVE_SIN;
 2939              		.loc 10 51 20 discriminator 2 view .LVU850
 2940 00f4 C4ED087A 		vstr.32	s15, [r4, #32]
  52:DaisySP/Source/Synthesis/oscillator.h ****         eoc_       = true;
 2941              		.loc 10 52 9 is_stmt 1 discriminator 2 view .LVU851
  53:DaisySP/Source/Synthesis/oscillator.h ****         eor_       = true;
 2942              		.loc 10 53 9 discriminator 2 view .LVU852
  54:DaisySP/Source/Synthesis/oscillator.h ****     }
 2943              		.loc 10 54 9 discriminator 2 view .LVU853
  54:DaisySP/Source/Synthesis/oscillator.h ****     }
 2944              		.loc 10 54 20 is_stmt 0 discriminator 2 view .LVU854
 2945 00f8 84F82C50 		strb	r5, [r4, #44]
 2946              	.LVL148:
  54:DaisySP/Source/Synthesis/oscillator.h ****     }
 2947              		.loc 10 54 20 discriminator 2 view .LVU855
 2948              	.LBE820:
 2949              	.LBE824:
 570:fjol.cpp      ****     voice[i].op2.SetWaveform(Oscillator::WAVE_SIN);
 2950              		.loc 7 570 5 is_stmt 1 discriminator 2 view .LVU856
 2951              	.LBB825:
 2952              	.LBI825:
  72:DaisySP/Source/Synthesis/oscillator.h ****     {
 2953              		.loc 10 72 17 discriminator 2 view .LVU857
 2954              	.LBB826:
  74:DaisySP/Source/Synthesis/oscillator.h ****     }
 2955              		.loc 10 74 9 discriminator 2 view .LVU858
 2956              	.LBE826:
 2957              	.LBE825:
 2958              	.LBB828:
 2959              	.LBB829:
  74:DaisySP/Source/Synthesis/oscillator.h ****     }
 2960              		.loc 10 74 19 is_stmt 0 discriminator 2 view .LVU859
 2961 00fc 04F8307C 		strb	r7, [r4, #-48]
 2962              	.LBE829:
 2963              	.LBE828:
 2964              		.loc 7 574 25 discriminator 2 view .LVU860
 2965 0100 99ED000A 		vldr.32	s0, [r9]
 2966              	.LBB831:
 2967              	.LBB827:
  74:DaisySP/Source/Synthesis/oscillator.h ****     }
 2968              		.loc 10 74 19 discriminator 2 view .LVU861
 2969 0104 04F8607C 		strb	r7, [r4, #-96]
 2970              	.LVL149:
ARM GAS  /tmp/cca3rxWD.s 			page 92


  74:DaisySP/Source/Synthesis/oscillator.h ****     }
 2971              		.loc 10 74 19 discriminator 2 view .LVU862
 2972              	.LBE827:
 2973              	.LBE831:
 571:fjol.cpp      ****     voice[i].op3.SetWaveform(Oscillator::WAVE_SIN);
 2974              		.loc 7 571 5 is_stmt 1 discriminator 2 view .LVU863
 2975              	.LBB832:
 2976              	.LBI828:
  72:DaisySP/Source/Synthesis/oscillator.h ****     {
 2977              		.loc 10 72 17 discriminator 2 view .LVU864
 2978              	.LBB830:
  74:DaisySP/Source/Synthesis/oscillator.h ****     }
 2979              		.loc 10 74 9 discriminator 2 view .LVU865
  74:DaisySP/Source/Synthesis/oscillator.h ****     }
 2980              		.loc 10 74 9 is_stmt 0 discriminator 2 view .LVU866
 2981              	.LBE830:
 2982              	.LBE832:
 572:fjol.cpp      ****     voice[i].op1.SetAmp(pm1amp);
 2983              		.loc 7 572 5 is_stmt 1 discriminator 2 view .LVU867
 572:fjol.cpp      ****     voice[i].op1.SetAmp(pm1amp);
 2984              		.loc 7 572 5 is_stmt 0 discriminator 2 view .LVU868
 2985              	.LBE840:
  74:DaisySP/Source/Synthesis/oscillator.h ****     }
 2986              		.loc 10 74 9 is_stmt 1 discriminator 2 view .LVU869
 2987              	.LBB841:
 573:fjol.cpp      ****     envelope[i].env.Init(samplerate);
 2988              		.loc 7 573 5 discriminator 2 view .LVU870
 2989              	.LBB833:
 2990              	.LBI833:
  69:DaisySP/Source/Synthesis/oscillator.h ****     /** Sets the waveform to be synthesized by the Process() function.
 2991              		.loc 10 69 17 discriminator 2 view .LVU871
 2992              	.LBB834:
  69:DaisySP/Source/Synthesis/oscillator.h ****     /** Sets the waveform to be synthesized by the Process() function.
 2993              		.loc 10 69 41 discriminator 2 view .LVU872
  69:DaisySP/Source/Synthesis/oscillator.h ****     /** Sets the waveform to be synthesized by the Process() function.
 2994              		.loc 10 69 46 is_stmt 0 discriminator 2 view .LVU873
 2995 0108 44ED179A 		vstr.32	s19, [r4, #-92]
 2996              	.LVL150:
  69:DaisySP/Source/Synthesis/oscillator.h ****     /** Sets the waveform to be synthesized by the Process() function.
 2997              		.loc 10 69 46 discriminator 2 view .LVU874
 2998              	.LBE834:
 2999              	.LBE833:
 3000              		.loc 7 574 5 is_stmt 1 discriminator 2 view .LVU875
 565:fjol.cpp      ****   {
 3001              		.loc 7 565 18 is_stmt 0 discriminator 2 view .LVU876
 3002 010c B834     		adds	r4, r4, #184
 3003              		.loc 7 574 25 discriminator 2 view .LVU877
 3004 010e FFF7FEFF 		bl	_ZN7daisysp4Adsr4InitEfi
 3005              	.LVL151:
 575:fjol.cpp      ****     envelope[i].env.SetSustainLevel(1);
 3006              		.loc 7 575 5 is_stmt 1 discriminator 2 view .LVU878
 3007              	.LBB835:
 3008              	.LBI835:
 3009              		.file 14 "DaisySP/Source/Control/adsr.h"
   1:DaisySP/Source/Control/adsr.h **** #pragma once
   2:DaisySP/Source/Control/adsr.h **** #ifndef DSY_ADSR_H
   3:DaisySP/Source/Control/adsr.h **** #define DSY_ADSR_H
ARM GAS  /tmp/cca3rxWD.s 			page 93


   4:DaisySP/Source/Control/adsr.h **** 
   5:DaisySP/Source/Control/adsr.h **** #include <stdint.h>
   6:DaisySP/Source/Control/adsr.h **** #ifdef __cplusplus
   7:DaisySP/Source/Control/adsr.h **** 
   8:DaisySP/Source/Control/adsr.h **** namespace daisysp
   9:DaisySP/Source/Control/adsr.h **** {
  10:DaisySP/Source/Control/adsr.h **** /** Distinct stages that the phase of the envelope can be located in.
  11:DaisySP/Source/Control/adsr.h **** - IDLE   = located at phase location 0, and not currently running
  12:DaisySP/Source/Control/adsr.h **** - ATTACK  = First segment of envelope where phase moves from 0 to 1
  13:DaisySP/Source/Control/adsr.h **** - DECAY   = Second segment of envelope where phase moves from 1 to SUSTAIN value
  14:DaisySP/Source/Control/adsr.h **** - RELEASE =     Fourth segment of envelop where phase moves from SUSTAIN to 0
  15:DaisySP/Source/Control/adsr.h **** */
  16:DaisySP/Source/Control/adsr.h **** enum
  17:DaisySP/Source/Control/adsr.h **** {
  18:DaisySP/Source/Control/adsr.h ****     ADSR_SEG_IDLE    = 0,
  19:DaisySP/Source/Control/adsr.h ****     ADSR_SEG_ATTACK  = 1,
  20:DaisySP/Source/Control/adsr.h ****     ADSR_SEG_DECAY   = 2,
  21:DaisySP/Source/Control/adsr.h ****     ADSR_SEG_RELEASE = 4
  22:DaisySP/Source/Control/adsr.h **** };
  23:DaisySP/Source/Control/adsr.h **** 
  24:DaisySP/Source/Control/adsr.h **** 
  25:DaisySP/Source/Control/adsr.h **** /** adsr envelope module
  26:DaisySP/Source/Control/adsr.h **** 
  27:DaisySP/Source/Control/adsr.h **** Original author(s) : Paul Batchelor
  28:DaisySP/Source/Control/adsr.h **** 
  29:DaisySP/Source/Control/adsr.h **** Ported from Soundpipe by Ben Sergentanis, May 2020
  30:DaisySP/Source/Control/adsr.h ****  
  31:DaisySP/Source/Control/adsr.h **** Remake by Steffan DIedrichsen, May 2021
  32:DaisySP/Source/Control/adsr.h **** */
  33:DaisySP/Source/Control/adsr.h **** class Adsr
  34:DaisySP/Source/Control/adsr.h **** {
  35:DaisySP/Source/Control/adsr.h ****   public:
  36:DaisySP/Source/Control/adsr.h ****     Adsr() {}
  37:DaisySP/Source/Control/adsr.h ****     ~Adsr() {}
  38:DaisySP/Source/Control/adsr.h ****     /** Initializes the Adsr module.
  39:DaisySP/Source/Control/adsr.h ****         \param sample_rate - The sample rate of the audio engine being run. 
  40:DaisySP/Source/Control/adsr.h ****     */
  41:DaisySP/Source/Control/adsr.h ****     void Init(float sample_rate, int blockSize = 1);
  42:DaisySP/Source/Control/adsr.h ****     /**
  43:DaisySP/Source/Control/adsr.h ****      \function Retrigger forces the envelope back to attack phase
  44:DaisySP/Source/Control/adsr.h ****      \param hard  resets the history to zero, results in a click.
  45:DaisySP/Source/Control/adsr.h ****      */
  46:DaisySP/Source/Control/adsr.h ****     void Retrigger(bool hard);
  47:DaisySP/Source/Control/adsr.h ****     /** Processes one sample through the filter and returns one sample.
  48:DaisySP/Source/Control/adsr.h ****         \param gate - trigger the envelope, hold it to sustain 
  49:DaisySP/Source/Control/adsr.h ****     */
  50:DaisySP/Source/Control/adsr.h ****     float Process(bool gate);
  51:DaisySP/Source/Control/adsr.h ****     /** Sets time
  52:DaisySP/Source/Control/adsr.h ****         Set time per segment in seconds
  53:DaisySP/Source/Control/adsr.h ****     */
  54:DaisySP/Source/Control/adsr.h ****     void SetTime(int seg, float time);
  55:DaisySP/Source/Control/adsr.h ****     void SetAttackTime(float timeInS, float shape = 0.0f);
  56:DaisySP/Source/Control/adsr.h ****     void SetDecayTime(float timeInS);
  57:DaisySP/Source/Control/adsr.h ****     void SetReleaseTime(float timeInS);
  58:DaisySP/Source/Control/adsr.h **** 
  59:DaisySP/Source/Control/adsr.h ****   private:
  60:DaisySP/Source/Control/adsr.h ****     void SetTimeConstant(float timeInS, float& time, float& coeff);
ARM GAS  /tmp/cca3rxWD.s 			page 94


  61:DaisySP/Source/Control/adsr.h **** 
  62:DaisySP/Source/Control/adsr.h ****   public:
  63:DaisySP/Source/Control/adsr.h ****     /** Sustain level
  64:DaisySP/Source/Control/adsr.h ****         \param sus_level - sets sustain level, 0...1.0
  65:DaisySP/Source/Control/adsr.h ****     */
  66:DaisySP/Source/Control/adsr.h ****     inline void SetSustainLevel(float sus_level)
 3010              		.loc 14 66 17 discriminator 2 view .LVU879
 3011              	.LBB836:
  67:DaisySP/Source/Control/adsr.h ****     {
  68:DaisySP/Source/Control/adsr.h ****         sus_level = (sus_level <= 0.f) ? -0.01f // forces envelope into idle
 3012              		.loc 14 68 9 discriminator 2 view .LVU880
  69:DaisySP/Source/Control/adsr.h ****                                        : (sus_level > 1.f) ? 1.f : sus_level;
  70:DaisySP/Source/Control/adsr.h ****         sus_level_ = sus_level;
 3013              		.loc 14 70 9 discriminator 2 view .LVU881
 3014              	.LBE836:
 3015              	.LBE835:
 576:fjol.cpp      ****     envelope[i].env.SetDecayTime(0);
 3016              		.loc 7 576 33 is_stmt 0 discriminator 2 view .LVU882
 3017 0112 4046     		mov	r0, r8
 3018 0114 B0EE680A 		vmov.f32	s0, s17
 3019              	.LBB838:
 3020              	.LBB837:
 3021              		.loc 14 70 20 discriminator 2 view .LVU883
 3022 0118 88ED009A 		vstr.32	s18, [r8]
 3023              	.LVL152:
 3024              		.loc 14 70 20 discriminator 2 view .LVU884
 3025              	.LBE837:
 3026              	.LBE838:
 3027              		.loc 7 576 5 is_stmt 1 discriminator 2 view .LVU885
 3028              		.loc 7 576 33 is_stmt 0 discriminator 2 view .LVU886
 3029 011c FFF7FEFF 		bl	_ZN7daisysp4Adsr12SetDecayTimeEf
 3030              	.LVL153:
 565:fjol.cpp      ****   {
 3031              		.loc 7 565 3 is_stmt 1 discriminator 2 view .LVU887
 565:fjol.cpp      ****   {
 3032              		.loc 7 565 18 discriminator 2 view .LVU888
 3033 0120 5C45     		cmp	r4, fp
 3034 0122 08F14008 		add	r8, r8, #64
 3035 0126 7FF479AF 		bne	.L205
 3036              	.LBE841:
 577:fjol.cpp      ****   }
 578:fjol.cpp      **** 
 579:fjol.cpp      ****   filtenvelope.env.Init(samplerate);
 3037              		.loc 7 579 3 view .LVU889
 3038              		.loc 7 579 24 is_stmt 0 view .LVU890
 3039 012a 154C     		ldr	r4, .L208+16
 3040 012c 99ED000A 		vldr.32	s0, [r9]
 3041 0130 2046     		mov	r0, r4
 3042 0132 FFF7FEFF 		bl	_ZN7daisysp5AdEnv4InitEf
 3043              	.LVL154:
 580:fjol.cpp      ****   filtenvelope.env.SetCurve(50); //set curve to inbetween lin and log
 3044              		.loc 7 580 3 is_stmt 1 view .LVU891
 3045              	.LBB842:
 3046              	.LBI842:
  62:DaisySP/Source/Control/adenv.h ****     /** Sets the minimum value of the envelope output.
 3047              		.loc 8 62 17 view .LVU892
 3048              	.LBB843:
ARM GAS  /tmp/cca3rxWD.s 			page 95


  62:DaisySP/Source/Control/adenv.h ****     /** Sets the minimum value of the envelope output.
 3049              		.loc 8 62 42 view .LVU893
 3050              	.LBE843:
 3051              	.LBE842:
 3052              	.LBB846:
 3053              	.LBB847:
  66:DaisySP/Source/Control/adenv.h ****     /** Sets the maximum value of the envelope output.
 3054              		.loc 8 66 42 is_stmt 0 view .LVU894
 3055 0136 134B     		ldr	r3, .L208+20
 3056              	.LBE847:
 3057              	.LBE846:
 3058              	.LBB850:
 3059              	.LBB844:
  62:DaisySP/Source/Control/adenv.h ****     /** Sets the minimum value of the envelope output.
 3060              		.loc 8 62 56 view .LVU895
 3061 0138 134A     		ldr	r2, .L208+24
 3062              	.LBE844:
 3063              	.LBE850:
 3064              	.LBB851:
 3065              	.LBB848:
  66:DaisySP/Source/Control/adenv.h ****     /** Sets the maximum value of the envelope output.
 3066              		.loc 8 66 42 view .LVU896
 3067 013a 6361     		str	r3, [r4, #20]	@ float
 3068              	.LBE848:
 3069              	.LBE851:
 3070              	.LBB852:
 3071              	.LBB845:
  62:DaisySP/Source/Control/adenv.h ****     /** Sets the minimum value of the envelope output.
 3072              		.loc 8 62 56 view .LVU897
 3073 013c 2262     		str	r2, [r4, #32]	@ float
 3074              	.LVL155:
  62:DaisySP/Source/Control/adenv.h ****     /** Sets the minimum value of the envelope output.
 3075              		.loc 8 62 56 view .LVU898
 3076              	.LBE845:
 3077              	.LBE852:
 581:fjol.cpp      ****   filtenvelope.env.SetMin(0.001); //set it to minimum 20hz
 3078              		.loc 7 581 3 is_stmt 1 view .LVU899
 3079              	.LBB853:
 3080              	.LBI846:
  66:DaisySP/Source/Control/adenv.h ****     /** Sets the maximum value of the envelope output.
 3081              		.loc 8 66 17 view .LVU900
 3082              	.LBB849:
  66:DaisySP/Source/Control/adenv.h ****     /** Sets the maximum value of the envelope output.
 3083              		.loc 8 66 37 view .LVU901
  66:DaisySP/Source/Control/adenv.h ****     /** Sets the maximum value of the envelope output.
 3084              		.loc 8 66 37 is_stmt 0 view .LVU902
 3085              	.LBE849:
 3086              	.LBE853:
 582:fjol.cpp      **** 
 583:fjol.cpp      ****   //initialize filters
 584:fjol.cpp      ****   for(int i = 0;i<2;i++)
 3087              		.loc 7 584 3 is_stmt 1 view .LVU903
 3088              	.LBB854:
 3089              		.loc 7 584 18 view .LVU904
 585:fjol.cpp      ****   {
 586:fjol.cpp      ****     stfilter[i].filter.Init(samplerate);
 3090              		.loc 7 586 5 view .LVU905
ARM GAS  /tmp/cca3rxWD.s 			page 96


 3091              		.loc 7 586 28 is_stmt 0 view .LVU906
 3092 013e 99ED000A 		vldr.32	s0, [r9]
 3093 0142 1248     		ldr	r0, .L208+28
 3094 0144 FFF7FEFF 		bl	_ZN7daisysp3Svf4InitEf
 3095              	.LVL156:
 587:fjol.cpp      ****     stfilter[i].filter.SetDrive(0);
 3096              		.loc 7 587 5 is_stmt 1 view .LVU907
 3097              		.loc 7 587 32 is_stmt 0 view .LVU908
 3098 0148 B0EE680A 		vmov.f32	s0, s17
 3099 014c 0F48     		ldr	r0, .L208+28
 3100 014e FFF7FEFF 		bl	_ZN7daisysp3Svf8SetDriveEf
 3101              	.LVL157:
 584:fjol.cpp      ****   {
 3102              		.loc 7 584 3 is_stmt 1 view .LVU909
 584:fjol.cpp      ****   {
 3103              		.loc 7 584 18 view .LVU910
 586:fjol.cpp      ****     stfilter[i].filter.SetDrive(0);
 3104              		.loc 7 586 5 view .LVU911
 586:fjol.cpp      ****     stfilter[i].filter.SetDrive(0);
 3105              		.loc 7 586 28 is_stmt 0 view .LVU912
 3106 0152 99ED000A 		vldr.32	s0, [r9]
 3107 0156 0E48     		ldr	r0, .L208+32
 3108 0158 FFF7FEFF 		bl	_ZN7daisysp3Svf4InitEf
 3109              	.LVL158:
 3110              		.loc 7 587 5 is_stmt 1 view .LVU913
 3111              		.loc 7 587 32 is_stmt 0 view .LVU914
 3112 015c B0EE680A 		vmov.f32	s0, s17
 3113 0160 0B48     		ldr	r0, .L208+32
 3114              	.LBE854:
 588:fjol.cpp      ****   }
 589:fjol.cpp      ****   
 590:fjol.cpp      **** }
 3115              		.loc 7 590 1 view .LVU915
 3116 0162 BDEC048B 		vldm	sp!, {d8-d9}
 3117              		.cfi_restore 82
 3118              		.cfi_restore 83
 3119              		.cfi_restore 80
 3120              		.cfi_restore 81
 3121              		.cfi_def_cfa_offset 40
 3122 0166 BDE8F84F 		pop	{r3, r4, r5, r6, r7, r8, r9, r10, fp, lr}
 3123              		.cfi_restore 14
 3124              		.cfi_restore 11
 3125              		.cfi_restore 10
 3126              		.cfi_restore 9
 3127              		.cfi_restore 8
 3128              		.cfi_restore 7
 3129              		.cfi_restore 6
 3130              		.cfi_restore 5
 3131              		.cfi_restore 4
 3132              		.cfi_restore 3
 3133              		.cfi_def_cfa_offset 0
 3134              	.LBB855:
 587:fjol.cpp      ****   }
 3135              		.loc 7 587 32 view .LVU916
 3136 016a FFF7FEBF 		b	_ZN7daisysp3Svf8SetDriveEf
 3137              	.LVL159:
 3138              	.L209:
ARM GAS  /tmp/cca3rxWD.s 			page 97


 3139 016e 00BF     		.align	2
 3140              	.L208:
 3141 0170 00000000 		.word	pm1amp
 3142 0174 60000000 		.word	.LANCHOR0+96
 3143 0178 0000C842 		.word	1120403456
 3144 017c 00000000 		.word	0
 3145 0180 00000000 		.word	.LANCHOR6
 3146 0184 6F12833A 		.word	981668463
 3147 0188 00004842 		.word	1112014848
 3148 018c 00000000 		.word	.LANCHOR11
 3149 0190 58000000 		.word	.LANCHOR11+88
 3150 0194 00000000 		.word	.LANCHOR1
 3151 0198 00000000 		.word	samplerate
 3152 019c DB0F4940 		.word	1078530011
 3153              	.LBE855:
 3154              		.cfi_endproc
 3155              	.LFE4829:
 3157              		.section	.text._Z13initializeadcv,"ax",%progbits
 3158              		.align	1
 3159              		.p2align 2,,3
 3160              		.global	_Z13initializeadcv
 3161              		.syntax unified
 3162              		.thumb
 3163              		.thumb_func
 3165              	_Z13initializeadcv:
 3166              	.LFB4830:
 591:fjol.cpp      **** void initializeadc()
 592:fjol.cpp      **** {
 3167              		.loc 7 592 1 is_stmt 1 view -0
 3168              		.cfi_startproc
 3169              		@ args = 0, pretend = 0, frame = 40
 3170              		@ frame_needed = 0, uses_anonymous_args = 0
 593:fjol.cpp      ****   //init ADC
 594:fjol.cpp      ****   adcConfig.InitSingle(hw.GetPin(ctrl1cv_pin));
 3171              		.loc 7 594 3 view .LVU918
 592:fjol.cpp      ****   //init ADC
 3172              		.loc 7 592 1 is_stmt 0 view .LVU919
 3173 0000 10B5     		push	{r4, lr}
 3174              		.cfi_def_cfa_offset 8
 3175              		.cfi_offset 4, -8
 3176              		.cfi_offset 14, -4
 3177              		.loc 7 594 23 view .LVU920
 3178 0002 1620     		movs	r0, #22
 592:fjol.cpp      ****   //init ADC
 3179              		.loc 7 592 1 view .LVU921
 3180 0004 8CB0     		sub	sp, sp, #48
 3181              		.cfi_def_cfa_offset 56
 3182              		.loc 7 594 23 view .LVU922
 3183 0006 FFF7FEFF 		bl	_ZN5daisy9DaisySeed6GetPinEh
 3184              	.LVL160:
 3185 000a 0346     		mov	r3, r0	@ movhi
 3186 000c 2E4C     		ldr	r4, .L212
 3187 000e ADF80830 		strh	r3, [sp, #8]	@ movhi
 3188 0012 0299     		ldr	r1, [sp, #8]
 3189 0014 2046     		mov	r0, r4
 3190 0016 FFF7FEFF 		bl	_ZN5daisy16AdcChannelConfig10InitSingleE12dsy_gpio_pin
 3191              	.LVL161:
ARM GAS  /tmp/cca3rxWD.s 			page 98


 595:fjol.cpp      ****   adcConfig.InitSingle(hw.GetPin(ctrl2cv_pin));
 3192              		.loc 7 595 3 is_stmt 1 view .LVU923
 3193              		.loc 7 595 23 is_stmt 0 view .LVU924
 3194 001a 1720     		movs	r0, #23
 3195 001c FFF7FEFF 		bl	_ZN5daisy9DaisySeed6GetPinEh
 3196              	.LVL162:
 3197 0020 0346     		mov	r3, r0	@ movhi
 3198 0022 2046     		mov	r0, r4
 3199 0024 ADF80C30 		strh	r3, [sp, #12]	@ movhi
 3200 0028 0399     		ldr	r1, [sp, #12]
 3201 002a FFF7FEFF 		bl	_ZN5daisy16AdcChannelConfig10InitSingleE12dsy_gpio_pin
 3202              	.LVL163:
 596:fjol.cpp      ****   adcConfig.InitMux(hw.GetPin(mux_pin),8,hw.GetPin(mux_a_pin),hw.GetPin(mux_b_pin),hw.GetPin(mux_c_
 3203              		.loc 7 596 3 is_stmt 1 view .LVU925
 3204              		.loc 7 596 20 is_stmt 0 view .LVU926
 3205 002e 1820     		movs	r0, #24
 3206 0030 FFF7FEFF 		bl	_ZN5daisy9DaisySeed6GetPinEh
 3207              	.LVL164:
 3208 0034 0346     		mov	r3, r0	@ movhi
 3209 0036 1F20     		movs	r0, #31
 3210 0038 ADF81030 		strh	r3, [sp, #16]	@ movhi
 3211 003c FFF7FEFF 		bl	_ZN5daisy9DaisySeed6GetPinEh
 3212              	.LVL165:
 3213 0040 0346     		mov	r3, r0	@ movhi
 3214 0042 1E20     		movs	r0, #30
 3215 0044 ADF81430 		strh	r3, [sp, #20]	@ movhi
 3216 0048 FFF7FEFF 		bl	_ZN5daisy9DaisySeed6GetPinEh
 3217              	.LVL166:
 3218 004c 0346     		mov	r3, r0	@ movhi
 3219 004e 1D20     		movs	r0, #29
 3220 0050 ADF81830 		strh	r3, [sp, #24]	@ movhi
 3221 0054 FFF7FEFF 		bl	_ZN5daisy9DaisySeed6GetPinEh
 3222              	.LVL167:
 3223 0058 BDF81810 		ldrh	r1, [sp, #24]
 3224 005c 0822     		movs	r2, #8
 3225 005e 059B     		ldr	r3, [sp, #20]
 3226 0060 ADF80400 		strh	r0, [sp, #4]	@ movhi
 3227 0064 2046     		mov	r0, r4
 3228 0066 ADF80010 		strh	r1, [sp]	@ movhi
 3229 006a 0499     		ldr	r1, [sp, #16]
 3230 006c FFF7FEFF 		bl	_ZN5daisy16AdcChannelConfig7InitMuxE12dsy_gpio_pinjS1_S1_S1_
 3231              	.LVL168:
 597:fjol.cpp      ****   adcConfig.InitSingle(hw.GetPin(voct1_pin));
 3232              		.loc 7 597 3 is_stmt 1 view .LVU927
 3233              		.loc 7 597 23 is_stmt 0 view .LVU928
 3234 0070 1C20     		movs	r0, #28
 3235 0072 FFF7FEFF 		bl	_ZN5daisy9DaisySeed6GetPinEh
 3236              	.LVL169:
 3237 0076 0346     		mov	r3, r0	@ movhi
 3238 0078 2046     		mov	r0, r4
 3239 007a ADF82030 		strh	r3, [sp, #32]	@ movhi
 3240 007e 0899     		ldr	r1, [sp, #32]
 3241 0080 FFF7FEFF 		bl	_ZN5daisy16AdcChannelConfig10InitSingleE12dsy_gpio_pin
 3242              	.LVL170:
 598:fjol.cpp      ****   adcConfig.InitSingle(hw.GetPin(voct2_pin));
 3243              		.loc 7 598 3 is_stmt 1 view .LVU929
 3244              		.loc 7 598 23 is_stmt 0 view .LVU930
ARM GAS  /tmp/cca3rxWD.s 			page 99


 3245 0084 1B20     		movs	r0, #27
 3246 0086 FFF7FEFF 		bl	_ZN5daisy9DaisySeed6GetPinEh
 3247              	.LVL171:
 3248 008a 0346     		mov	r3, r0	@ movhi
 3249 008c 2046     		mov	r0, r4
 3250 008e ADF82430 		strh	r3, [sp, #36]	@ movhi
 3251 0092 0999     		ldr	r1, [sp, #36]
 3252 0094 FFF7FEFF 		bl	_ZN5daisy16AdcChannelConfig10InitSingleE12dsy_gpio_pin
 3253              	.LVL172:
 599:fjol.cpp      ****   adcConfig.InitSingle(hw.GetPin(voct3_pin));
 3254              		.loc 7 599 3 is_stmt 1 view .LVU931
 3255              		.loc 7 599 23 is_stmt 0 view .LVU932
 3256 0098 1A20     		movs	r0, #26
 3257 009a FFF7FEFF 		bl	_ZN5daisy9DaisySeed6GetPinEh
 3258              	.LVL173:
 3259 009e 0346     		mov	r3, r0	@ movhi
 3260 00a0 2046     		mov	r0, r4
 3261 00a2 ADF82830 		strh	r3, [sp, #40]	@ movhi
 3262 00a6 0A99     		ldr	r1, [sp, #40]
 3263 00a8 FFF7FEFF 		bl	_ZN5daisy16AdcChannelConfig10InitSingleE12dsy_gpio_pin
 3264              	.LVL174:
 600:fjol.cpp      ****   adcConfig.InitSingle(hw.GetPin(voct4_pin));
 3265              		.loc 7 600 3 is_stmt 1 view .LVU933
 3266              		.loc 7 600 23 is_stmt 0 view .LVU934
 3267 00ac 1920     		movs	r0, #25
 3268 00ae FFF7FEFF 		bl	_ZN5daisy9DaisySeed6GetPinEh
 3269              	.LVL175:
 3270 00b2 0346     		mov	r3, r0	@ movhi
 3271 00b4 2046     		mov	r0, r4
 3272 00b6 ADF82C30 		strh	r3, [sp, #44]	@ movhi
 3273 00ba 0B99     		ldr	r1, [sp, #44]
 601:fjol.cpp      **** }
 3274              		.loc 7 601 1 view .LVU935
 3275 00bc 0CB0     		add	sp, sp, #48
 3276              		.cfi_def_cfa_offset 8
 3277              		@ sp needed
 3278 00be BDE81040 		pop	{r4, lr}
 3279              		.cfi_restore 14
 3280              		.cfi_restore 4
 3281              		.cfi_def_cfa_offset 0
 600:fjol.cpp      ****   adcConfig.InitSingle(hw.GetPin(voct4_pin));
 3282              		.loc 7 600 23 view .LVU936
 3283 00c2 FFF7FEBF 		b	_ZN5daisy16AdcChannelConfig10InitSingleE12dsy_gpio_pin
 3284              	.LVL176:
 3285              	.L213:
 3286 00c6 00BF     		.align	2
 3287              	.L212:
 3288 00c8 00000000 		.word	.LANCHOR12
 3289              		.cfi_endproc
 3290              	.LFE4830:
 3292              		.section	.rodata._Z18initializecontrolsv.str1.4,"aMS",%progbits,1
 3293              		.align	2
 3294              	.LC3:
 3295 0000 04020503 		.ascii	"\004\002\005\003\007\006\001\000"
 3295      07060100 
 3296              		.section	.text._Z18initializecontrolsv,"ax",%progbits
 3297              		.align	1
ARM GAS  /tmp/cca3rxWD.s 			page 100


 3298              		.p2align 2,,3
 3299              		.global	_Z18initializecontrolsv
 3300              		.syntax unified
 3301              		.thumb
 3302              		.thumb_func
 3304              	_Z18initializecontrolsv:
 3305              	.LFB4831:
 602:fjol.cpp      **** void initializecontrols()
 603:fjol.cpp      **** {
 3306              		.loc 7 603 1 is_stmt 1 view -0
 3307              		.cfi_startproc
 3308              		@ args = 0, pretend = 0, frame = 80
 3309              		@ frame_needed = 0, uses_anonymous_args = 0
 604:fjol.cpp      ****   uint8_t knob_mapping[8] = {4,2,5,3,7,6,1,0};
 3310              		.loc 7 604 3 view .LVU938
 603:fjol.cpp      ****   uint8_t knob_mapping[8] = {4,2,5,3,7,6,1,0};
 3311              		.loc 7 603 1 is_stmt 0 view .LVU939
 3312 0000 F0B5     		push	{r4, r5, r6, r7, lr}
 3313              		.cfi_def_cfa_offset 20
 3314              		.cfi_offset 4, -20
 3315              		.cfi_offset 5, -16
 3316              		.cfi_offset 6, -12
 3317              		.cfi_offset 7, -8
 3318              		.cfi_offset 14, -4
 3319              		.loc 7 604 11 view .LVU940
 3320 0002 A64B     		ldr	r3, .L222
 605:fjol.cpp      ****   float callbackrate = hw.AudioCallbackRate();
 606:fjol.cpp      ****   //how the fuck does this init work?? what object does it want??
 607:fjol.cpp      ****   // gate[0].gate.Init(&(hw.GetPin(gate1_pin)));
 608:fjol.cpp      ****   // gate[1].gate.Init(&(hw.GetPin(gate2_pin)));
 609:fjol.cpp      ****   // gate[2].gate.Init(&(hw.GetPin(gate3_pin)));
 610:fjol.cpp      ****   // gate[3].gate.Init(&(hw.GetPin(gate4_pin)));
 611:fjol.cpp      **** 
 612:fjol.cpp      ****   algo_sw.Init(hw.GetPin(sw2_pin),callbackrate);
 613:fjol.cpp      ****   shift_sw.Init(hw.GetPin(sw1_pin),callbackrate);
 614:fjol.cpp      ****   midi_sw.Init(hw.GetPin(midi_sw_pin),callbackrate);
 615:fjol.cpp      **** 
 616:fjol.cpp      ****   enc[0].enc.Init(hw.GetPin(ctl1_enc_a_pin),hw.GetPin(ctl1_enc_b_pin),hw.GetPin(ctl1_sw_pin),callba
 617:fjol.cpp      ****   enc[1].enc.Init(hw.GetPin(ctl2_enc_a_pin),hw.GetPin(ctl2_enc_b_pin),hw.GetPin(ctl2_sw_pin),callba
 3321              		.loc 7 617 18 view .LVU941
 3322 0004 0124     		movs	r4, #1
 3323 0006 A64F     		ldr	r7, .L222+4
 3324 0008 A64E     		ldr	r6, .L222+8
 603:fjol.cpp      ****   uint8_t knob_mapping[8] = {4,2,5,3,7,6,1,0};
 3325              		.loc 7 603 1 view .LVU942
 3326 000a 2DED028B 		vpush.64	{d8}
 3327              		.cfi_def_cfa_offset 28
 3328              		.cfi_offset 80, -28
 3329              		.cfi_offset 81, -24
 3330 000e 95B0     		sub	sp, sp, #84
 3331              		.cfi_def_cfa_offset 112
 604:fjol.cpp      ****   float callbackrate = hw.AudioCallbackRate();
 3332              		.loc 7 604 11 view .LVU943
 3333 0010 93E80300 		ldm	r3, {r0, r1}
 3334 0014 0AAD     		add	r5, sp, #40
 3335 0016 85E80300 		stm	r5, {r0, r1}
 605:fjol.cpp      ****   float callbackrate = hw.AudioCallbackRate();
ARM GAS  /tmp/cca3rxWD.s 			page 101


 3336              		.loc 7 605 3 is_stmt 1 view .LVU944
 605:fjol.cpp      ****   float callbackrate = hw.AudioCallbackRate();
 3337              		.loc 7 605 44 is_stmt 0 view .LVU945
 3338 001a A348     		ldr	r0, .L222+12
 3339 001c FFF7FEFF 		bl	_ZNK5daisy9DaisySeed17AudioCallbackRateEv
 3340              	.LVL177:
 612:fjol.cpp      ****   shift_sw.Init(hw.GetPin(sw1_pin),callbackrate);
 3341              		.loc 7 612 15 view .LVU946
 3342 0020 0920     		movs	r0, #9
 605:fjol.cpp      ****   float callbackrate = hw.AudioCallbackRate();
 3343              		.loc 7 605 44 view .LVU947
 3344 0022 B0EE408A 		vmov.f32	s16, s0
 3345              	.LVL178:
 612:fjol.cpp      ****   shift_sw.Init(hw.GetPin(sw1_pin),callbackrate);
 3346              		.loc 7 612 3 is_stmt 1 view .LVU948
 612:fjol.cpp      ****   shift_sw.Init(hw.GetPin(sw1_pin),callbackrate);
 3347              		.loc 7 612 15 is_stmt 0 view .LVU949
 3348 0026 FFF7FEFF 		bl	_ZN5daisy9DaisySeed6GetPinEh
 3349              	.LVL179:
 612:fjol.cpp      ****   shift_sw.Init(hw.GetPin(sw1_pin),callbackrate);
 3350              		.loc 7 612 15 view .LVU950
 3351 002a 0346     		mov	r3, r0	@ movhi
 3352 002c 9F48     		ldr	r0, .L222+16
 3353 002e ADF80430 		strh	r3, [sp, #4]	@ movhi
 3354 0032 B0EE480A 		vmov.f32	s0, s16
 3355 0036 0199     		ldr	r1, [sp, #4]
 3356 0038 FFF7FEFF 		bl	_ZN5daisy6Switch4InitE12dsy_gpio_pinf
 3357              	.LVL180:
 613:fjol.cpp      ****   midi_sw.Init(hw.GetPin(midi_sw_pin),callbackrate);
 3358              		.loc 7 613 3 is_stmt 1 view .LVU951
 613:fjol.cpp      ****   midi_sw.Init(hw.GetPin(midi_sw_pin),callbackrate);
 3359              		.loc 7 613 16 is_stmt 0 view .LVU952
 3360 003c 0820     		movs	r0, #8
 3361 003e FFF7FEFF 		bl	_ZN5daisy9DaisySeed6GetPinEh
 3362              	.LVL181:
 3363 0042 0346     		mov	r3, r0	@ movhi
 3364 0044 B0EE480A 		vmov.f32	s0, s16
 3365 0048 9948     		ldr	r0, .L222+20
 3366 004a ADF80830 		strh	r3, [sp, #8]	@ movhi
 3367 004e 0299     		ldr	r1, [sp, #8]
 3368 0050 FFF7FEFF 		bl	_ZN5daisy6Switch4InitE12dsy_gpio_pinf
 3369              	.LVL182:
 614:fjol.cpp      **** 
 3370              		.loc 7 614 3 is_stmt 1 view .LVU953
 614:fjol.cpp      **** 
 3371              		.loc 7 614 15 is_stmt 0 view .LVU954
 3372 0054 2020     		movs	r0, #32
 3373 0056 FFF7FEFF 		bl	_ZN5daisy9DaisySeed6GetPinEh
 3374              	.LVL183:
 3375 005a 0346     		mov	r3, r0	@ movhi
 3376 005c B0EE480A 		vmov.f32	s0, s16
 3377 0060 9448     		ldr	r0, .L222+24
 3378 0062 ADF80C30 		strh	r3, [sp, #12]	@ movhi
 3379 0066 0399     		ldr	r1, [sp, #12]
 3380 0068 FFF7FEFF 		bl	_ZN5daisy6Switch4InitE12dsy_gpio_pinf
 3381              	.LVL184:
 616:fjol.cpp      ****   enc[1].enc.Init(hw.GetPin(ctl2_enc_a_pin),hw.GetPin(ctl2_enc_b_pin),hw.GetPin(ctl2_sw_pin),callba
ARM GAS  /tmp/cca3rxWD.s 			page 102


 3382              		.loc 7 616 3 is_stmt 1 view .LVU955
 616:fjol.cpp      ****   enc[1].enc.Init(hw.GetPin(ctl2_enc_a_pin),hw.GetPin(ctl2_enc_b_pin),hw.GetPin(ctl2_sw_pin),callba
 3383              		.loc 7 616 18 is_stmt 0 view .LVU956
 3384 006c 0320     		movs	r0, #3
 3385 006e FFF7FEFF 		bl	_ZN5daisy9DaisySeed6GetPinEh
 3386              	.LVL185:
 3387 0072 0346     		mov	r3, r0	@ movhi
 3388 0074 0420     		movs	r0, #4
 3389 0076 ADF81030 		strh	r3, [sp, #16]	@ movhi
 3390 007a FFF7FEFF 		bl	_ZN5daisy9DaisySeed6GetPinEh
 3391              	.LVL186:
 3392 007e 0346     		mov	r3, r0	@ movhi
 3393 0080 0B20     		movs	r0, #11
 3394 0082 ADF81430 		strh	r3, [sp, #20]	@ movhi
 3395 0086 FFF7FEFF 		bl	_ZN5daisy9DaisySeed6GetPinEh
 3396              	.LVL187:
 3397 008a ADF81800 		strh	r0, [sp, #24]	@ movhi
 3398 008e B0EE480A 		vmov.f32	s0, s16
 3399 0092 069B     		ldr	r3, [sp, #24]
 3400 0094 8848     		ldr	r0, .L222+28
 3401 0096 DDE90412 		ldrd	r1, r2, [sp, #16]
 3402 009a FFF7FEFF 		bl	_ZN5daisy7Encoder4InitE12dsy_gpio_pinS1_S1_f
 3403              	.LVL188:
 3404              		.loc 7 617 3 is_stmt 1 view .LVU957
 3405              		.loc 7 617 18 is_stmt 0 view .LVU958
 3406 009e 0620     		movs	r0, #6
 3407 00a0 FFF7FEFF 		bl	_ZN5daisy9DaisySeed6GetPinEh
 3408              	.LVL189:
 3409 00a4 0346     		mov	r3, r0	@ movhi
 3410 00a6 0520     		movs	r0, #5
 3411 00a8 ADF81C30 		strh	r3, [sp, #28]	@ movhi
 3412 00ac FFF7FEFF 		bl	_ZN5daisy9DaisySeed6GetPinEh
 3413              	.LVL190:
 3414 00b0 0346     		mov	r3, r0	@ movhi
 3415 00b2 0720     		movs	r0, #7
 3416 00b4 ADF82030 		strh	r3, [sp, #32]	@ movhi
 3417 00b8 FFF7FEFF 		bl	_ZN5daisy9DaisySeed6GetPinEh
 3418              	.LVL191:
 3419 00bc ADF82400 		strh	r0, [sp, #36]	@ movhi
 3420 00c0 B0EE480A 		vmov.f32	s0, s16
 3421 00c4 099B     		ldr	r3, [sp, #36]
 3422 00c6 7D48     		ldr	r0, .L222+32
 3423 00c8 DDE90712 		ldrd	r1, r2, [sp, #28]
 3424 00cc FFF7FEFF 		bl	_ZN5daisy7Encoder4InitE12dsy_gpio_pinS1_S1_f
 3425              	.LVL192:
 618:fjol.cpp      **** 
 619:fjol.cpp      ****   for(int i = 0; i<8; i++)
 3426              		.loc 7 619 3 is_stmt 1 view .LVU959
 3427              	.LBB856:
 3428              		.loc 7 619 19 view .LVU960
 3429 00d0 12E0     		b	.L218
 3430              	.LVL193:
 3431              	.L215:
 620:fjol.cpp      ****   {
 621:fjol.cpp      ****     if(i<2){cv[i].input.Init(hw.adc.GetPtr(i),callbackrate,false,true,0.002);}
 622:fjol.cpp      ****     controls[i].input.Init(hw.adc.GetMuxPtr(2,knob_mapping[i]),callbackrate,false,true,0.002);
 3432              		.loc 7 622 27 is_stmt 0 discriminator 2 view .LVU961
ARM GAS  /tmp/cca3rxWD.s 			page 103


 3433 00d2 2A78     		ldrb	r2, [r5]	@ zero_extendqisi2
 3434 00d4 FFF7FEFF 		bl	_ZNK5daisy9AdcHandle9GetMuxPtrEhh
 3435              	.LVL194:
 3436              		.loc 7 622 27 discriminator 2 view .LVU962
 3437 00d8 B0EE480A 		vmov.f32	s0, s16
 3438 00dc 0146     		mov	r1, r0
 3439 00de DFED780A 		vldr.32	s1, .L222+36
 3440 00e2 3046     		mov	r0, r6
 3441 00e4 0123     		movs	r3, #1
 3442 00e6 0022     		movs	r2, #0
 3443 00e8 FFF7FEFF 		bl	_ZN5daisy13AnalogControl4InitEPtfbbf
 3444              	.LVL195:
 619:fjol.cpp      ****   {
 3445              		.loc 7 619 3 is_stmt 1 discriminator 2 view .LVU963
 619:fjol.cpp      ****   {
 3446              		.loc 7 619 19 discriminator 2 view .LVU964
 3447 00ec 082C     		cmp	r4, #8
 3448 00ee 25D0     		beq	.L217
 3449              	.L216:
 3450              	.LVL196:
 619:fjol.cpp      ****   {
 3451              		.loc 7 619 19 is_stmt 0 discriminator 2 view .LVU965
 3452 00f0 0134     		adds	r4, r4, #1
 3453 00f2 5C37     		adds	r7, r7, #92
 3454 00f4 0135     		adds	r5, r5, #1
 3455 00f6 5C36     		adds	r6, r6, #92
 3456              	.L218:
 3457              	.LVL197:
 621:fjol.cpp      ****     controls[i].input.Init(hw.adc.GetMuxPtr(2,knob_mapping[i]),callbackrate,false,true,0.002);
 3458              		.loc 7 621 5 is_stmt 1 view .LVU966
 3459              		.loc 7 622 5 view .LVU967
 621:fjol.cpp      ****     controls[i].input.Init(hw.adc.GetMuxPtr(2,knob_mapping[i]),callbackrate,false,true,0.002);
 3460              		.loc 7 621 5 is_stmt 0 view .LVU968
 3461 00f8 631E     		subs	r3, r4, #1
 3462              	.LVL198:
 3463              		.loc 7 622 27 view .LVU969
 3464 00fa 0221     		movs	r1, #2
 3465 00fc 7148     		ldr	r0, .L222+40
 621:fjol.cpp      ****     controls[i].input.Init(hw.adc.GetMuxPtr(2,knob_mapping[i]),callbackrate,false,true,0.002);
 3466              		.loc 7 621 5 view .LVU970
 3467 00fe 012B     		cmp	r3, #1
 3468 0100 E7D8     		bhi	.L215
 621:fjol.cpp      ****     controls[i].input.Init(hw.adc.GetMuxPtr(2,knob_mapping[i]),callbackrate,false,true,0.002);
 3469              		.loc 7 621 13 is_stmt 1 discriminator 1 view .LVU971
 621:fjol.cpp      ****     controls[i].input.Init(hw.adc.GetMuxPtr(2,knob_mapping[i]),callbackrate,false,true,0.002);
 3470              		.loc 7 621 29 is_stmt 0 discriminator 1 view .LVU972
 3471 0102 D9B2     		uxtb	r1, r3
 3472 0104 FFF7FEFF 		bl	_ZNK5daisy9AdcHandle6GetPtrEh
 3473              	.LVL199:
 621:fjol.cpp      ****     controls[i].input.Init(hw.adc.GetMuxPtr(2,knob_mapping[i]),callbackrate,false,true,0.002);
 3474              		.loc 7 621 29 discriminator 1 view .LVU973
 3475 0108 B0EE480A 		vmov.f32	s0, s16
 3476 010c 0146     		mov	r1, r0
 3477 010e DFED6C0A 		vldr.32	s1, .L222+36
 3478 0112 0123     		movs	r3, #1
 3479 0114 3846     		mov	r0, r7
 3480 0116 0022     		movs	r2, #0
ARM GAS  /tmp/cca3rxWD.s 			page 104


 3481 0118 FFF7FEFF 		bl	_ZN5daisy13AnalogControl4InitEPtfbbf
 3482              	.LVL200:
 3483              		.loc 7 622 5 is_stmt 1 discriminator 1 view .LVU974
 3484              		.loc 7 622 27 is_stmt 0 discriminator 1 view .LVU975
 3485 011c 2A78     		ldrb	r2, [r5]	@ zero_extendqisi2
 3486 011e 0221     		movs	r1, #2
 3487 0120 6848     		ldr	r0, .L222+40
 3488 0122 FFF7FEFF 		bl	_ZNK5daisy9AdcHandle9GetMuxPtrEhh
 3489              	.LVL201:
 3490 0126 B0EE480A 		vmov.f32	s0, s16
 3491 012a 0146     		mov	r1, r0
 3492 012c DFED640A 		vldr.32	s1, .L222+36
 3493 0130 0123     		movs	r3, #1
 3494 0132 0022     		movs	r2, #0
 3495 0134 3046     		mov	r0, r6
 3496 0136 FFF7FEFF 		bl	_ZN5daisy13AnalogControl4InitEPtfbbf
 3497              	.LVL202:
 619:fjol.cpp      ****   {
 3498              		.loc 7 619 3 is_stmt 1 discriminator 1 view .LVU976
 619:fjol.cpp      ****   {
 3499              		.loc 7 619 19 discriminator 1 view .LVU977
 3500 013a D9E7     		b	.L216
 3501              	.L217:
 619:fjol.cpp      ****   {
 3502              		.loc 7 619 19 is_stmt 0 discriminator 1 view .LVU978
 3503 013c 624D     		ldr	r5, .L222+44
 3504              	.LBE856:
 3505              	.LBB857:
 623:fjol.cpp      ****     
 624:fjol.cpp      ****   }
 625:fjol.cpp      ****   for(int i=3;i<7;i++)
 3506              		.loc 7 625 11 view .LVU979
 3507 013e 0324     		movs	r4, #3
 3508              	.LVL203:
 3509              	.L219:
 626:fjol.cpp      ****   {
 627:fjol.cpp      ****     voct[i-3].input.Init(hw.adc.GetPtr(i),callbackrate,false,true,0);
 3510              		.loc 7 627 5 is_stmt 1 discriminator 2 view .LVU980
 3511              		.loc 7 627 25 is_stmt 0 discriminator 2 view .LVU981
 3512 0140 E1B2     		uxtb	r1, r4
 3513 0142 6048     		ldr	r0, .L222+40
 625:fjol.cpp      ****   {
 3514              		.loc 7 625 3 discriminator 2 view .LVU982
 3515 0144 0134     		adds	r4, r4, #1
 3516              	.LVL204:
 3517              		.loc 7 627 25 discriminator 2 view .LVU983
 3518 0146 FFF7FEFF 		bl	_ZNK5daisy9AdcHandle6GetPtrEh
 3519              	.LVL205:
 3520 014a B0EE480A 		vmov.f32	s0, s16
 3521 014e 0146     		mov	r1, r0
 3522 0150 DFED5E0A 		vldr.32	s1, .L222+48
 3523 0154 2846     		mov	r0, r5
 3524 0156 0123     		movs	r3, #1
 3525 0158 0022     		movs	r2, #0
 3526 015a FFF7FEFF 		bl	_ZN5daisy13AnalogControl4InitEPtfbbf
 3527              	.LVL206:
 625:fjol.cpp      ****   {
ARM GAS  /tmp/cca3rxWD.s 			page 105


 3528              		.loc 7 625 3 is_stmt 1 discriminator 2 view .LVU984
 625:fjol.cpp      ****   {
 3529              		.loc 7 625 16 discriminator 2 view .LVU985
 3530 015e 072C     		cmp	r4, #7
 3531 0160 05F15C05 		add	r5, r5, #92
 3532 0164 ECD1     		bne	.L219
 3533              	.LBE857:
 628:fjol.cpp      ****   }
 629:fjol.cpp      ****   controls[0].param.Init(controls[0].input,0,1,Parameter::LOGARITHMIC); //pm2
 3534              		.loc 7 629 3 view .LVU986
 3535              		.loc 7 629 38 is_stmt 0 view .LVU987
 3536 0166 4F4D     		ldr	r5, .L222+8
 3537 0168 0CAC     		add	r4, sp, #48
 3538              	.LVL207:
 3539              		.loc 7 629 25 view .LVU988
 3540 016a F7EE000A 		vmov.f32	s1, #1.0e+0
 3541 016e 9FED570A 		vldr.32	s0, .L222+48
 630:fjol.cpp      ****   controls[1].param.Init(controls[1].input,0,1,Parameter::LINEAR); //ratio2
 3542              		.loc 7 630 38 view .LVU989
 3543 0172 0CAF     		add	r7, sp, #48
 629:fjol.cpp      ****   controls[1].param.Init(controls[1].input,0,1,Parameter::LINEAR); //ratio2
 3544              		.loc 7 629 38 view .LVU990
 3545 0174 0FCD     		ldmia	r5!, {r0, r1, r2, r3}
 3546 0176 0FC4     		stmia	r4!, {r0, r1, r2, r3}
 3547 0178 95E80F00 		ldm	r5, {r0, r1, r2, r3}
 3548              		.loc 7 630 38 view .LVU991
 3549 017c 05F14C06 		add	r6, r5, #76
 629:fjol.cpp      ****   controls[1].param.Init(controls[1].input,0,1,Parameter::LINEAR); //ratio2
 3550              		.loc 7 629 38 view .LVU992
 3551 0180 84E80F00 		stm	r4, {r0, r1, r2, r3}
 629:fjol.cpp      ****   controls[1].param.Init(controls[1].input,0,1,Parameter::LINEAR); //ratio2
 3552              		.loc 7 629 25 view .LVU993
 3553 0184 0CA9     		add	r1, sp, #48
 3554 0186 05F11000 		add	r0, r5, #16
 3555 018a 0222     		movs	r2, #2
 3556 018c FFF7FEFF 		bl	_ZN5daisy9Parameter4InitENS_13AnalogControlEffNS0_5CurveE
 3557              	.LVL208:
 3558              	.LBB858:
 3559              	.LBI858:
 3560              		.file 15 "libDaisy/src/hid/ctrl.h"
   1:libDaisy/src/hid/ctrl.h **** #pragma once
   2:libDaisy/src/hid/ctrl.h **** #ifndef DSY_KNOB_H
   3:libDaisy/src/hid/ctrl.h **** #define DSY_KNOB_H /**< & */
   4:libDaisy/src/hid/ctrl.h **** #include <stdint.h>
   5:libDaisy/src/hid/ctrl.h **** 
   6:libDaisy/src/hid/ctrl.h **** #ifdef __cplusplus
   7:libDaisy/src/hid/ctrl.h **** namespace daisy
   8:libDaisy/src/hid/ctrl.h **** {
   9:libDaisy/src/hid/ctrl.h **** /**
  10:libDaisy/src/hid/ctrl.h ****     @brief Hardware Interface for control inputs \n 
  11:libDaisy/src/hid/ctrl.h ****     Primarily designed for ADC input controls such as \n 
  12:libDaisy/src/hid/ctrl.h ****     potentiometers, and control voltage. \n 
  13:libDaisy/src/hid/ctrl.h ****     @author Stephen Hensley
  14:libDaisy/src/hid/ctrl.h ****     @date November 2019
  15:libDaisy/src/hid/ctrl.h ****     @ingroup controls
  16:libDaisy/src/hid/ctrl.h **** */
  17:libDaisy/src/hid/ctrl.h **** class AnalogControl
ARM GAS  /tmp/cca3rxWD.s 			page 106


  18:libDaisy/src/hid/ctrl.h **** {
  19:libDaisy/src/hid/ctrl.h ****   public:
  20:libDaisy/src/hid/ctrl.h ****     /** Constructor */
  21:libDaisy/src/hid/ctrl.h ****     AnalogControl() {}
  22:libDaisy/src/hid/ctrl.h ****     /** destructor */
  23:libDaisy/src/hid/ctrl.h ****     ~AnalogControl() {}
 3561              		.loc 15 23 5 is_stmt 1 view .LVU994
 3562              		.loc 15 23 5 is_stmt 0 view .LVU995
 3563              	.LBE858:
 3564              		.loc 7 630 3 is_stmt 1 view .LVU996
 3565              		.loc 7 630 25 is_stmt 0 view .LVU997
 3566 0190 F7EE000A 		vmov.f32	s1, #1.0e+0
 3567 0194 9FED4D0A 		vldr.32	s0, .L222+48
 3568              		.loc 7 630 38 view .LVU998
 3569 0198 0FCE     		ldmia	r6!, {r0, r1, r2, r3}
 3570 019a 0FC7     		stmia	r7!, {r0, r1, r2, r3}
 3571 019c 96E80F00 		ldm	r6, {r0, r1, r2, r3}
 631:fjol.cpp      ****   controls[2].param.Init(controls[2].input,0,1,Parameter::LOGARITHMIC); //pm3
 3572              		.loc 7 631 38 view .LVU999
 3573 01a0 05F1A806 		add	r6, r5, #168
 3574 01a4 0CAF     		add	r7, sp, #48
 630:fjol.cpp      ****   controls[2].param.Init(controls[2].input,0,1,Parameter::LOGARITHMIC); //pm3
 3575              		.loc 7 630 38 view .LVU1000
 3576 01a6 84E80F00 		stm	r4, {r0, r1, r2, r3}
 630:fjol.cpp      ****   controls[2].param.Init(controls[2].input,0,1,Parameter::LOGARITHMIC); //pm3
 3577              		.loc 7 630 25 view .LVU1001
 3578 01aa 0CA9     		add	r1, sp, #48
 3579 01ac 05F16C00 		add	r0, r5, #108
 3580 01b0 0022     		movs	r2, #0
 3581 01b2 FFF7FEFF 		bl	_ZN5daisy9Parameter4InitENS_13AnalogControlEffNS0_5CurveE
 3582              	.LVL209:
 3583              	.LBB859:
 3584              	.LBI859:
 3585              		.loc 15 23 5 is_stmt 1 view .LVU1002
 3586              		.loc 15 23 5 is_stmt 0 view .LVU1003
 3587              	.LBE859:
 3588              		.loc 7 631 3 is_stmt 1 view .LVU1004
 3589              		.loc 7 631 25 is_stmt 0 view .LVU1005
 3590 01b6 F7EE000A 		vmov.f32	s1, #1.0e+0
 3591 01ba 9FED440A 		vldr.32	s0, .L222+48
 3592              		.loc 7 631 38 view .LVU1006
 3593 01be 0FCE     		ldmia	r6!, {r0, r1, r2, r3}
 3594 01c0 0FC7     		stmia	r7!, {r0, r1, r2, r3}
 3595 01c2 96E80F00 		ldm	r6, {r0, r1, r2, r3}
 632:fjol.cpp      ****   controls[3].param.Init(controls[3].input,0,1,Parameter::LINEAR); //ratio3
 3596              		.loc 7 632 38 view .LVU1007
 3597 01c6 05F58276 		add	r6, r5, #260
 3598 01ca 0CAF     		add	r7, sp, #48
 631:fjol.cpp      ****   controls[2].param.Init(controls[2].input,0,1,Parameter::LOGARITHMIC); //pm3
 3599              		.loc 7 631 38 view .LVU1008
 3600 01cc 84E80F00 		stm	r4, {r0, r1, r2, r3}
 631:fjol.cpp      ****   controls[2].param.Init(controls[2].input,0,1,Parameter::LOGARITHMIC); //pm3
 3601              		.loc 7 631 25 view .LVU1009
 3602 01d0 0CA9     		add	r1, sp, #48
 3603 01d2 05F1C800 		add	r0, r5, #200
 3604 01d6 0222     		movs	r2, #2
 3605 01d8 FFF7FEFF 		bl	_ZN5daisy9Parameter4InitENS_13AnalogControlEffNS0_5CurveE
ARM GAS  /tmp/cca3rxWD.s 			page 107


 3606              	.LVL210:
 3607              	.LBB860:
 3608              	.LBI860:
 3609              		.loc 15 23 5 is_stmt 1 view .LVU1010
 3610              		.loc 15 23 5 is_stmt 0 view .LVU1011
 3611              	.LBE860:
 3612              		.loc 7 632 3 is_stmt 1 view .LVU1012
 3613              		.loc 7 632 25 is_stmt 0 view .LVU1013
 3614 01dc F7EE000A 		vmov.f32	s1, #1.0e+0
 3615 01e0 9FED3A0A 		vldr.32	s0, .L222+48
 3616              		.loc 7 632 38 view .LVU1014
 3617 01e4 0FCE     		ldmia	r6!, {r0, r1, r2, r3}
 3618 01e6 0FC7     		stmia	r7!, {r0, r1, r2, r3}
 3619 01e8 96E80F00 		ldm	r6, {r0, r1, r2, r3}
 633:fjol.cpp      ****   controls[4].param.Init(controls[4].input,0,3,Parameter::LINEAR); //attack
 3620              		.loc 7 633 38 view .LVU1015
 3621 01ec 05F5B076 		add	r6, r5, #352
 3622 01f0 0CAF     		add	r7, sp, #48
 632:fjol.cpp      ****   controls[3].param.Init(controls[3].input,0,1,Parameter::LINEAR); //ratio3
 3623              		.loc 7 632 38 view .LVU1016
 3624 01f2 84E80F00 		stm	r4, {r0, r1, r2, r3}
 632:fjol.cpp      ****   controls[3].param.Init(controls[3].input,0,1,Parameter::LINEAR); //ratio3
 3625              		.loc 7 632 25 view .LVU1017
 3626 01f6 0CA9     		add	r1, sp, #48
 3627 01f8 05F59270 		add	r0, r5, #292
 3628 01fc 0022     		movs	r2, #0
 3629 01fe FFF7FEFF 		bl	_ZN5daisy9Parameter4InitENS_13AnalogControlEffNS0_5CurveE
 3630              	.LVL211:
 3631              	.LBB861:
 3632              	.LBI861:
 3633              		.loc 15 23 5 is_stmt 1 view .LVU1018
 3634              		.loc 15 23 5 is_stmt 0 view .LVU1019
 3635              	.LBE861:
 3636              		.loc 7 633 3 is_stmt 1 view .LVU1020
 3637              		.loc 7 633 25 is_stmt 0 view .LVU1021
 3638 0202 F0EE080A 		vmov.f32	s1, #3.0e+0
 3639 0206 9FED310A 		vldr.32	s0, .L222+48
 3640              		.loc 7 633 38 view .LVU1022
 3641 020a 0FCE     		ldmia	r6!, {r0, r1, r2, r3}
 3642 020c 0FC7     		stmia	r7!, {r0, r1, r2, r3}
 3643 020e 96E80F00 		ldm	r6, {r0, r1, r2, r3}
 634:fjol.cpp      ****   controls[5].param.Init(controls[5].input,0,2,Parameter::LINEAR); //decay
 3644              		.loc 7 634 38 view .LVU1023
 3645 0212 05F5DE76 		add	r6, r5, #444
 3646 0216 0CAF     		add	r7, sp, #48
 633:fjol.cpp      ****   controls[4].param.Init(controls[4].input,0,3,Parameter::LINEAR); //attack
 3647              		.loc 7 633 38 view .LVU1024
 3648 0218 84E80F00 		stm	r4, {r0, r1, r2, r3}
 633:fjol.cpp      ****   controls[4].param.Init(controls[4].input,0,3,Parameter::LINEAR); //attack
 3649              		.loc 7 633 25 view .LVU1025
 3650 021c 0CA9     		add	r1, sp, #48
 3651 021e 05F5C070 		add	r0, r5, #384
 3652 0222 0022     		movs	r2, #0
 3653 0224 FFF7FEFF 		bl	_ZN5daisy9Parameter4InitENS_13AnalogControlEffNS0_5CurveE
 3654              	.LVL212:
 3655              	.LBB862:
 3656              	.LBI862:
ARM GAS  /tmp/cca3rxWD.s 			page 108


 3657              		.loc 15 23 5 is_stmt 1 view .LVU1026
 3658              		.loc 15 23 5 is_stmt 0 view .LVU1027
 3659              	.LBE862:
 3660              		.loc 7 634 3 is_stmt 1 view .LVU1028
 3661              		.loc 7 634 25 is_stmt 0 view .LVU1029
 3662 0228 F0EE000A 		vmov.f32	s1, #2.0e+0
 3663 022c 9FED270A 		vldr.32	s0, .L222+48
 3664              		.loc 7 634 38 view .LVU1030
 3665 0230 0FCE     		ldmia	r6!, {r0, r1, r2, r3}
 3666 0232 0FC7     		stmia	r7!, {r0, r1, r2, r3}
 3667 0234 96E80F00 		ldm	r6, {r0, r1, r2, r3}
 635:fjol.cpp      ****   controls[6].param.Init(controls[6].input,20,20000,Parameter::LOGARITHMIC); //cutoff
 3668              		.loc 7 635 38 view .LVU1031
 3669 0238 05F50676 		add	r6, r5, #536
 3670 023c 0CAF     		add	r7, sp, #48
 634:fjol.cpp      ****   controls[5].param.Init(controls[5].input,0,2,Parameter::LINEAR); //decay
 3671              		.loc 7 634 38 view .LVU1032
 3672 023e 84E80F00 		stm	r4, {r0, r1, r2, r3}
 634:fjol.cpp      ****   controls[5].param.Init(controls[5].input,0,2,Parameter::LINEAR); //decay
 3673              		.loc 7 634 25 view .LVU1033
 3674 0242 0CA9     		add	r1, sp, #48
 3675 0244 05F5EE70 		add	r0, r5, #476
 3676 0248 0022     		movs	r2, #0
 3677 024a FFF7FEFF 		bl	_ZN5daisy9Parameter4InitENS_13AnalogControlEffNS0_5CurveE
 3678              	.LVL213:
 3679              	.LBB863:
 3680              	.LBI863:
 3681              		.loc 15 23 5 is_stmt 1 view .LVU1034
 3682              		.loc 15 23 5 is_stmt 0 view .LVU1035
 3683              	.LBE863:
 3684              		.loc 7 635 3 is_stmt 1 view .LVU1036
 3685              		.loc 7 635 25 is_stmt 0 view .LVU1037
 3686 024e B3EE040A 		vmov.f32	s0, #2.0e+1
 3687 0252 DFED1F0A 		vldr.32	s1, .L222+52
 3688              		.loc 7 635 38 view .LVU1038
 3689 0256 0FCE     		ldmia	r6!, {r0, r1, r2, r3}
 3690 0258 0FC7     		stmia	r7!, {r0, r1, r2, r3}
 3691 025a 96E80F00 		ldm	r6, {r0, r1, r2, r3}
 636:fjol.cpp      ****   controls[7].param.Init(controls[7].input,0,1,Parameter::LOGARITHMIC); //envfilter amplitude
 3692              		.loc 7 636 38 view .LVU1039
 3693 025e 05F51D76 		add	r6, r5, #628
 3694 0262 0CAF     		add	r7, sp, #48
 635:fjol.cpp      ****   controls[6].param.Init(controls[6].input,20,20000,Parameter::LOGARITHMIC); //cutoff
 3695              		.loc 7 635 38 view .LVU1040
 3696 0264 84E80F00 		stm	r4, {r0, r1, r2, r3}
 635:fjol.cpp      ****   controls[6].param.Init(controls[6].input,20,20000,Parameter::LOGARITHMIC); //cutoff
 3697              		.loc 7 635 25 view .LVU1041
 3698 0268 0CA9     		add	r1, sp, #48
 3699 026a 05F50E70 		add	r0, r5, #568
 3700 026e 0222     		movs	r2, #2
 3701 0270 FFF7FEFF 		bl	_ZN5daisy9Parameter4InitENS_13AnalogControlEffNS0_5CurveE
 3702              	.LVL214:
 3703              	.LBB864:
 3704              	.LBI864:
 3705              		.loc 15 23 5 is_stmt 1 view .LVU1042
 3706              		.loc 15 23 5 is_stmt 0 view .LVU1043
 3707              	.LBE864:
ARM GAS  /tmp/cca3rxWD.s 			page 109


 3708              		.loc 7 636 3 is_stmt 1 view .LVU1044
 3709              		.loc 7 636 25 is_stmt 0 view .LVU1045
 3710 0274 F7EE000A 		vmov.f32	s1, #1.0e+0
 3711 0278 9FED140A 		vldr.32	s0, .L222+48
 3712              		.loc 7 636 38 view .LVU1046
 3713 027c 0FCE     		ldmia	r6!, {r0, r1, r2, r3}
 3714 027e 0FC7     		stmia	r7!, {r0, r1, r2, r3}
 3715 0280 96E80F00 		ldm	r6, {r0, r1, r2, r3}
 3716 0284 84E80F00 		stm	r4, {r0, r1, r2, r3}
 3717              		.loc 7 636 25 view .LVU1047
 3718 0288 0222     		movs	r2, #2
 3719 028a 0CA9     		add	r1, sp, #48
 3720 028c 05F52570 		add	r0, r5, #660
 3721 0290 FFF7FEFF 		bl	_ZN5daisy9Parameter4InitENS_13AnalogControlEffNS0_5CurveE
 3722              	.LVL215:
 3723              	.LBB865:
 3724              	.LBI865:
 3725              		.loc 15 23 5 is_stmt 1 view .LVU1048
 3726              		.loc 15 23 5 is_stmt 0 view .LVU1049
 3727              	.LBE865:
 637:fjol.cpp      **** }
 3728              		.loc 7 637 1 view .LVU1050
 3729 0294 15B0     		add	sp, sp, #84
 3730              		.cfi_def_cfa_offset 28
 3731              		@ sp needed
 3732 0296 BDEC028B 		vldm	sp!, {d8}
 3733              		.cfi_restore 80
 3734              		.cfi_restore 81
 3735              		.cfi_def_cfa_offset 20
 3736              	.LVL216:
 3737              		.loc 7 637 1 view .LVU1051
 3738 029a F0BD     		pop	{r4, r5, r6, r7, pc}
 3739              	.L223:
 3740              		.align	2
 3741              	.L222:
 3742 029c 00000000 		.word	.LC3
 3743 02a0 00000000 		.word	.LANCHOR5
 3744 02a4 00000000 		.word	.LANCHOR2
 3745 02a8 00000000 		.word	.LANCHOR13
 3746 02ac 00000000 		.word	.LANCHOR8
 3747 02b0 00000000 		.word	.LANCHOR7
 3748 02b4 00000000 		.word	.LANCHOR9
 3749 02b8 00000000 		.word	.LANCHOR4
 3750 02bc 2C000000 		.word	.LANCHOR4+44
 3751 02c0 6F12033B 		.word	990057071
 3752 02c4 18000000 		.word	.LANCHOR13+24
 3753 02c8 00000000 		.word	.LANCHOR14
 3754 02cc 00000000 		.word	0
 3755 02d0 00409C46 		.word	1184645120
 3756              		.cfi_endproc
 3757              	.LFE4831:
 3759              		.section	.text._Z6setpwmhh,"ax",%progbits
 3760              		.align	1
 3761              		.p2align 2,,3
 3762              		.global	_Z6setpwmhh
 3763              		.syntax unified
 3764              		.thumb
ARM GAS  /tmp/cca3rxWD.s 			page 110


 3765              		.thumb_func
 3767              	_Z6setpwmhh:
 3768              	.LVL217:
 3769              	.LFB4832:
 638:fjol.cpp      **** 
 639:fjol.cpp      **** void setpwm(uint8_t channel, uint8_t pwm)
 640:fjol.cpp      **** {
 3770              		.loc 7 640 1 is_stmt 1 view -0
 3771              		.cfi_startproc
 3772              		@ args = 0, pretend = 0, frame = 8
 3773              		@ frame_needed = 0, uses_anonymous_args = 0
 641:fjol.cpp      ****   i2c.WriteDataAtAddress(PCA9622_I2C_ADDRESS,channel+2,2,&pwm,2,10);
 3774              		.loc 7 641 3 view .LVU1053
 640:fjol.cpp      ****   i2c.WriteDataAtAddress(PCA9622_I2C_ADDRESS,channel+2,2,&pwm,2,10);
 3775              		.loc 7 640 1 is_stmt 0 view .LVU1054
 3776 0000 30B5     		push	{r4, r5, lr}
 3777              		.cfi_def_cfa_offset 12
 3778              		.cfi_offset 4, -12
 3779              		.cfi_offset 5, -8
 3780              		.cfi_offset 14, -4
 3781 0002 87B0     		sub	sp, sp, #28
 3782              		.cfi_def_cfa_offset 40
 3783              		.loc 7 641 25 view .LVU1055
 3784 0004 0223     		movs	r3, #2
 3785 0006 0A25     		movs	r5, #10
 640:fjol.cpp      ****   i2c.WriteDataAtAddress(PCA9622_I2C_ADDRESS,channel+2,2,&pwm,2,10);
 3786              		.loc 7 640 1 view .LVU1056
 3787 0008 8C46     		mov	ip, r1
 3788              		.loc 7 641 25 view .LVU1057
 3789 000a 0DF11704 		add	r4, sp, #23
 3790 000e C218     		adds	r2, r0, r3
 3791 0010 6021     		movs	r1, #96
 3792              	.LVL218:
 3793              		.loc 7 641 25 view .LVU1058
 3794 0012 0548     		ldr	r0, .L226
 3795              	.LVL219:
 3796              		.loc 7 641 25 view .LVU1059
 3797 0014 0094     		str	r4, [sp]
 640:fjol.cpp      ****   i2c.WriteDataAtAddress(PCA9622_I2C_ADDRESS,channel+2,2,&pwm,2,10);
 3798              		.loc 7 640 1 view .LVU1060
 3799 0016 8DF817C0 		strb	ip, [sp, #23]
 3800              		.loc 7 641 25 view .LVU1061
 3801 001a CDE90135 		strd	r3, r5, [sp, #4]
 3802 001e FFF7FEFF 		bl	_ZN5daisy9I2CHandle18WriteDataAtAddressEtttPhtm
 3803              	.LVL220:
 642:fjol.cpp      **** }
 3804              		.loc 7 642 1 view .LVU1062
 3805 0022 07B0     		add	sp, sp, #28
 3806              		.cfi_def_cfa_offset 12
 3807              		@ sp needed
 3808 0024 30BD     		pop	{r4, r5, pc}
 3809              	.L227:
 3810 0026 00BF     		.align	2
 3811              	.L226:
 3812 0028 00000000 		.word	.LANCHOR15
 3813              		.cfi_endproc
 3814              	.LFE4832:
ARM GAS  /tmp/cca3rxWD.s 			page 111


 3816              		.section	.text._Z12startPCA9622v,"ax",%progbits
 3817              		.align	1
 3818              		.p2align 2,,3
 3819              		.global	_Z12startPCA9622v
 3820              		.syntax unified
 3821              		.thumb
 3822              		.thumb_func
 3824              	_Z12startPCA9622v:
 3825              	.LFB4833:
 643:fjol.cpp      **** 
 644:fjol.cpp      **** void startPCA9622()
 645:fjol.cpp      **** {
 3826              		.loc 7 645 1 is_stmt 1 view -0
 3827              		.cfi_startproc
 3828              		@ args = 0, pretend = 0, frame = 8
 3829              		@ frame_needed = 0, uses_anonymous_args = 0
 646:fjol.cpp      ****   uint8_t generalsettings = 0;
 3830              		.loc 7 646 3 view .LVU1064
 645:fjol.cpp      ****   uint8_t generalsettings = 0;
 3831              		.loc 7 645 1 is_stmt 0 view .LVU1065
 3832 0000 F0B5     		push	{r4, r5, r6, r7, lr}
 3833              		.cfi_def_cfa_offset 20
 3834              		.cfi_offset 4, -20
 3835              		.cfi_offset 5, -16
 3836              		.cfi_offset 6, -12
 3837              		.cfi_offset 7, -8
 3838              		.cfi_offset 14, -4
 3839              		.loc 7 646 11 view .LVU1066
 3840 0002 0023     		movs	r3, #0
 645:fjol.cpp      ****   uint8_t generalsettings = 0;
 3841              		.loc 7 645 1 view .LVU1067
 3842 0004 87B0     		sub	sp, sp, #28
 3843              		.cfi_def_cfa_offset 48
 647:fjol.cpp      ****   uint8_t pwmsettings = 255;
 648:fjol.cpp      ****   //start PWM oscillator
 649:fjol.cpp      ****   i2c.WriteDataAtAddress(PCA9622_I2C_ADDRESS,PCA9622_I2C_ADDRESS,1,&generalsettings,1,10);
 3844              		.loc 7 649 25 view .LVU1068
 3845 0006 0124     		movs	r4, #1
 3846 0008 6022     		movs	r2, #96
 3847 000a 0A26     		movs	r6, #10
 3848 000c 0DF11605 		add	r5, sp, #22
 646:fjol.cpp      ****   uint8_t pwmsettings = 255;
 3849              		.loc 7 646 11 view .LVU1069
 3850 0010 8DF81630 		strb	r3, [sp, #22]
 647:fjol.cpp      ****   uint8_t pwmsettings = 255;
 3851              		.loc 7 647 3 is_stmt 1 view .LVU1070
 647:fjol.cpp      ****   uint8_t pwmsettings = 255;
 3852              		.loc 7 647 11 is_stmt 0 view .LVU1071
 3853 0014 FF23     		movs	r3, #255
 3854              		.loc 7 649 25 view .LVU1072
 3855 0016 1146     		mov	r1, r2
 3856 0018 1748     		ldr	r0, .L232
 647:fjol.cpp      ****   uint8_t pwmsettings = 255;
 3857              		.loc 7 647 11 view .LVU1073
 3858 001a 8DF81730 		strb	r3, [sp, #23]
 3859              		.loc 7 649 3 is_stmt 1 view .LVU1074
 3860              		.loc 7 649 25 is_stmt 0 view .LVU1075
ARM GAS  /tmp/cca3rxWD.s 			page 112


 3861 001e 2346     		mov	r3, r4
 3862 0020 0095     		str	r5, [sp]
 3863 0022 0DF11707 		add	r7, sp, #23
 3864 0026 CDE90146 		strd	r4, r6, [sp, #4]
 3865 002a FFF7FEFF 		bl	_ZN5daisy9I2CHandle18WriteDataAtAddressEtttPhtm
 3866              	.LVL221:
 650:fjol.cpp      ****   System::Delay(1);
 3867              		.loc 7 650 3 is_stmt 1 view .LVU1076
 3868              		.loc 7 650 16 is_stmt 0 view .LVU1077
 3869 002e 2046     		mov	r0, r4
 3870 0030 FFF7FEFF 		bl	_ZN5daisy6System5DelayEm
 3871              	.LVL222:
 651:fjol.cpp      ****   //set mode2 register to zero
 652:fjol.cpp      ****   i2c.WriteDataAtAddress(PCA9622_I2C_ADDRESS,PCA9622_I2C_ADDRESS+1,1,&generalsettings,1,10);
 3872              		.loc 7 652 3 is_stmt 1 view .LVU1078
 3873              		.loc 7 652 25 is_stmt 0 view .LVU1079
 3874 0034 2346     		mov	r3, r4
 3875 0036 6122     		movs	r2, #97
 3876 0038 6021     		movs	r1, #96
 3877 003a 0F48     		ldr	r0, .L232
 3878 003c 0095     		str	r5, [sp]
 3879 003e CDE90146 		strd	r4, r6, [sp, #4]
 3880 0042 FFF7FEFF 		bl	_ZN5daisy9I2CHandle18WriteDataAtAddressEtttPhtm
 3881              	.LVL223:
 653:fjol.cpp      ****   System::Delay(1);
 3882              		.loc 7 653 3 is_stmt 1 view .LVU1080
 3883              		.loc 7 653 16 is_stmt 0 view .LVU1081
 3884 0046 2046     		mov	r0, r4
 3885 0048 1424     		movs	r4, #20
 3886 004a FFF7FEFF 		bl	_ZN5daisy6System5DelayEm
 3887              	.LVL224:
 654:fjol.cpp      ****   //Set LEDs to enable PWM output
 655:fjol.cpp      ****   for(int i = 0; i<4; i++)
 3888              		.loc 7 655 3 is_stmt 1 view .LVU1082
 3889              	.LBB866:
 3890              		.loc 7 655 19 view .LVU1083
 3891              	.L229:
 656:fjol.cpp      ****   {
 657:fjol.cpp      ****     i2c.WriteDataAtAddress(PCA9622_I2C_ADDRESS,0x14+i,1,&pwmsettings,1,10);
 3892              		.loc 7 657 5 discriminator 2 view .LVU1084
 3893              		.loc 7 657 27 is_stmt 0 discriminator 2 view .LVU1085
 3894 004e 0125     		movs	r5, #1
 3895 0050 2246     		mov	r2, r4
 3896 0052 0A26     		movs	r6, #10
 3897 0054 6021     		movs	r1, #96
 655:fjol.cpp      ****   {
 3898              		.loc 7 655 19 discriminator 2 view .LVU1086
 3899 0056 2C44     		add	r4, r4, r5
 3900              		.loc 7 657 27 discriminator 2 view .LVU1087
 3901 0058 2B46     		mov	r3, r5
 3902 005a 0748     		ldr	r0, .L232
 655:fjol.cpp      ****   {
 3903              		.loc 7 655 19 discriminator 2 view .LVU1088
 3904 005c A4B2     		uxth	r4, r4
 3905              		.loc 7 657 27 discriminator 2 view .LVU1089
 3906 005e 0097     		str	r7, [sp]
 3907 0060 CDE90156 		strd	r5, r6, [sp, #4]
ARM GAS  /tmp/cca3rxWD.s 			page 113


 3908 0064 FFF7FEFF 		bl	_ZN5daisy9I2CHandle18WriteDataAtAddressEtttPhtm
 3909              	.LVL225:
 658:fjol.cpp      ****     System::Delay(1);
 3910              		.loc 7 658 5 is_stmt 1 discriminator 2 view .LVU1090
 3911              		.loc 7 658 18 is_stmt 0 discriminator 2 view .LVU1091
 3912 0068 2846     		mov	r0, r5
 3913 006a FFF7FEFF 		bl	_ZN5daisy6System5DelayEm
 3914              	.LVL226:
 655:fjol.cpp      ****   {
 3915              		.loc 7 655 3 is_stmt 1 discriminator 2 view .LVU1092
 655:fjol.cpp      ****   {
 3916              		.loc 7 655 19 discriminator 2 view .LVU1093
 3917 006e 182C     		cmp	r4, #24
 3918 0070 EDD1     		bne	.L229
 3919              	.LBE866:
 659:fjol.cpp      ****   }
 660:fjol.cpp      **** }
 3920              		.loc 7 660 1 is_stmt 0 view .LVU1094
 3921 0072 07B0     		add	sp, sp, #28
 3922              		.cfi_def_cfa_offset 20
 3923              		@ sp needed
 3924 0074 F0BD     		pop	{r4, r5, r6, r7, pc}
 3925              	.L233:
 3926 0076 00BF     		.align	2
 3927              	.L232:
 3928 0078 00000000 		.word	.LANCHOR15
 3929              		.cfi_endproc
 3930              	.LFE4833:
 3932              		.section	.text._Z11shiftvoicesv,"ax",%progbits
 3933              		.align	1
 3934              		.p2align 2,,3
 3935              		.global	_Z11shiftvoicesv
 3936              		.syntax unified
 3937              		.thumb
 3938              		.thumb_func
 3940              	_Z11shiftvoicesv:
 3941              	.LFB4834:
 661:fjol.cpp      **** 
 662:fjol.cpp      **** void shiftvoices()
 663:fjol.cpp      **** {
 3942              		.loc 7 663 1 is_stmt 1 view -0
 3943              		.cfi_startproc
 3944              		@ args = 0, pretend = 0, frame = 0
 3945              		@ frame_needed = 0, uses_anonymous_args = 0
 3946              		@ link register save eliminated.
 664:fjol.cpp      ****   uint8_t temp;
 3947              		.loc 7 664 3 view .LVU1096
 665:fjol.cpp      ****   temp = voicehist[3];
 3948              		.loc 7 665 3 view .LVU1097
 3949              		.loc 7 665 8 is_stmt 0 view .LVU1098
 3950 0000 054B     		ldr	r3, .L235
 3951 0002 D878     		ldrb	r0, [r3, #3]	@ zero_extendqisi2
 3952              	.LVL227:
 666:fjol.cpp      ****   voicehist[3] = voicehist[2];
 3953              		.loc 7 666 3 is_stmt 1 view .LVU1099
 3954              		.loc 7 666 16 is_stmt 0 view .LVU1100
 3955 0004 93F802C0 		ldrb	ip, [r3, #2]	@ zero_extendqisi2
ARM GAS  /tmp/cca3rxWD.s 			page 114


 667:fjol.cpp      ****   voicehist[2] = voicehist[1];
 3956              		.loc 7 667 16 view .LVU1101
 3957 0008 5978     		ldrb	r1, [r3, #1]	@ zero_extendqisi2
 668:fjol.cpp      ****   voicehist[1] = voicehist[0];
 3958              		.loc 7 668 16 view .LVU1102
 3959 000a 1A78     		ldrb	r2, [r3]	@ zero_extendqisi2
 666:fjol.cpp      ****   voicehist[3] = voicehist[2];
 3960              		.loc 7 666 16 view .LVU1103
 3961 000c 83F803C0 		strb	ip, [r3, #3]
 667:fjol.cpp      ****   voicehist[2] = voicehist[1];
 3962              		.loc 7 667 3 is_stmt 1 view .LVU1104
 669:fjol.cpp      ****   voicehist[0] = temp;
 3963              		.loc 7 669 16 is_stmt 0 view .LVU1105
 3964 0010 1870     		strb	r0, [r3]
 667:fjol.cpp      ****   voicehist[2] = voicehist[1];
 3965              		.loc 7 667 16 view .LVU1106
 3966 0012 9970     		strb	r1, [r3, #2]
 668:fjol.cpp      ****   voicehist[1] = voicehist[0];
 3967              		.loc 7 668 3 is_stmt 1 view .LVU1107
 668:fjol.cpp      ****   voicehist[1] = voicehist[0];
 3968              		.loc 7 668 16 is_stmt 0 view .LVU1108
 3969 0014 5A70     		strb	r2, [r3, #1]
 3970              		.loc 7 669 3 is_stmt 1 view .LVU1109
 670:fjol.cpp      **** }
 3971              		.loc 7 670 1 is_stmt 0 view .LVU1110
 3972 0016 7047     		bx	lr
 3973              	.L236:
 3974              		.align	2
 3975              	.L235:
 3976 0018 00000000 		.word	voicehist
 3977              		.cfi_endproc
 3978              	.LFE4834:
 3980              		.section	.text._Z7noteOFFh,"ax",%progbits
 3981              		.align	1
 3982              		.p2align 2,,3
 3983              		.global	_Z7noteOFFh
 3984              		.syntax unified
 3985              		.thumb
 3986              		.thumb_func
 3988              	_Z7noteOFFh:
 3989              	.LVL228:
 3990              	.LFB4835:
 671:fjol.cpp      **** 
 672:fjol.cpp      **** void noteOFF(uint8_t note)
 673:fjol.cpp      **** {
 3991              		.loc 7 673 1 is_stmt 1 view -0
 3992              		.cfi_startproc
 3993              		@ args = 0, pretend = 0, frame = 0
 3994              		@ frame_needed = 0, uses_anonymous_args = 0
 3995              		@ link register save eliminated.
 674:fjol.cpp      ****   for(int i = 0; i<4; i++)
 3996              		.loc 7 674 3 view .LVU1112
 3997              	.LBB867:
 3998              		.loc 7 674 19 view .LVU1113
 3999              	.LBE867:
 673:fjol.cpp      ****   for(int i = 0; i<4; i++)
 4000              		.loc 7 673 1 is_stmt 0 view .LVU1114
ARM GAS  /tmp/cca3rxWD.s 			page 115


 4001 0000 10B4     		push	{r4}
 4002              		.cfi_def_cfa_offset 4
 4003              		.cfi_offset 4, -4
 4004 0002 114C     		ldr	r4, .L249
 4005 0004 114A     		ldr	r2, .L249+4
 4006 0006 2346     		mov	r3, r4
 4007 0008 04F1040C 		add	ip, r4, #4
 4008              	.LVL229:
 4009              	.L239:
 4010              	.LBB868:
 675:fjol.cpp      ****   {
 676:fjol.cpp      ****     if((voicetrig[i] == 1) && (note == voicenote[i]))
 4011              		.loc 7 676 5 is_stmt 1 view .LVU1115
 674:fjol.cpp      ****   {
 4012              		.loc 7 674 3 view .LVU1116
 4013              		.loc 7 676 20 is_stmt 0 view .LVU1117
 4014 000c 13F8011B 		ldrb	r1, [r3], #1	@ zero_extendqisi2
 4015              	.LVL230:
 674:fjol.cpp      ****   {
 4016              		.loc 7 674 19 is_stmt 1 view .LVU1118
 4017              		.loc 7 676 5 is_stmt 0 view .LVU1119
 4018 0010 29B1     		cbz	r1, .L238
 4019              		.loc 7 676 28 discriminator 1 view .LVU1120
 4020 0012 1178     		ldrb	r1, [r2]	@ zero_extendqisi2
 4021 0014 8142     		cmp	r1, r0
 4022 0016 02D1     		bne	.L238
 677:fjol.cpp      ****     {
 678:fjol.cpp      ****       voicetrig[i] = 0;
 4023              		.loc 7 678 7 is_stmt 1 view .LVU1121
 4024              		.loc 7 678 20 is_stmt 0 view .LVU1122
 4025 0018 0021     		movs	r1, #0
 4026 001a 03F8011C 		strb	r1, [r3, #-1]
 4027              	.L238:
 674:fjol.cpp      ****   {
 4028              		.loc 7 674 19 discriminator 2 view .LVU1123
 4029 001e 6345     		cmp	r3, ip
 4030 0020 02F10102 		add	r2, r2, #1
 4031 0024 F2D1     		bne	.L239
 4032              	.LBE868:
 679:fjol.cpp      ****     }
 680:fjol.cpp      ****   }
 681:fjol.cpp      ****   if (gate_out && voicetrig[0] == 0 && voicetrig[1] == 0 && voicetrig[2] == 0 && voicetrig[3] == 0 
 4033              		.loc 7 681 3 is_stmt 1 view .LVU1124
 4034              		.loc 7 681 7 is_stmt 0 view .LVU1125
 4035 0026 0A4B     		ldr	r3, .L249+8
 4036              	.LVL231:
 4037              		.loc 7 681 3 view .LVU1126
 4038 0028 1A78     		ldrb	r2, [r3]	@ zero_extendqisi2
 4039 002a 52B1     		cbz	r2, .L237
 4040              		.loc 7 681 16 discriminator 1 view .LVU1127
 4041 002c 2278     		ldrb	r2, [r4]	@ zero_extendqisi2
 4042 002e 42B9     		cbnz	r2, .L237
 4043              		.loc 7 681 37 discriminator 2 view .LVU1128
 4044 0030 6278     		ldrb	r2, [r4, #1]	@ zero_extendqisi2
 4045 0032 32B9     		cbnz	r2, .L237
 4046              		.loc 7 681 58 discriminator 3 view .LVU1129
 4047 0034 A278     		ldrb	r2, [r4, #2]	@ zero_extendqisi2
ARM GAS  /tmp/cca3rxWD.s 			page 116


 4048 0036 22B9     		cbnz	r2, .L237
 4049              		.loc 7 681 79 discriminator 4 view .LVU1130
 4050 0038 E278     		ldrb	r2, [r4, #3]	@ zero_extendqisi2
 4051 003a 12B9     		cbnz	r2, .L237
 682:fjol.cpp      ****   {
 683:fjol.cpp      ****     gate_out = 0;
 4052              		.loc 7 683 5 is_stmt 1 view .LVU1131
 684:fjol.cpp      ****     filtenv_trig = 0;
 4053              		.loc 7 684 18 is_stmt 0 view .LVU1132
 4054 003c 0549     		ldr	r1, .L249+12
 683:fjol.cpp      ****     filtenv_trig = 0;
 4055              		.loc 7 683 14 view .LVU1133
 4056 003e 1A70     		strb	r2, [r3]
 4057              		.loc 7 684 5 is_stmt 1 view .LVU1134
 4058              		.loc 7 684 18 is_stmt 0 view .LVU1135
 4059 0040 0A70     		strb	r2, [r1]
 4060              	.L237:
 685:fjol.cpp      ****   }
 686:fjol.cpp      **** 
 687:fjol.cpp      **** }
 4061              		.loc 7 687 1 view .LVU1136
 4062 0042 5DF8044B 		ldr	r4, [sp], #4
 4063              		.cfi_restore 4
 4064              		.cfi_def_cfa_offset 0
 4065 0046 7047     		bx	lr
 4066              	.L250:
 4067              		.align	2
 4068              	.L249:
 4069 0048 00000000 		.word	voicetrig
 4070 004c 00000000 		.word	voicenote
 4071 0050 00000000 		.word	gate_out
 4072 0054 00000000 		.word	filtenv_trig
 4073              		.cfi_endproc
 4074              	.LFE4835:
 4076              		.section	.text._Z6noteONh,"ax",%progbits
 4077              		.align	1
 4078              		.p2align 2,,3
 4079              		.global	_Z6noteONh
 4080              		.syntax unified
 4081              		.thumb
 4082              		.thumb_func
 4084              	_Z6noteONh:
 4085              	.LVL232:
 4086              	.LFB4836:
 688:fjol.cpp      **** 
 689:fjol.cpp      **** 
 690:fjol.cpp      **** void noteON(uint8_t note)
 691:fjol.cpp      **** {
 4087              		.loc 7 691 1 is_stmt 1 view -0
 4088              		.cfi_startproc
 4089              		@ args = 0, pretend = 0, frame = 0
 4090              		@ frame_needed = 0, uses_anonymous_args = 0
 692:fjol.cpp      ****   float freq_note = mtof(note - 1) * pbend * octaveindex[octave];
 4091              		.loc 7 692 3 view .LVU1138
 691:fjol.cpp      ****   float freq_note = mtof(note - 1) * pbend * octaveindex[octave];
 4092              		.loc 7 691 1 is_stmt 0 view .LVU1139
 4093 0000 38B5     		push	{r3, r4, r5, lr}
ARM GAS  /tmp/cca3rxWD.s 			page 117


 4094              		.cfi_def_cfa_offset 16
 4095              		.cfi_offset 3, -16
 4096              		.cfi_offset 4, -12
 4097              		.cfi_offset 5, -8
 4098              		.cfi_offset 14, -4
 4099              		.loc 7 692 31 view .LVU1140
 4100 0002 431E     		subs	r3, r0, #1
 4101              	.LBB876:
 4102              	.LBB877:
 4103              		.file 16 "DaisySP/Source/Utility/dsp.h"
   1:DaisySP/Source/Utility/dsp.h **** /** Helpful defines, functions, and other utilities for use in/with daisysp modules.
   2:DaisySP/Source/Utility/dsp.h **** */
   3:DaisySP/Source/Utility/dsp.h **** #pragma once
   4:DaisySP/Source/Utility/dsp.h **** #ifndef DSY_CORE_DSP
   5:DaisySP/Source/Utility/dsp.h **** #define DSY_CORE_DSP
   6:DaisySP/Source/Utility/dsp.h **** #include <cassert>
   7:DaisySP/Source/Utility/dsp.h **** #include <cstdint>
   8:DaisySP/Source/Utility/dsp.h **** #include <random>
   9:DaisySP/Source/Utility/dsp.h **** #include <cmath>
  10:DaisySP/Source/Utility/dsp.h **** 
  11:DaisySP/Source/Utility/dsp.h **** /** PIs
  12:DaisySP/Source/Utility/dsp.h **** */
  13:DaisySP/Source/Utility/dsp.h **** #define PI_F 3.1415927410125732421875f
  14:DaisySP/Source/Utility/dsp.h **** #define TWOPI_F (2.0f * PI_F)
  15:DaisySP/Source/Utility/dsp.h **** #define HALFPI_F (PI_F * 0.5f)
  16:DaisySP/Source/Utility/dsp.h **** #define DSY_MIN(in, mn) (in < mn ? in : mn)
  17:DaisySP/Source/Utility/dsp.h **** #define DSY_MAX(in, mx) (in > mx ? in : mx)
  18:DaisySP/Source/Utility/dsp.h **** #define DSY_CLAMP(in, mn, mx) (DSY_MIN(DSY_MAX(in, mn), mx))
  19:DaisySP/Source/Utility/dsp.h **** #define DSY_COUNTOF(_arr) (sizeof(_arr) / sizeof(_arr[0]))
  20:DaisySP/Source/Utility/dsp.h **** 
  21:DaisySP/Source/Utility/dsp.h **** namespace daisysp
  22:DaisySP/Source/Utility/dsp.h **** {
  23:DaisySP/Source/Utility/dsp.h **** //Avoids division for random floats. e.g. rand() * kRandFrac
  24:DaisySP/Source/Utility/dsp.h **** static constexpr float kRandFrac = 1.f / (float)RAND_MAX;
  25:DaisySP/Source/Utility/dsp.h **** 
  26:DaisySP/Source/Utility/dsp.h **** //Convert from semitones to other units. e.g. 2 ^ (kOneTwelfth * x)
  27:DaisySP/Source/Utility/dsp.h **** static constexpr float kOneTwelfth = 1.f / 12.f;
  28:DaisySP/Source/Utility/dsp.h **** 
  29:DaisySP/Source/Utility/dsp.h **** /** efficient floating point min/max
  30:DaisySP/Source/Utility/dsp.h **** c/o stephen mccaul
  31:DaisySP/Source/Utility/dsp.h **** */
  32:DaisySP/Source/Utility/dsp.h **** inline float fmax(float a, float b)
  33:DaisySP/Source/Utility/dsp.h **** {
  34:DaisySP/Source/Utility/dsp.h ****     float r;
  35:DaisySP/Source/Utility/dsp.h **** #ifdef __arm__
  36:DaisySP/Source/Utility/dsp.h ****     asm("vmaxnm.f32 %[d], %[n], %[m]" : [d] "=t"(r) : [n] "t"(a), [m] "t"(b) :);
  37:DaisySP/Source/Utility/dsp.h **** #else
  38:DaisySP/Source/Utility/dsp.h ****     r = (a > b) ? a : b;
  39:DaisySP/Source/Utility/dsp.h **** #endif // __arm__
  40:DaisySP/Source/Utility/dsp.h ****     return r;
  41:DaisySP/Source/Utility/dsp.h **** }
  42:DaisySP/Source/Utility/dsp.h **** 
  43:DaisySP/Source/Utility/dsp.h **** inline float fmin(float a, float b)
  44:DaisySP/Source/Utility/dsp.h **** {
  45:DaisySP/Source/Utility/dsp.h ****     float r;
  46:DaisySP/Source/Utility/dsp.h **** #ifdef __arm__
  47:DaisySP/Source/Utility/dsp.h ****     asm("vminnm.f32 %[d], %[n], %[m]" : [d] "=t"(r) : [n] "t"(a), [m] "t"(b) :);
ARM GAS  /tmp/cca3rxWD.s 			page 118


  48:DaisySP/Source/Utility/dsp.h **** #else
  49:DaisySP/Source/Utility/dsp.h ****     r = (a < b) ? a : b;
  50:DaisySP/Source/Utility/dsp.h **** #endif // __arm__
  51:DaisySP/Source/Utility/dsp.h ****     return r;
  52:DaisySP/Source/Utility/dsp.h **** }
  53:DaisySP/Source/Utility/dsp.h **** 
  54:DaisySP/Source/Utility/dsp.h **** /** quick fp clamp
  55:DaisySP/Source/Utility/dsp.h **** */
  56:DaisySP/Source/Utility/dsp.h **** inline float fclamp(float in, float min, float max)
  57:DaisySP/Source/Utility/dsp.h **** {
  58:DaisySP/Source/Utility/dsp.h ****     return fmin(fmax(in, min), max);
  59:DaisySP/Source/Utility/dsp.h **** }
  60:DaisySP/Source/Utility/dsp.h **** 
  61:DaisySP/Source/Utility/dsp.h **** /** From Musicdsp.org "Fast power and root estimates for 32bit floats)
  62:DaisySP/Source/Utility/dsp.h **** Original code by Stefan Stenzel
  63:DaisySP/Source/Utility/dsp.h **** These are approximations
  64:DaisySP/Source/Utility/dsp.h **** */
  65:DaisySP/Source/Utility/dsp.h **** inline float fastpower(float f, int n)
  66:DaisySP/Source/Utility/dsp.h **** {
  67:DaisySP/Source/Utility/dsp.h ****     long *lp, l;
  68:DaisySP/Source/Utility/dsp.h ****     lp = (long *)(&f);
  69:DaisySP/Source/Utility/dsp.h ****     l  = *lp;
  70:DaisySP/Source/Utility/dsp.h ****     l -= 0x3F800000;
  71:DaisySP/Source/Utility/dsp.h ****     l <<= (n - 1);
  72:DaisySP/Source/Utility/dsp.h ****     l += 0x3F800000;
  73:DaisySP/Source/Utility/dsp.h ****     *lp = l;
  74:DaisySP/Source/Utility/dsp.h ****     return f;
  75:DaisySP/Source/Utility/dsp.h **** }
  76:DaisySP/Source/Utility/dsp.h **** 
  77:DaisySP/Source/Utility/dsp.h **** inline float fastroot(float f, int n)
  78:DaisySP/Source/Utility/dsp.h **** {
  79:DaisySP/Source/Utility/dsp.h ****     long *lp, l;
  80:DaisySP/Source/Utility/dsp.h ****     lp = (long *)(&f);
  81:DaisySP/Source/Utility/dsp.h ****     l  = *lp;
  82:DaisySP/Source/Utility/dsp.h ****     l -= 0x3F800000;
  83:DaisySP/Source/Utility/dsp.h ****     l >>= (n = 1);
  84:DaisySP/Source/Utility/dsp.h ****     l += 0x3F800000;
  85:DaisySP/Source/Utility/dsp.h ****     *lp = l;
  86:DaisySP/Source/Utility/dsp.h ****     return f;
  87:DaisySP/Source/Utility/dsp.h **** }
  88:DaisySP/Source/Utility/dsp.h **** 
  89:DaisySP/Source/Utility/dsp.h **** /** From http://openaudio.blogspot.com/2017/02/faster-log10-and-pow.html
  90:DaisySP/Source/Utility/dsp.h **** No approximation, pow10f(x) gives a 90% speed increase over powf(10.f, x)
  91:DaisySP/Source/Utility/dsp.h **** */
  92:DaisySP/Source/Utility/dsp.h **** inline float pow10f(float f)
  93:DaisySP/Source/Utility/dsp.h **** {
  94:DaisySP/Source/Utility/dsp.h ****     return expf(2.302585092994046f * f);
  95:DaisySP/Source/Utility/dsp.h **** }
  96:DaisySP/Source/Utility/dsp.h **** 
  97:DaisySP/Source/Utility/dsp.h **** /* Original code for fastlog2f by Dr. Paul Beckmann from the ARM community forum, adapted from the 
  98:DaisySP/Source/Utility/dsp.h **** About 25% performance increase over std::log10f
  99:DaisySP/Source/Utility/dsp.h **** */
 100:DaisySP/Source/Utility/dsp.h **** inline float fastlog2f(float f)
 101:DaisySP/Source/Utility/dsp.h **** {
 102:DaisySP/Source/Utility/dsp.h ****     float frac;
 103:DaisySP/Source/Utility/dsp.h ****     int   exp;
 104:DaisySP/Source/Utility/dsp.h ****     frac = frexpf(fabsf(f), &exp);
ARM GAS  /tmp/cca3rxWD.s 			page 119


 105:DaisySP/Source/Utility/dsp.h ****     f    = 1.23149591368684f;
 106:DaisySP/Source/Utility/dsp.h ****     f *= frac;
 107:DaisySP/Source/Utility/dsp.h ****     f += -4.11852516267426f;
 108:DaisySP/Source/Utility/dsp.h ****     f *= frac;
 109:DaisySP/Source/Utility/dsp.h ****     f += 6.02197014179219f;
 110:DaisySP/Source/Utility/dsp.h ****     f *= frac;
 111:DaisySP/Source/Utility/dsp.h ****     f += -3.13396450166353f;
 112:DaisySP/Source/Utility/dsp.h ****     f += exp;
 113:DaisySP/Source/Utility/dsp.h ****     return (f);
 114:DaisySP/Source/Utility/dsp.h **** }
 115:DaisySP/Source/Utility/dsp.h **** 
 116:DaisySP/Source/Utility/dsp.h **** inline float fastlog10f(float f)
 117:DaisySP/Source/Utility/dsp.h **** {
 118:DaisySP/Source/Utility/dsp.h ****     return fastlog2f(f) * 0.3010299956639812f;
 119:DaisySP/Source/Utility/dsp.h **** }
 120:DaisySP/Source/Utility/dsp.h **** 
 121:DaisySP/Source/Utility/dsp.h **** /** Midi to frequency helper
 122:DaisySP/Source/Utility/dsp.h **** */
 123:DaisySP/Source/Utility/dsp.h **** inline float mtof(float m)
 124:DaisySP/Source/Utility/dsp.h **** {
 125:DaisySP/Source/Utility/dsp.h ****     return powf(2, (m - 69.0f) / 12.0f) * 440.0f;
 4104              		.loc 16 125 23 view .LVU1141
 4105 0004 9FED2D7A 		vldr.32	s14, .L263
 4106              		.loc 16 125 16 view .LVU1142
 4107 0008 F2EE080A 		vmov.f32	s1, #1.2e+1
 4108              	.LBE877:
 4109              	.LBE876:
 691:fjol.cpp      ****   float freq_note = mtof(note - 1) * pbend * octaveindex[octave];
 4110              		.loc 7 691 1 view .LVU1143
 4111 000c 0446     		mov	r4, r0
 4112              	.LVL233:
 4113              	.LBB883:
 4114              	.LBI876:
 123:DaisySP/Source/Utility/dsp.h **** {
 4115              		.loc 16 123 14 is_stmt 1 view .LVU1144
 4116              	.LBB878:
 4117              		.loc 16 125 5 view .LVU1145
 4118              	.LBE878:
 4119              	.LBE883:
 4120              		.loc 7 692 31 is_stmt 0 view .LVU1146
 4121 000e 07EE903A 		vmov	s15, r3	@ int
 4122              	.LBB884:
 4123              	.LBB879:
 4124              		.loc 16 125 16 view .LVU1147
 4125 0012 B0EE000A 		vmov.f32	s0, #2.0e+0
 4126              	.LBE879:
 4127              	.LBE884:
 4128              		.loc 7 692 25 view .LVU1148
 4129 0016 F8EEE77A 		vcvt.f32.s32	s15, s15
 4130              	.LBB885:
 4131              	.LBB880:
 4132              		.loc 16 125 23 view .LVU1149
 4133 001a 77EEC77A 		vsub.f32	s15, s15, s14
 4134              		.loc 16 125 16 view .LVU1150
 4135 001e C7EEA00A 		vdiv.f32	s1, s15, s1
 4136 0022 FFF7FEFF 		bl	powf
 4137              	.LVL234:
ARM GAS  /tmp/cca3rxWD.s 			page 120


 4138              		.loc 16 125 16 view .LVU1151
 4139              	.LBE880:
 4140              	.LBE885:
 4141              		.loc 7 692 58 view .LVU1152
 4142 0026 2649     		ldr	r1, .L263+4
 4143              		.loc 7 692 64 view .LVU1153
 4144 0028 264B     		ldr	r3, .L263+8
 4145              		.loc 7 692 58 view .LVU1154
 4146 002a 0978     		ldrb	r1, [r1]	@ zero_extendqisi2
 4147              	.LVL235:
 693:fjol.cpp      ****   
 694:fjol.cpp      ****   if (!gate_out)
 4148              		.loc 7 694 7 view .LVU1155
 4149 002c 264A     		ldr	r2, .L263+12
 692:fjol.cpp      ****   
 4150              		.loc 7 692 64 view .LVU1156
 4151 002e 03EB8103 		add	r3, r3, r1, lsl #2
 692:fjol.cpp      ****   
 4152              		.loc 7 692 36 view .LVU1157
 4153 0032 2648     		ldr	r0, .L263+16
 4154              		.loc 7 694 3 view .LVU1158
 4155 0034 1178     		ldrb	r1, [r2]	@ zero_extendqisi2
 692:fjol.cpp      ****   
 4156              		.loc 7 692 36 view .LVU1159
 4157 0036 D0ED006A 		vldr.32	s13, [r0]
 692:fjol.cpp      ****   
 4158              		.loc 7 692 64 view .LVU1160
 4159 003a 93ED007A 		vldr.32	s14, [r3]
 4160              	.LVL236:
 4161              		.loc 7 694 3 is_stmt 1 view .LVU1161
 4162 003e 19B9     		cbnz	r1, .L252
 695:fjol.cpp      ****   {
 696:fjol.cpp      ****     gate_out = 1;
 4163              		.loc 7 696 5 view .LVU1162
 4164              		.loc 7 696 14 is_stmt 0 view .LVU1163
 4165 0040 0123     		movs	r3, #1
 697:fjol.cpp      ****     filtenv_trig = 1;
 4166              		.loc 7 697 18 view .LVU1164
 4167 0042 2349     		ldr	r1, .L263+20
 696:fjol.cpp      ****     filtenv_trig = 1;
 4168              		.loc 7 696 14 view .LVU1165
 4169 0044 1370     		strb	r3, [r2]
 4170              		.loc 7 697 5 is_stmt 1 view .LVU1166
 4171              		.loc 7 697 18 is_stmt 0 view .LVU1167
 4172 0046 0B70     		strb	r3, [r1]
 4173              	.L252:
 698:fjol.cpp      ****   }
 699:fjol.cpp      ****   for(int i = 0; i<4; i++)
 4174              		.loc 7 699 3 is_stmt 1 view .LVU1168
 4175              	.LVL237:
 4176              	.LBB886:
 4177              		.loc 7 699 19 view .LVU1169
 700:fjol.cpp      ****   {
 701:fjol.cpp      ****     if(voicehist[0] == i+1 && !voicetrig[i])
 4178              		.loc 7 701 19 is_stmt 0 view .LVU1170
 4179 0048 2248     		ldr	r0, .L263+24
 699:fjol.cpp      ****   {
ARM GAS  /tmp/cca3rxWD.s 			page 121


 4180              		.loc 7 699 11 view .LVU1171
 4181 004a 0023     		movs	r3, #0
 4182 004c 224D     		ldr	r5, .L263+28
 4183              		.loc 7 701 19 view .LVU1172
 4184 004e 90F800C0 		ldrb	ip, [r0]	@ zero_extendqisi2
 4185 0052 2A46     		mov	r2, r5
 4186              	.LVL238:
 4187              	.L253:
 4188              		.loc 7 701 5 is_stmt 1 view .LVU1173
 4189 0054 9E46     		mov	lr, r3
 4190              		.loc 7 701 25 is_stmt 0 view .LVU1174
 4191 0056 0133     		adds	r3, r3, #1
 4192              	.LVL239:
 699:fjol.cpp      ****   {
 4193              		.loc 7 699 19 is_stmt 1 view .LVU1175
 4194              		.loc 7 701 5 is_stmt 0 view .LVU1176
 4195 0058 9C45     		cmp	ip, r3
 4196 005a 04D0     		beq	.L262
 4197              	.L255:
 699:fjol.cpp      ****   {
 4198              		.loc 7 699 19 discriminator 1 view .LVU1177
 4199 005c 042B     		cmp	r3, #4
 4200 005e 02F10102 		add	r2, r2, #1
 4201 0062 F7D1     		bne	.L253
 4202              	.LVL240:
 4203              	.L251:
 699:fjol.cpp      ****   {
 4204              		.loc 7 699 19 discriminator 1 view .LVU1178
 4205              	.LBE886:
 702:fjol.cpp      ****     {
 703:fjol.cpp      ****       voicenote[i] = note;
 704:fjol.cpp      ****       voicetrig[i] = 1;
 705:fjol.cpp      ****       shiftvoices();
 706:fjol.cpp      ****       voicefreqtarget[i] = freq_note;
 707:fjol.cpp      ****       if(envelope[i].env.IsRunning())
 708:fjol.cpp      ****       {
 709:fjol.cpp      ****         envelope[i].env.Retrigger(0);
 710:fjol.cpp      ****       }
 711:fjol.cpp      ****       return;
 712:fjol.cpp      ****      }
 713:fjol.cpp      ****   }
 714:fjol.cpp      ****  
 715:fjol.cpp      **** }...
 4206              		.loc 7 715 1 view .LVU1179
 4207 0064 38BD     		pop	{r3, r4, r5, pc}
 4208              	.LVL241:
 4209              	.L262:
 4210              	.LBB897:
 701:fjol.cpp      ****     if(voicehist[0] == i+1 && !voicetrig[i])
 4211              		.loc 7 701 28 discriminator 1 view .LVU1180
 4212 0066 1178     		ldrb	r1, [r2]	@ zero_extendqisi2
 4213 0068 0029     		cmp	r1, #0
 4214 006a F7D1     		bne	.L255
 703:fjol.cpp      ****       voicenote[i] = note;
 4215              		.loc 7 703 7 is_stmt 1 view .LVU1181
 4216              	.LBE897:
 4217              	.LBB898:
ARM GAS  /tmp/cca3rxWD.s 			page 122


 4218              	.LBB881:
 4219              		.loc 16 125 43 is_stmt 0 view .LVU1182
 4220 006c DFED1B7A 		vldr.32	s15, .L263+32
 4221              	.LBE881:
 4222              	.LBE898:
 4223              	.LBB899:
 706:fjol.cpp      ****       voicefreqtarget[i] = freq_note;
 4224              		.loc 7 706 26 view .LVU1183
 4225 0070 1B4A     		ldr	r2, .L263+36
 4226              	.LBE899:
 4227              	.LBB900:
 4228              	.LBB882:
 4229              		.loc 16 125 43 view .LVU1184
 4230 0072 60EE277A 		vmul.f32	s15, s0, s15
 4231              	.LBE882:
 4232              	.LBE900:
 4233              	.LBB901:
 4234              	.LBB887:
 4235              	.LBB888:
  71:DaisySP/Source/Control/adsr.h ****     }
  72:DaisySP/Source/Control/adsr.h ****     /** get the current envelope segment
  73:DaisySP/Source/Control/adsr.h ****         \return the segment of the envelope that the phase is currently located in.
  74:DaisySP/Source/Control/adsr.h ****     */
  75:DaisySP/Source/Control/adsr.h ****     inline uint8_t GetCurrentSegment() { return mode_; }
  76:DaisySP/Source/Control/adsr.h ****     /** Tells whether envelope is active
  77:DaisySP/Source/Control/adsr.h ****         \return true if the envelope is currently in any stage apart from idle.
  78:DaisySP/Source/Control/adsr.h ****     */
  79:DaisySP/Source/Control/adsr.h ****     inline bool IsRunning() const { return mode_ != ADSR_SEG_IDLE; }
 4236              		.loc 14 79 44 view .LVU1185
 4237 0076 1B4B     		ldr	r3, .L263+40
 4238              	.LVL242:
 4239              		.loc 14 79 44 view .LVU1186
 4240              	.LBE888:
 4241              	.LBE887:
 706:fjol.cpp      ****       voicefreqtarget[i] = freq_note;
 4242              		.loc 7 706 26 view .LVU1187
 4243 0078 02EB8E02 		add	r2, r2, lr, lsl #2
 4244              	.LBB891:
 4245              	.LBB889:
 4246              		.loc 14 79 44 view .LVU1188
 4247 007c 03EB8E13 		add	r3, r3, lr, lsl #6
 4248              	.LBE889:
 4249              	.LBE891:
 4250              	.LBE901:
 692:fjol.cpp      ****   float freq_note = mtof(note - 1) * pbend * octaveindex[octave];
 4251              		.loc 7 692 36 view .LVU1189
 4252 0080 67EEA67A 		vmul.f32	s15, s15, s13
 692:fjol.cpp      ****   float freq_note = mtof(note - 1) * pbend * octaveindex[octave];
 4253              		.loc 7 692 64 view .LVU1190
 4254 0084 67EE877A 		vmul.f32	s15, s15, s14
 4255              	.LBB902:
 706:fjol.cpp      ****       voicefreqtarget[i] = freq_note;
 4256              		.loc 7 706 26 view .LVU1191
 4257 0088 C2ED007A 		vstr.32	s15, [r2]
 4258              	.LBB892:
 4259              	.LBB893:
 665:fjol.cpp      ****   temp = voicehist[3];
ARM GAS  /tmp/cca3rxWD.s 			page 123


 4260              		.loc 7 665 8 view .LVU1192
 4261 008c C278     		ldrb	r2, [r0, #3]	@ zero_extendqisi2
 669:fjol.cpp      ****   voicehist[0] = temp;
 4262              		.loc 7 669 16 view .LVU1193
 4263 008e 0270     		strb	r2, [r0]
 666:fjol.cpp      ****   voicehist[3] = voicehist[2];
 4264              		.loc 7 666 16 view .LVU1194
 4265 0090 8278     		ldrb	r2, [r0, #2]	@ zero_extendqisi2
 4266 0092 C270     		strb	r2, [r0, #3]
 667:fjol.cpp      ****   voicehist[2] = voicehist[1];
 4267              		.loc 7 667 16 view .LVU1195
 4268 0094 4278     		ldrb	r2, [r0, #1]	@ zero_extendqisi2
 668:fjol.cpp      ****   voicehist[1] = voicehist[0];
 4269              		.loc 7 668 16 view .LVU1196
 4270 0096 80F801C0 		strb	ip, [r0, #1]
 667:fjol.cpp      ****   voicehist[2] = voicehist[1];
 4271              		.loc 7 667 16 view .LVU1197
 4272 009a 8270     		strb	r2, [r0, #2]
 4273              	.LBE893:
 4274              	.LBE892:
 703:fjol.cpp      ****       voicenote[i] = note;
 4275              		.loc 7 703 20 view .LVU1198
 4276 009c 124A     		ldr	r2, .L263+44
 4277 009e 02F80E40 		strb	r4, [r2, lr]
 704:fjol.cpp      ****       voicetrig[i] = 1;
 4278              		.loc 7 704 7 is_stmt 1 view .LVU1199
 704:fjol.cpp      ****       voicetrig[i] = 1;
 4279              		.loc 7 704 20 is_stmt 0 view .LVU1200
 4280 00a2 0122     		movs	r2, #1
 4281 00a4 05F80E20 		strb	r2, [r5, lr]
 705:fjol.cpp      ****       shiftvoices();
 4282              		.loc 7 705 7 is_stmt 1 view .LVU1201
 4283              	.LBB895:
 4284              	.LBI892:
 662:fjol.cpp      **** void shiftvoices()
 4285              		.loc 7 662 6 view .LVU1202
 4286              	.LBB894:
 664:fjol.cpp      ****   uint8_t temp;
 4287              		.loc 7 664 3 view .LVU1203
 665:fjol.cpp      ****   temp = voicehist[3];
 4288              		.loc 7 665 3 view .LVU1204
 4289              	.LVL243:
 666:fjol.cpp      ****   voicehist[3] = voicehist[2];
 4290              		.loc 7 666 3 view .LVU1205
 667:fjol.cpp      ****   voicehist[2] = voicehist[1];
 4291              		.loc 7 667 3 view .LVU1206
 668:fjol.cpp      ****   voicehist[1] = voicehist[0];
 4292              		.loc 7 668 3 view .LVU1207
 669:fjol.cpp      ****   voicehist[0] = temp;
 4293              		.loc 7 669 3 view .LVU1208
 669:fjol.cpp      ****   voicehist[0] = temp;
 4294              		.loc 7 669 3 is_stmt 0 view .LVU1209
 4295              	.LBE894:
 4296              	.LBE895:
 706:fjol.cpp      ****       voicefreqtarget[i] = freq_note;
 4297              		.loc 7 706 7 is_stmt 1 view .LVU1210
 707:fjol.cpp      ****       if(envelope[i].env.IsRunning())
ARM GAS  /tmp/cca3rxWD.s 			page 124


 4298              		.loc 7 707 7 view .LVU1211
 4299              	.LBB896:
 4300              	.LBI887:
 4301              		.loc 14 79 17 view .LVU1212
 4302              	.LBB890:
 4303              		.loc 14 79 37 view .LVU1213
 4304              		.loc 14 79 37 is_stmt 0 view .LVU1214
 4305              	.LBE890:
 4306              	.LBE896:
 707:fjol.cpp      ****       if(envelope[i].env.IsRunning())
 4307              		.loc 7 707 7 view .LVU1215
 4308 00a8 93F82C20 		ldrb	r2, [r3, #44]	@ zero_extendqisi2
 4309 00ac 002A     		cmp	r2, #0
 4310 00ae D9D0     		beq	.L251
 709:fjol.cpp      ****         envelope[i].env.Retrigger(0);
 4311              		.loc 7 709 9 is_stmt 1 view .LVU1216
 709:fjol.cpp      ****         envelope[i].env.Retrigger(0);
 4312              		.loc 7 709 34 is_stmt 0 view .LVU1217
 4313 00b0 1846     		mov	r0, r3
 4314              	.LBE902:
 4315              		.loc 7 715 1 view .LVU1218
 4316 00b2 BDE83840 		pop	{r3, r4, r5, lr}
 4317              		.cfi_restore 14
 4318              		.cfi_restore 5
 4319              		.cfi_restore 4
 4320              		.cfi_restore 3
 4321              		.cfi_def_cfa_offset 0
 4322              	.LVL244:
 4323              	.LBB903:
 709:fjol.cpp      ****         envelope[i].env.Retrigger(0);
 4324              		.loc 7 709 34 view .LVU1219
 4325 00b6 FFF7FEBF 		b	_ZN7daisysp4Adsr9RetriggerEb
 4326              	.LVL245:
 4327              	.L264:
 709:fjol.cpp      ****         envelope[i].env.Retrigger(0);
 4328              		.loc 7 709 34 view .LVU1220
 4329 00ba 00BF     		.align	2
 4330              	.L263:
 4331 00bc 00008A42 		.word	1116340224
 4332 00c0 00000000 		.word	octave
 4333 00c4 00000000 		.word	octaveindex
 4334 00c8 00000000 		.word	gate_out
 4335 00cc 00000000 		.word	pbend
 4336 00d0 00000000 		.word	filtenv_trig
 4337 00d4 00000000 		.word	voicehist
 4338 00d8 00000000 		.word	voicetrig
 4339 00dc 0000DC43 		.word	1138491392
 4340 00e0 00000000 		.word	voicefreqtarget
 4341 00e4 00000000 		.word	.LANCHOR1
 4342 00e8 00000000 		.word	voicenote
 4343              	.LBE903:
 4344              		.cfi_endproc
 4345              	.LFE4836:
 4347              		.section	.text._ZN5daisy11MidiHandlerINS_17MidiUartTransportEE5ParseEh,"axG",%progbits,_ZN5daisy11
 4348              		.align	1
 4349              		.p2align 2,,3
 4350              		.weak	_ZN5daisy11MidiHandlerINS_17MidiUartTransportEE5ParseEh
ARM GAS  /tmp/cca3rxWD.s 			page 125


 4351              		.syntax unified
 4352              		.thumb
 4353              		.thumb_func
 4355              	_ZN5daisy11MidiHandlerINS_17MidiUartTransportEE5ParseEh:
 4356              	.LVL246:
 4357              	.LFB5270:
  86:libDaisy/src/hid/midi.h **** 
  87:libDaisy/src/hid/midi.h ****     struct Config
  88:libDaisy/src/hid/midi.h ****     {
  89:libDaisy/src/hid/midi.h ****         typename Transport::Config transport_config;
  90:libDaisy/src/hid/midi.h ****     };
  91:libDaisy/src/hid/midi.h **** 
  92:libDaisy/src/hid/midi.h ****     /** Initializes the MidiHandler 
  93:libDaisy/src/hid/midi.h ****      *  \param config Configuration structure used to define specifics to the MIDI Handler.
  94:libDaisy/src/hid/midi.h ****      */
  95:libDaisy/src/hid/midi.h ****     void Init(Config config)
  96:libDaisy/src/hid/midi.h ****     {
  97:libDaisy/src/hid/midi.h ****         config_ = config;
  98:libDaisy/src/hid/midi.h **** 
  99:libDaisy/src/hid/midi.h ****         transport_.Init(config_.transport_config);
 100:libDaisy/src/hid/midi.h **** 
 101:libDaisy/src/hid/midi.h ****         event_q_.Init();
 102:libDaisy/src/hid/midi.h ****         incoming_message_.type = MessageLast;
 103:libDaisy/src/hid/midi.h ****         pstate_                = ParserEmpty;
 104:libDaisy/src/hid/midi.h ****     }
 105:libDaisy/src/hid/midi.h **** 
 106:libDaisy/src/hid/midi.h ****     /** Starts listening on the selected input mode(s). MidiEvent Queue will begin to fill, and can
 107:libDaisy/src/hid/midi.h ****     void StartReceive() { transport_.StartRx(); }
 108:libDaisy/src/hid/midi.h **** 
 109:libDaisy/src/hid/midi.h ****     /** Start listening */
 110:libDaisy/src/hid/midi.h ****     void Listen()
 111:libDaisy/src/hid/midi.h ****     {
 112:libDaisy/src/hid/midi.h ****         uint32_t now;
 113:libDaisy/src/hid/midi.h ****         now = System::GetNow();
 114:libDaisy/src/hid/midi.h ****         while(transport_.Readable())
 115:libDaisy/src/hid/midi.h ****         {
 116:libDaisy/src/hid/midi.h ****             last_read_ = now;
 117:libDaisy/src/hid/midi.h ****             Parse(transport_.Rx());
 118:libDaisy/src/hid/midi.h ****         }
 119:libDaisy/src/hid/midi.h **** 
 120:libDaisy/src/hid/midi.h ****         // In case of UART Error, (particularly
 121:libDaisy/src/hid/midi.h ****         //  overrun error), UART disables itself.
 122:libDaisy/src/hid/midi.h ****         // Flush the buff, and restart.
 123:libDaisy/src/hid/midi.h ****         if(!transport_.RxActive())
 124:libDaisy/src/hid/midi.h ****         {
 125:libDaisy/src/hid/midi.h ****             pstate_ = ParserEmpty;
 126:libDaisy/src/hid/midi.h ****             transport_.FlushRx();
 127:libDaisy/src/hid/midi.h ****             StartReceive();
 128:libDaisy/src/hid/midi.h ****         }
 129:libDaisy/src/hid/midi.h ****     }
 130:libDaisy/src/hid/midi.h **** 
 131:libDaisy/src/hid/midi.h ****     /** Checks if there are unhandled messages in the queue 
 132:libDaisy/src/hid/midi.h ****     \return True if there are events to be handled, else false.
 133:libDaisy/src/hid/midi.h ****      */
 134:libDaisy/src/hid/midi.h ****     bool HasEvents() const { return event_q_.readable(); }
 135:libDaisy/src/hid/midi.h **** 
 136:libDaisy/src/hid/midi.h **** 
ARM GAS  /tmp/cca3rxWD.s 			page 126


 137:libDaisy/src/hid/midi.h ****     /** Pops the oldest unhandled MidiEvent from the internal queue
 138:libDaisy/src/hid/midi.h ****     \return The event to be handled
 139:libDaisy/src/hid/midi.h ****      */
 140:libDaisy/src/hid/midi.h ****     MidiEvent PopEvent() { return event_q_.Read(); }
 141:libDaisy/src/hid/midi.h **** 
 142:libDaisy/src/hid/midi.h ****     /** SendMessage
 143:libDaisy/src/hid/midi.h ****     Send raw bytes as message
 144:libDaisy/src/hid/midi.h ****     */
 145:libDaisy/src/hid/midi.h ****     void SendMessage(uint8_t* bytes, size_t size)
 146:libDaisy/src/hid/midi.h ****     {
 147:libDaisy/src/hid/midi.h ****         transport_.Tx(bytes, size);
 148:libDaisy/src/hid/midi.h ****     }
 149:libDaisy/src/hid/midi.h **** 
 150:libDaisy/src/hid/midi.h ****     /** Feed in bytes to state machine from a queue.
 151:libDaisy/src/hid/midi.h ****     Populates internal FIFO queue with MIDI Messages
 152:libDaisy/src/hid/midi.h ****     For example with uart:
 153:libDaisy/src/hid/midi.h ****     midi.Parse(uart.PopRx());
 154:libDaisy/src/hid/midi.h ****     \param byte &
 155:libDaisy/src/hid/midi.h ****     */
 156:libDaisy/src/hid/midi.h ****     void Parse(uint8_t byte)
 4358              		.loc 9 156 10 is_stmt 1 view -0
 4359              		.cfi_startproc
 4360              		@ args = 0, pretend = 0, frame = 288
 4361              		@ frame_needed = 0, uses_anonymous_args = 0
 4362              		.loc 9 156 10 is_stmt 0 view .LVU1222
 4363 0000 2DE9F041 		push	{r4, r5, r6, r7, r8, lr}
 4364              		.cfi_def_cfa_offset 24
 4365              		.cfi_offset 4, -24
 4366              		.cfi_offset 5, -20
 4367              		.cfi_offset 6, -16
 4368              		.cfi_offset 7, -12
 4369              		.cfi_offset 8, -8
 4370              		.cfi_offset 14, -4
 157:libDaisy/src/hid/midi.h ****     {
 158:libDaisy/src/hid/midi.h ****         // reset parser when status byte is received
 159:libDaisy/src/hid/midi.h ****         if((byte & kStatusByteMask) && pstate_ != ParserSysEx)
 4371              		.loc 9 159 20 view .LVU1223
 4372 0004 00F51044 		add	r4, r0, #36864
 156:libDaisy/src/hid/midi.h ****     {
 4373              		.loc 9 156 10 view .LVU1224
 4374 0008 C8B0     		sub	sp, sp, #288
 4375              		.cfi_def_cfa_offset 312
 156:libDaisy/src/hid/midi.h ****     {
 4376              		.loc 9 156 10 view .LVU1225
 4377 000a 0546     		mov	r5, r0
 4378              		.loc 9 159 18 view .LVU1226
 4379 000c 94F8B430 		ldrb	r3, [r4, #180]	@ zero_extendqisi2
 4380              		.loc 9 159 9 view .LVU1227
 4381 0010 1942     		tst	r1, r3
 4382              		.loc 9 159 37 view .LVU1228
 4383 0012 0379     		ldrb	r3, [r0, #4]	@ zero_extendqisi2
 4384              		.loc 9 159 9 view .LVU1229
 4385 0014 18D0     		beq	.L266
 4386              		.loc 9 159 37 discriminator 1 view .LVU1230
 4387 0016 032B     		cmp	r3, #3
 4388 0018 1CD0     		beq	.L267
 160:libDaisy/src/hid/midi.h ****         {
ARM GAS  /tmp/cca3rxWD.s 			page 127


 161:libDaisy/src/hid/midi.h ****             pstate_ = ParserEmpty;
 4389              		.loc 9 161 21 view .LVU1231
 4390 001a 0022     		movs	r2, #0
 4391 001c 0271     		strb	r2, [r0, #4]
 162:libDaisy/src/hid/midi.h ****         }
 163:libDaisy/src/hid/midi.h ****         switch(pstate_)
 164:libDaisy/src/hid/midi.h ****         {
 165:libDaisy/src/hid/midi.h ****             case ParserEmpty:
 166:libDaisy/src/hid/midi.h ****                 // check byte for valid Status Byte
 167:libDaisy/src/hid/midi.h ****                 if(byte & kStatusByteMask)
 168:libDaisy/src/hid/midi.h ****                 {
 169:libDaisy/src/hid/midi.h ****                     // Get MessageType, and Channel
 170:libDaisy/src/hid/midi.h ****                     incoming_message_.channel = byte & kChannelMask;
 4392              		.loc 9 170 54 view .LVU1232
 4393 001e 94F8B830 		ldrb	r3, [r4, #184]	@ zero_extendqisi2
 4394 0022 0B40     		ands	r3, r3, r1
 4395 0024 C360     		str	r3, [r0, #12]
 171:libDaisy/src/hid/midi.h ****                     incoming_message_.type    = static_cast<MidiMessageType>(
 172:libDaisy/src/hid/midi.h ****                         (byte & kMessageMask) >> 4);
 4396              		.loc 9 172 31 view .LVU1233
 4397 0026 94F8B530 		ldrb	r3, [r4, #181]	@ zero_extendqisi2
 4398              		.loc 9 172 47 view .LVU1234
 4399 002a 0B40     		ands	r3, r3, r1
 4400 002c 1B09     		lsrs	r3, r3, #4
 173:libDaisy/src/hid/midi.h **** 
 174:libDaisy/src/hid/midi.h ****                     // Validate, and move on.
 175:libDaisy/src/hid/midi.h ****                     if(incoming_message_.type < MessageLast)
 4401              		.loc 9 175 21 view .LVU1235
 4402 002e 092B     		cmp	r3, #9
 171:libDaisy/src/hid/midi.h ****                     incoming_message_.type    = static_cast<MidiMessageType>(
 4403              		.loc 9 171 47 view .LVU1236
 4404 0030 0372     		strb	r3, [r0, #8]
 4405              		.loc 9 175 21 view .LVU1237
 4406 0032 06D8     		bhi	.L265
 176:libDaisy/src/hid/midi.h ****                     {
 177:libDaisy/src/hid/midi.h ****                         pstate_ = ParserHasStatus;
 4407              		.loc 9 177 33 view .LVU1238
 4408 0034 0120     		movs	r0, #1
 4409              	.LVL247:
 178:libDaisy/src/hid/midi.h ****                         // Mark this status byte as running_status
 179:libDaisy/src/hid/midi.h ****                         running_status_ = incoming_message_.type;
 180:libDaisy/src/hid/midi.h **** 
 181:libDaisy/src/hid/midi.h ****                         if(running_status_ == SystemCommon)
 4410              		.loc 9 181 25 view .LVU1239
 4411 0036 072B     		cmp	r3, #7
 177:libDaisy/src/hid/midi.h ****                         // Mark this status byte as running_status
 4412              		.loc 9 177 33 view .LVU1240
 4413 0038 2871     		strb	r0, [r5, #4]
 179:libDaisy/src/hid/midi.h **** 
 4414              		.loc 9 179 41 view .LVU1241
 4415 003a 84F8A430 		strb	r3, [r4, #164]
 4416              		.loc 9 181 25 view .LVU1242
 4417 003e 00F0E880 		beq	.L323
 4418              	.LVL248:
 4419              	.L265:
 182:libDaisy/src/hid/midi.h ****                         {
 183:libDaisy/src/hid/midi.h ****                             incoming_message_.channel = 0;
ARM GAS  /tmp/cca3rxWD.s 			page 128


 184:libDaisy/src/hid/midi.h ****                             //system real time = 1111 1xxx
 185:libDaisy/src/hid/midi.h ****                             if(byte & 0x08)
 186:libDaisy/src/hid/midi.h ****                             {
 187:libDaisy/src/hid/midi.h ****                                 incoming_message_.type = SystemRealTime;
 188:libDaisy/src/hid/midi.h ****                                 running_status_        = SystemRealTime;
 189:libDaisy/src/hid/midi.h ****                                 incoming_message_.srt_type
 190:libDaisy/src/hid/midi.h ****                                     = static_cast<SystemRealTimeType>(
 191:libDaisy/src/hid/midi.h ****                                         byte & kSystemRealTimeMask);
 192:libDaisy/src/hid/midi.h **** 
 193:libDaisy/src/hid/midi.h ****                                 //short circuit to start
 194:libDaisy/src/hid/midi.h ****                                 pstate_ = ParserEmpty;
 195:libDaisy/src/hid/midi.h ****                                 event_q_.Write(incoming_message_);
 196:libDaisy/src/hid/midi.h ****                             }
 197:libDaisy/src/hid/midi.h ****                             //system common
 198:libDaisy/src/hid/midi.h ****                             else
 199:libDaisy/src/hid/midi.h ****                             {
 200:libDaisy/src/hid/midi.h ****                                 incoming_message_.sc_type
 201:libDaisy/src/hid/midi.h ****                                     = static_cast<SystemCommonType>(byte
 202:libDaisy/src/hid/midi.h ****                                                                     & 0x07);
 203:libDaisy/src/hid/midi.h ****                                 //sysex
 204:libDaisy/src/hid/midi.h ****                                 if(incoming_message_.sc_type == SystemExclusive)
 205:libDaisy/src/hid/midi.h ****                                 {
 206:libDaisy/src/hid/midi.h ****                                     pstate_ = ParserSysEx;
 207:libDaisy/src/hid/midi.h ****                                     incoming_message_.sysex_message_len = 0;
 208:libDaisy/src/hid/midi.h ****                                 }
 209:libDaisy/src/hid/midi.h ****                                 //short circuit
 210:libDaisy/src/hid/midi.h ****                                 else if(incoming_message_.sc_type > SongSelect)
 211:libDaisy/src/hid/midi.h ****                                 {
 212:libDaisy/src/hid/midi.h ****                                     pstate_ = ParserEmpty;
 213:libDaisy/src/hid/midi.h ****                                     event_q_.Write(incoming_message_);
 214:libDaisy/src/hid/midi.h ****                                 }
 215:libDaisy/src/hid/midi.h ****                             }
 216:libDaisy/src/hid/midi.h ****                         }
 217:libDaisy/src/hid/midi.h ****                     }
 218:libDaisy/src/hid/midi.h ****                     // Else we'll keep waiting for a valid incoming status byte
 219:libDaisy/src/hid/midi.h ****                 }
 220:libDaisy/src/hid/midi.h ****                 else
 221:libDaisy/src/hid/midi.h ****                 {
 222:libDaisy/src/hid/midi.h ****                     // Handle as running status
 223:libDaisy/src/hid/midi.h ****                     incoming_message_.type    = running_status_;
 224:libDaisy/src/hid/midi.h ****                     incoming_message_.data[0] = byte & kDataByteMask;
 225:libDaisy/src/hid/midi.h ****                     //check for single byte running status, really this only applies to channel pre
 226:libDaisy/src/hid/midi.h ****                     if(running_status_ == ChannelPressure
 227:libDaisy/src/hid/midi.h ****                        || running_status_ == ProgramChange
 228:libDaisy/src/hid/midi.h ****                        || incoming_message_.sc_type == MTCQuarterFrame
 229:libDaisy/src/hid/midi.h ****                        || incoming_message_.sc_type == SongSelect)
 230:libDaisy/src/hid/midi.h ****                     {
 231:libDaisy/src/hid/midi.h ****                         //Send the single byte update
 232:libDaisy/src/hid/midi.h ****                         pstate_ = ParserEmpty;
 233:libDaisy/src/hid/midi.h ****                         event_q_.Write(incoming_message_);
 234:libDaisy/src/hid/midi.h ****                     }
 235:libDaisy/src/hid/midi.h ****                     else
 236:libDaisy/src/hid/midi.h ****                     {
 237:libDaisy/src/hid/midi.h ****                         pstate_
 238:libDaisy/src/hid/midi.h ****                             = ParserHasData0; //we need to get the 2nd byte yet.
 239:libDaisy/src/hid/midi.h ****                     }
 240:libDaisy/src/hid/midi.h ****                 }
ARM GAS  /tmp/cca3rxWD.s 			page 129


 241:libDaisy/src/hid/midi.h ****                 break;
 242:libDaisy/src/hid/midi.h ****             case ParserHasStatus:
 243:libDaisy/src/hid/midi.h ****                 if((byte & kStatusByteMask) == 0)
 244:libDaisy/src/hid/midi.h ****                 {
 245:libDaisy/src/hid/midi.h ****                     incoming_message_.data[0] = byte & kDataByteMask;
 246:libDaisy/src/hid/midi.h ****                     if(running_status_ == ChannelPressure
 247:libDaisy/src/hid/midi.h ****                        || running_status_ == ProgramChange
 248:libDaisy/src/hid/midi.h ****                        || incoming_message_.sc_type == MTCQuarterFrame
 249:libDaisy/src/hid/midi.h ****                        || incoming_message_.sc_type == SongSelect)
 250:libDaisy/src/hid/midi.h ****                     {
 251:libDaisy/src/hid/midi.h ****                         //these are just one data byte, so we short circuit back to start
 252:libDaisy/src/hid/midi.h ****                         pstate_ = ParserEmpty;
 253:libDaisy/src/hid/midi.h ****                         event_q_.Write(incoming_message_);
 254:libDaisy/src/hid/midi.h ****                     }
 255:libDaisy/src/hid/midi.h ****                     else
 256:libDaisy/src/hid/midi.h ****                     {
 257:libDaisy/src/hid/midi.h ****                         pstate_ = ParserHasData0;
 258:libDaisy/src/hid/midi.h ****                     }
 259:libDaisy/src/hid/midi.h **** 
 260:libDaisy/src/hid/midi.h ****                     //ChannelModeMessages (reserved Control Changes)
 261:libDaisy/src/hid/midi.h ****                     if(running_status_ == ControlChange
 262:libDaisy/src/hid/midi.h ****                        && incoming_message_.data[0] > 119)
 263:libDaisy/src/hid/midi.h ****                     {
 264:libDaisy/src/hid/midi.h ****                         incoming_message_.type = ChannelMode;
 265:libDaisy/src/hid/midi.h ****                         running_status_        = ChannelMode;
 266:libDaisy/src/hid/midi.h ****                         incoming_message_.cm_type
 267:libDaisy/src/hid/midi.h ****                             = static_cast<ChannelModeType>(
 268:libDaisy/src/hid/midi.h ****                                 incoming_message_.data[0] - 120);
 269:libDaisy/src/hid/midi.h ****                     }
 270:libDaisy/src/hid/midi.h ****                 }
 271:libDaisy/src/hid/midi.h ****                 else
 272:libDaisy/src/hid/midi.h ****                 {
 273:libDaisy/src/hid/midi.h ****                     // invalid message go back to start ;p
 274:libDaisy/src/hid/midi.h ****                     pstate_ = ParserEmpty;
 275:libDaisy/src/hid/midi.h ****                 }
 276:libDaisy/src/hid/midi.h ****                 break;
 277:libDaisy/src/hid/midi.h ****             case ParserHasData0:
 278:libDaisy/src/hid/midi.h ****                 if((byte & kStatusByteMask) == 0)
 279:libDaisy/src/hid/midi.h ****                 {
 280:libDaisy/src/hid/midi.h ****                     incoming_message_.data[1] = byte & kDataByteMask;
 281:libDaisy/src/hid/midi.h **** 
 282:libDaisy/src/hid/midi.h ****                     //velocity 0 NoteOns are NoteOffs
 283:libDaisy/src/hid/midi.h ****                     if(running_status_ == NoteOn
 284:libDaisy/src/hid/midi.h ****                        && incoming_message_.data[1] == 0)
 285:libDaisy/src/hid/midi.h ****                     {
 286:libDaisy/src/hid/midi.h ****                         incoming_message_.type = NoteOff;
 287:libDaisy/src/hid/midi.h ****                     }
 288:libDaisy/src/hid/midi.h **** 
 289:libDaisy/src/hid/midi.h ****                     // At this point the message is valid, and we can add this MidiEvent to the que
 290:libDaisy/src/hid/midi.h ****                     event_q_.Write(incoming_message_);
 291:libDaisy/src/hid/midi.h ****                 }
 292:libDaisy/src/hid/midi.h ****                 else
 293:libDaisy/src/hid/midi.h ****                 {
 294:libDaisy/src/hid/midi.h ****                     // invalid message go back to start ;p
 295:libDaisy/src/hid/midi.h ****                     pstate_ = ParserEmpty;
 296:libDaisy/src/hid/midi.h ****                 }
 297:libDaisy/src/hid/midi.h ****                 // Regardless, of whether the data was valid or not we go back to empty
ARM GAS  /tmp/cca3rxWD.s 			page 130


 298:libDaisy/src/hid/midi.h ****                 // because either the message is queued for handling or its not.
 299:libDaisy/src/hid/midi.h ****                 pstate_ = ParserEmpty;
 300:libDaisy/src/hid/midi.h ****                 break;
 301:libDaisy/src/hid/midi.h ****             case ParserSysEx:
 302:libDaisy/src/hid/midi.h ****                 // end of sysex
 303:libDaisy/src/hid/midi.h ****                 if(byte == 0xf7)
 304:libDaisy/src/hid/midi.h ****                 {
 305:libDaisy/src/hid/midi.h ****                     pstate_ = ParserEmpty;
 306:libDaisy/src/hid/midi.h ****                     event_q_.Write(incoming_message_);
 307:libDaisy/src/hid/midi.h ****                 }
 308:libDaisy/src/hid/midi.h ****                 else if(incoming_message_.sysex_message_len < SYSEX_BUFFER_LEN)
 309:libDaisy/src/hid/midi.h ****                 {
 310:libDaisy/src/hid/midi.h ****                     incoming_message_
 311:libDaisy/src/hid/midi.h ****                         .sysex_data[incoming_message_.sysex_message_len]
 312:libDaisy/src/hid/midi.h ****                         = byte;
 313:libDaisy/src/hid/midi.h ****                     incoming_message_.sysex_message_len++;
 314:libDaisy/src/hid/midi.h ****                 }
 315:libDaisy/src/hid/midi.h ****                 break;
 316:libDaisy/src/hid/midi.h ****             default: break;
 317:libDaisy/src/hid/midi.h ****         }
 318:libDaisy/src/hid/midi.h ****     }
 4420              		.loc 9 318 5 view .LVU1243
 4421 0042 48B0     		add	sp, sp, #288
 4422              		.cfi_remember_state
 4423              		.cfi_def_cfa_offset 24
 4424              		@ sp needed
 4425 0044 BDE8F081 		pop	{r4, r5, r6, r7, r8, pc}
 4426              	.LVL249:
 4427              	.L266:
 4428              		.cfi_restore_state
 163:libDaisy/src/hid/midi.h ****         {
 4429              		.loc 9 163 9 view .LVU1244
 4430 0048 032B     		cmp	r3, #3
 4431 004a FAD8     		bhi	.L265
 4432 004c DFE803F0 		tbb	[pc, r3]
 4433              	.L289:
 4434 0050 8D       		.byte	(.L275-.L289)/2
 4435 0051 11       		.byte	(.L279-.L289)/2
 4436 0052 58       		.byte	(.L284-.L289)/2
 4437 0053 02       		.byte	(.L267-.L289)/2
 4438              		.p2align 1
 4439              	.L267:
 303:libDaisy/src/hid/midi.h ****                 {
 4440              		.loc 9 303 17 view .LVU1245
 4441 0054 F729     		cmp	r1, #247
 4442 0056 00F0C380 		beq	.L324
 308:libDaisy/src/hid/midi.h ****                 {
 4443              		.loc 9 308 22 view .LVU1246
 4444 005a 95F99220 		ldrsb	r2, [r5, #146]
 308:libDaisy/src/hid/midi.h ****                 {
 4445              		.loc 9 308 43 view .LVU1247
 4446 005e 95F89230 		ldrb	r3, [r5, #146]	@ zero_extendqisi2
 308:libDaisy/src/hid/midi.h ****                 {
 4447              		.loc 9 308 22 view .LVU1248
 4448 0062 002A     		cmp	r2, #0
 4449 0064 EDDB     		blt	.L265
 312:libDaisy/src/hid/midi.h ****                     incoming_message_.sysex_message_len++;
ARM GAS  /tmp/cca3rxWD.s 			page 131


 4450              		.loc 9 312 25 view .LVU1249
 4451 0066 EA18     		adds	r2, r5, r3
 313:libDaisy/src/hid/midi.h ****                 }
 4452              		.loc 9 313 21 view .LVU1250
 4453 0068 0133     		adds	r3, r3, #1
 312:libDaisy/src/hid/midi.h ****                     incoming_message_.sysex_message_len++;
 4454              		.loc 9 312 25 view .LVU1251
 4455 006a 9174     		strb	r1, [r2, #18]
 313:libDaisy/src/hid/midi.h ****                 }
 4456              		.loc 9 313 21 view .LVU1252
 4457 006c 85F89230 		strb	r3, [r5, #146]
 4458              		.loc 9 318 5 view .LVU1253
 4459 0070 E7E7     		b	.L265
 4460              	.L279:
 245:libDaisy/src/hid/midi.h ****                     if(running_status_ == ChannelPressure
 4461              		.loc 9 245 54 view .LVU1254
 4462 0072 94F8B680 		ldrb	r8, [r4, #182]	@ zero_extendqisi2
 4463 0076 01EA0808 		and	r8, r1, r8
 245:libDaisy/src/hid/midi.h ****                     if(running_status_ == ChannelPressure
 4464              		.loc 9 245 47 view .LVU1255
 4465 007a 85F81080 		strb	r8, [r5, #16]
 246:libDaisy/src/hid/midi.h ****                        || running_status_ == ProgramChange
 4466              		.loc 9 246 24 view .LVU1256
 4467 007e 94F8A470 		ldrb	r7, [r4, #164]	@ zero_extendqisi2
 246:libDaisy/src/hid/midi.h ****                        || running_status_ == ProgramChange
 4468              		.loc 9 246 21 view .LVU1257
 4469 0082 3B1F     		subs	r3, r7, #4
 4470 0084 012B     		cmp	r3, #1
 4471 0086 06D9     		bls	.L280
 248:libDaisy/src/hid/midi.h ****                        || incoming_message_.sc_type == SongSelect)
 4472              		.loc 9 248 24 view .LVU1258
 4473 0088 95F89330 		ldrb	r3, [r5, #147]	@ zero_extendqisi2
 249:libDaisy/src/hid/midi.h ****                     {
 4474              		.loc 9 249 24 view .LVU1259
 4475 008c 03F0FD03 		and	r3, r3, #253
 4476 0090 012B     		cmp	r3, #1
 4477 0092 40F0BB80 		bne	.L281
 4478              	.L280:
 252:libDaisy/src/hid/midi.h ****                         event_q_.Write(incoming_message_);
 4479              		.loc 9 252 33 view .LVU1260
 4480 0096 0023     		movs	r3, #0
 4481 0098 6E46     		mov	r6, sp
 4482 009a 9022     		movs	r2, #144
 4483 009c 05F10801 		add	r1, r5, #8
 4484              	.LVL250:
 252:libDaisy/src/hid/midi.h ****                         event_q_.Write(incoming_message_);
 4485              		.loc 9 252 33 view .LVU1261
 4486 00a0 3046     		mov	r0, r6
 4487              	.LVL251:
 252:libDaisy/src/hid/midi.h ****                         event_q_.Write(incoming_message_);
 4488              		.loc 9 252 33 view .LVU1262
 4489 00a2 2B71     		strb	r3, [r5, #4]
 4490              	.LVL252:
 252:libDaisy/src/hid/midi.h ****                         event_q_.Write(incoming_message_);
 4491              		.loc 9 252 33 view .LVU1263
 4492 00a4 FFF7FEFF 		bl	memcpy
 4493              	.LVL253:
ARM GAS  /tmp/cca3rxWD.s 			page 132


 4494              	.LBB940:
 4495              	.LBI940:
 4496              		.file 17 "libDaisy/src/util/ringbuffer.h"
   1:libDaisy/src/util/ringbuffer.h **** #pragma once
   2:libDaisy/src/util/ringbuffer.h **** #ifndef DSY_RINGBUFFER_H
   3:libDaisy/src/util/ringbuffer.h **** #define DSY_RINGBUFFER_H
   4:libDaisy/src/util/ringbuffer.h **** 
   5:libDaisy/src/util/ringbuffer.h **** #include <algorithm>
   6:libDaisy/src/util/ringbuffer.h **** 
   7:libDaisy/src/util/ringbuffer.h **** namespace daisy
   8:libDaisy/src/util/ringbuffer.h **** {
   9:libDaisy/src/util/ringbuffer.h **** /** @addtogroup utility
  10:libDaisy/src/util/ringbuffer.h ****     @{
  11:libDaisy/src/util/ringbuffer.h **** */
  12:libDaisy/src/util/ringbuffer.h **** 
  13:libDaisy/src/util/ringbuffer.h **** /**
  14:libDaisy/src/util/ringbuffer.h **** Utility Ring Buffer \n 
  15:libDaisy/src/util/ringbuffer.h **** imported from pichenettes/stmlib
  16:libDaisy/src/util/ringbuffer.h **** */
  17:libDaisy/src/util/ringbuffer.h **** template <typename T, size_t size>
  18:libDaisy/src/util/ringbuffer.h **** class RingBuffer
  19:libDaisy/src/util/ringbuffer.h **** {
  20:libDaisy/src/util/ringbuffer.h ****   public:
  21:libDaisy/src/util/ringbuffer.h ****     RingBuffer() {}
  22:libDaisy/src/util/ringbuffer.h **** 
  23:libDaisy/src/util/ringbuffer.h ****     /** Initializes the Ring Buffer */
  24:libDaisy/src/util/ringbuffer.h ****     inline void Init() { read_ptr_ = write_ptr_ = 0; }
  25:libDaisy/src/util/ringbuffer.h **** 
  26:libDaisy/src/util/ringbuffer.h ****     /** \return The total size of the ring buffer */
  27:libDaisy/src/util/ringbuffer.h ****     inline size_t capacity() const { return size; }
  28:libDaisy/src/util/ringbuffer.h **** 
  29:libDaisy/src/util/ringbuffer.h ****     /** \return the number of samples that can be written to ring buffer without overwriting unread
  30:libDaisy/src/util/ringbuffer.h ****     inline size_t writable() const
  31:libDaisy/src/util/ringbuffer.h ****     {
  32:libDaisy/src/util/ringbuffer.h ****         return (read_ptr_ - write_ptr_ - 1) % size;
  33:libDaisy/src/util/ringbuffer.h ****     }
  34:libDaisy/src/util/ringbuffer.h **** 
  35:libDaisy/src/util/ringbuffer.h ****     /** \return number of unread elements in ring buffer */
  36:libDaisy/src/util/ringbuffer.h ****     inline size_t readable() const { return (write_ptr_ - read_ptr_) % size; }
  37:libDaisy/src/util/ringbuffer.h **** 
  38:libDaisy/src/util/ringbuffer.h ****     /** \returns True, if the buffer is empty. */
  39:libDaisy/src/util/ringbuffer.h ****     inline bool isEmpty() const { return write_ptr_ == read_ptr_; }
  40:libDaisy/src/util/ringbuffer.h **** 
  41:libDaisy/src/util/ringbuffer.h ****     /** Writes the value to the next available position in the ring buffer
  42:libDaisy/src/util/ringbuffer.h ****     \param v Value to write
  43:libDaisy/src/util/ringbuffer.h ****     */
  44:libDaisy/src/util/ringbuffer.h ****     inline void Write(T v)
 4497              		.loc 17 44 17 is_stmt 1 view .LVU1264
 4498              	.L282:
 4499              	.LBB941:
  45:libDaisy/src/util/ringbuffer.h ****     {
  46:libDaisy/src/util/ringbuffer.h ****         while(!writable())
 4500              		.loc 17 46 24 view .LVU1265
 4501              	.LBB942:
 4502              	.LBI942:
  30:libDaisy/src/util/ringbuffer.h ****     {
 4503              		.loc 17 30 19 view .LVU1266
ARM GAS  /tmp/cca3rxWD.s 			page 133


 4504              	.LBB943:
  32:libDaisy/src/util/ringbuffer.h ****     }
 4505              		.loc 17 32 17 is_stmt 0 view .LVU1267
 4506 00a8 D4F89830 		ldr	r3, [r4, #152]
  32:libDaisy/src/util/ringbuffer.h ****     }
 4507              		.loc 17 32 29 view .LVU1268
 4508 00ac D4F89C20 		ldr	r2, [r4, #156]
 4509              	.LVL254:
  32:libDaisy/src/util/ringbuffer.h ****     }
 4510              		.loc 17 32 40 view .LVU1269
 4511 00b0 013B     		subs	r3, r3, #1
 4512 00b2 9B1A     		subs	r3, r3, r2
  32:libDaisy/src/util/ringbuffer.h ****     }
 4513              		.loc 17 32 47 view .LVU1270
 4514 00b4 DBB2     		uxtb	r3, r3
 4515              	.LBE943:
 4516              	.LBE942:
 4517              		.loc 17 46 24 view .LVU1271
 4518 00b6 002B     		cmp	r3, #0
 4519 00b8 F6D0     		beq	.L282
 4520              	.LVL255:
 4521              		.loc 17 46 24 view .LVU1272
 4522 00ba 9022     		movs	r2, #144
 4523 00bc 3146     		mov	r1, r6
 4524 00be 0DEB0200 		add	r0, sp, r2
 4525 00c2 FFF7FEFF 		bl	memcpy
 4526              	.LVL256:
 4527              	.LBB944:
 4528              	.LBI944:
  47:libDaisy/src/util/ringbuffer.h ****             ;
  48:libDaisy/src/util/ringbuffer.h ****         Overwrite(v);
  49:libDaisy/src/util/ringbuffer.h ****     }
  50:libDaisy/src/util/ringbuffer.h **** 
  51:libDaisy/src/util/ringbuffer.h ****     /** Writes the new element to the ring buffer, overwriting unread data if necessary. 
  52:libDaisy/src/util/ringbuffer.h ****     \param v Value to overwrite
  53:libDaisy/src/util/ringbuffer.h ****      */
  54:libDaisy/src/util/ringbuffer.h ****     inline void Overwrite(T v)
 4529              		.loc 17 54 17 is_stmt 1 view .LVU1273
 4530              	.LBB945:
  55:libDaisy/src/util/ringbuffer.h ****     {
  56:libDaisy/src/util/ringbuffer.h ****         size_t w   = write_ptr_;
 4531              		.loc 17 56 16 is_stmt 0 view .LVU1274
 4532 00c6 D4F89C60 		ldr	r6, [r4, #156]
 4533              	.LVL257:
  57:libDaisy/src/util/ringbuffer.h ****         buffer_[w] = v;
 4534              		.loc 17 57 9 view .LVU1275
 4535 00ca 24A9     		add	r1, sp, #144
 4536 00cc 9022     		movs	r2, #144
 4537 00ce 06EBC600 		add	r0, r6, r6, lsl #3
  58:libDaisy/src/util/ringbuffer.h ****         write_ptr_ = (w + 1) % size;
 4538              		.loc 17 58 25 view .LVU1276
 4539 00d2 0136     		adds	r6, r6, #1
 4540              	.LVL258:
  57:libDaisy/src/util/ringbuffer.h ****         buffer_[w] = v;
 4541              		.loc 17 57 9 view .LVU1277
 4542 00d4 05EB0010 		add	r0, r5, r0, lsl #4
 4543              		.loc 17 58 30 view .LVU1278
ARM GAS  /tmp/cca3rxWD.s 			page 134


 4544 00d8 F6B2     		uxtb	r6, r6
 4545              	.LVL259:
  57:libDaisy/src/util/ringbuffer.h ****         buffer_[w] = v;
 4546              		.loc 17 57 9 view .LVU1279
 4547 00da 9830     		adds	r0, r0, #152
 4548 00dc FFF7FEFF 		bl	memcpy
 4549              	.LVL260:
 4550              		.loc 17 58 20 view .LVU1280
 4551 00e0 C4F89C60 		str	r6, [r4, #156]
 4552              	.LVL261:
 4553              	.L283:
 4554              		.loc 17 58 20 view .LVU1281
 4555              	.LBE945:
 4556              	.LBE944:
 4557              	.LBE941:
 4558              	.LBE940:
 262:libDaisy/src/hid/midi.h ****                     {
 4559              		.loc 9 262 24 view .LVU1282
 4560 00e4 B8F1770F 		cmp	r8, #119
 4561 00e8 ABD9     		bls	.L265
 4562 00ea 032F     		cmp	r7, #3
 4563 00ec A9D1     		bne	.L265
 264:libDaisy/src/hid/midi.h ****                         running_status_        = ChannelMode;
 4564              		.loc 9 264 48 view .LVU1283
 4565 00ee 0923     		movs	r3, #9
 268:libDaisy/src/hid/midi.h ****                     }
 4566              		.loc 9 268 59 view .LVU1284
 4567 00f0 A8F17801 		sub	r1, r8, #120
 264:libDaisy/src/hid/midi.h ****                         running_status_        = ChannelMode;
 4568              		.loc 9 264 48 view .LVU1285
 4569 00f4 2B72     		strb	r3, [r5, #8]
 265:libDaisy/src/hid/midi.h ****                         incoming_message_.cm_type
 4570              		.loc 9 265 48 view .LVU1286
 4571 00f6 84F8A430 		strb	r3, [r4, #164]
 267:libDaisy/src/hid/midi.h ****                                 incoming_message_.data[0] - 120);
 4572              		.loc 9 267 29 view .LVU1287
 4573 00fa 85F89510 		strb	r1, [r5, #149]
 4574 00fe A0E7     		b	.L265
 4575              	.LVL262:
 4576              	.L284:
 280:libDaisy/src/hid/midi.h **** 
 4577              		.loc 9 280 54 view .LVU1288
 4578 0100 94F8B630 		ldrb	r3, [r4, #182]	@ zero_extendqisi2
 4579 0104 1940     		ands	r1, r1, r3
 4580              	.LVL263:
 280:libDaisy/src/hid/midi.h **** 
 4581              		.loc 9 280 47 view .LVU1289
 4582 0106 6974     		strb	r1, [r5, #17]
 283:libDaisy/src/hid/midi.h ****                        && incoming_message_.data[1] == 0)
 4583              		.loc 9 283 21 view .LVU1290
 4584 0108 94F8A430 		ldrb	r3, [r4, #164]	@ zero_extendqisi2
 284:libDaisy/src/hid/midi.h ****                     {
 4585              		.loc 9 284 24 view .LVU1291
 4586 010c 012B     		cmp	r3, #1
 4587 010e 02D1     		bne	.L285
 4588 0110 0029     		cmp	r1, #0
 4589 0112 00F08C80 		beq	.L325
ARM GAS  /tmp/cca3rxWD.s 			page 135


 4590              	.L285:
 4591              	.LVL264:
 284:libDaisy/src/hid/midi.h ****                     {
 4592              		.loc 9 284 24 view .LVU1292
 4593 0116 6E46     		mov	r6, sp
 4594 0118 9022     		movs	r2, #144
 4595 011a 05F10801 		add	r1, r5, #8
 4596 011e 3046     		mov	r0, r6
 4597              	.LVL265:
 284:libDaisy/src/hid/midi.h ****                     {
 4598              		.loc 9 284 24 view .LVU1293
 4599 0120 FFF7FEFF 		bl	memcpy
 4600              	.LVL266:
 4601              	.LBB946:
 4602              	.LBI946:
  44:libDaisy/src/util/ringbuffer.h ****     {
 4603              		.loc 17 44 17 is_stmt 1 view .LVU1294
 4604              	.L286:
 4605              	.LBB947:
  46:libDaisy/src/util/ringbuffer.h ****             ;
 4606              		.loc 17 46 24 view .LVU1295
 4607              	.LBB948:
 4608              	.LBI948:
  30:libDaisy/src/util/ringbuffer.h ****     {
 4609              		.loc 17 30 19 view .LVU1296
 4610              	.LBB949:
  32:libDaisy/src/util/ringbuffer.h ****     }
 4611              		.loc 17 32 17 is_stmt 0 view .LVU1297
 4612 0124 D4F89830 		ldr	r3, [r4, #152]
  32:libDaisy/src/util/ringbuffer.h ****     }
 4613              		.loc 17 32 29 view .LVU1298
 4614 0128 D4F89C20 		ldr	r2, [r4, #156]
 4615              	.LVL267:
  32:libDaisy/src/util/ringbuffer.h ****     }
 4616              		.loc 17 32 40 view .LVU1299
 4617 012c 013B     		subs	r3, r3, #1
 4618 012e 9B1A     		subs	r3, r3, r2
  32:libDaisy/src/util/ringbuffer.h ****     }
 4619              		.loc 17 32 47 view .LVU1300
 4620 0130 DBB2     		uxtb	r3, r3
 4621              	.LBE949:
 4622              	.LBE948:
  46:libDaisy/src/util/ringbuffer.h ****             ;
 4623              		.loc 17 46 24 view .LVU1301
 4624 0132 002B     		cmp	r3, #0
 4625 0134 F6D0     		beq	.L286
 4626              	.LVL268:
  46:libDaisy/src/util/ringbuffer.h ****             ;
 4627              		.loc 17 46 24 view .LVU1302
 4628 0136 9022     		movs	r2, #144
 4629 0138 3146     		mov	r1, r6
 4630 013a 0DEB0200 		add	r0, sp, r2
 4631 013e FFF7FEFF 		bl	memcpy
 4632              	.LVL269:
 4633              	.LBB950:
 4634              	.LBI950:
  54:libDaisy/src/util/ringbuffer.h ****     {
ARM GAS  /tmp/cca3rxWD.s 			page 136


 4635              		.loc 17 54 17 is_stmt 1 view .LVU1303
 4636              	.LBB951:
  56:libDaisy/src/util/ringbuffer.h ****         buffer_[w] = v;
 4637              		.loc 17 56 16 is_stmt 0 view .LVU1304
 4638 0142 D4F89C60 		ldr	r6, [r4, #156]
 4639              	.LVL270:
  57:libDaisy/src/util/ringbuffer.h ****         write_ptr_ = (w + 1) % size;
 4640              		.loc 17 57 9 view .LVU1305
 4641 0146 24A9     		add	r1, sp, #144
 4642 0148 9022     		movs	r2, #144
 4643 014a 06EBC600 		add	r0, r6, r6, lsl #3
 4644              		.loc 17 58 25 view .LVU1306
 4645 014e 0136     		adds	r6, r6, #1
 4646              	.LVL271:
  57:libDaisy/src/util/ringbuffer.h ****         write_ptr_ = (w + 1) % size;
 4647              		.loc 17 57 9 view .LVU1307
 4648 0150 05EB0010 		add	r0, r5, r0, lsl #4
 4649              		.loc 17 58 30 view .LVU1308
 4650 0154 F6B2     		uxtb	r6, r6
 4651              	.LVL272:
  57:libDaisy/src/util/ringbuffer.h ****         write_ptr_ = (w + 1) % size;
 4652              		.loc 17 57 9 view .LVU1309
 4653 0156 9830     		adds	r0, r0, #152
 4654 0158 FFF7FEFF 		bl	memcpy
 4655              	.LVL273:
 4656              	.LBE951:
 4657              	.LBE950:
 4658              	.LBE947:
 4659              	.LBE946:
 299:libDaisy/src/hid/midi.h ****                 break;
 4660              		.loc 9 299 25 view .LVU1310
 4661 015c 0023     		movs	r3, #0
 4662              	.LBB955:
 4663              	.LBB954:
 4664              	.LBB953:
 4665              	.LBB952:
 4666              		.loc 17 58 20 view .LVU1311
 4667 015e C4F89C60 		str	r6, [r4, #156]
 4668              	.LVL274:
 4669              		.loc 17 58 20 view .LVU1312
 4670              	.LBE952:
 4671              	.LBE953:
 4672              	.LBE954:
 4673              	.LBE955:
 299:libDaisy/src/hid/midi.h ****                 break;
 4674              		.loc 9 299 25 view .LVU1313
 4675 0162 2B71     		strb	r3, [r5, #4]
 4676              		.loc 9 318 5 view .LVU1314
 4677 0164 48B0     		add	sp, sp, #288
 4678              		.cfi_remember_state
 4679              		.cfi_def_cfa_offset 24
 4680              		@ sp needed
 4681 0166 BDE8F081 		pop	{r4, r5, r6, r7, r8, pc}
 4682              	.LVL275:
 4683              	.L275:
 4684              		.cfi_restore_state
 223:libDaisy/src/hid/midi.h ****                     incoming_message_.data[0] = byte & kDataByteMask;
ARM GAS  /tmp/cca3rxWD.s 			page 137


 4685              		.loc 9 223 49 view .LVU1315
 4686 016a 94F8A430 		ldrb	r3, [r4, #164]	@ zero_extendqisi2
 223:libDaisy/src/hid/midi.h ****                     incoming_message_.data[0] = byte & kDataByteMask;
 4687              		.loc 9 223 47 view .LVU1316
 4688 016e 2B72     		strb	r3, [r5, #8]
 226:libDaisy/src/hid/midi.h ****                        || running_status_ == ProgramChange
 4689              		.loc 9 226 21 view .LVU1317
 4690 0170 043B     		subs	r3, r3, #4
 224:libDaisy/src/hid/midi.h ****                     //check for single byte running status, really this only applies to channel pre
 4691              		.loc 9 224 54 view .LVU1318
 4692 0172 94F8B620 		ldrb	r2, [r4, #182]	@ zero_extendqisi2
 226:libDaisy/src/hid/midi.h ****                        || running_status_ == ProgramChange
 4693              		.loc 9 226 21 view .LVU1319
 4694 0176 012B     		cmp	r3, #1
 224:libDaisy/src/hid/midi.h ****                     //check for single byte running status, really this only applies to channel pre
 4695              		.loc 9 224 54 view .LVU1320
 4696 0178 01EA0201 		and	r1, r1, r2
 4697              	.LVL276:
 224:libDaisy/src/hid/midi.h ****                     //check for single byte running status, really this only applies to channel pre
 4698              		.loc 9 224 47 view .LVU1321
 4699 017c 2974     		strb	r1, [r5, #16]
 226:libDaisy/src/hid/midi.h ****                        || running_status_ == ProgramChange
 4700              		.loc 9 226 21 view .LVU1322
 4701 017e 05D9     		bls	.L276
 228:libDaisy/src/hid/midi.h ****                        || incoming_message_.sc_type == SongSelect)
 4702              		.loc 9 228 24 view .LVU1323
 4703 0180 95F89330 		ldrb	r3, [r5, #147]	@ zero_extendqisi2
 229:libDaisy/src/hid/midi.h ****                     {
 4704              		.loc 9 229 24 view .LVU1324
 4705 0184 03F0FD03 		and	r3, r3, #253
 4706 0188 012B     		cmp	r3, #1
 4707 018a 3CD1     		bne	.L277
 4708              	.L276:
 232:libDaisy/src/hid/midi.h ****                         event_q_.Write(incoming_message_);
 4709              		.loc 9 232 33 view .LVU1325
 4710 018c 0023     		movs	r3, #0
 4711 018e 6E46     		mov	r6, sp
 4712 0190 9022     		movs	r2, #144
 4713 0192 05F10801 		add	r1, r5, #8
 4714 0196 3046     		mov	r0, r6
 4715              	.LVL277:
 232:libDaisy/src/hid/midi.h ****                         event_q_.Write(incoming_message_);
 4716              		.loc 9 232 33 view .LVU1326
 4717 0198 2B71     		strb	r3, [r5, #4]
 4718              	.LVL278:
 232:libDaisy/src/hid/midi.h ****                         event_q_.Write(incoming_message_);
 4719              		.loc 9 232 33 view .LVU1327
 4720 019a FFF7FEFF 		bl	memcpy
 4721              	.LVL279:
 4722              	.LBB956:
 4723              	.LBI956:
  44:libDaisy/src/util/ringbuffer.h ****     {
 4724              		.loc 17 44 17 is_stmt 1 view .LVU1328
 4725              	.L278:
 4726              	.LBB957:
  46:libDaisy/src/util/ringbuffer.h ****             ;
 4727              		.loc 17 46 24 view .LVU1329
ARM GAS  /tmp/cca3rxWD.s 			page 138


 4728              	.LBB958:
 4729              	.LBI958:
  30:libDaisy/src/util/ringbuffer.h ****     {
 4730              		.loc 17 30 19 view .LVU1330
 4731              	.LBB959:
  32:libDaisy/src/util/ringbuffer.h ****     }
 4732              		.loc 17 32 17 is_stmt 0 view .LVU1331
 4733 019e D4F89830 		ldr	r3, [r4, #152]
  32:libDaisy/src/util/ringbuffer.h ****     }
 4734              		.loc 17 32 29 view .LVU1332
 4735 01a2 D4F89C20 		ldr	r2, [r4, #156]
 4736              	.LVL280:
  32:libDaisy/src/util/ringbuffer.h ****     }
 4737              		.loc 17 32 40 view .LVU1333
 4738 01a6 013B     		subs	r3, r3, #1
 4739 01a8 9B1A     		subs	r3, r3, r2
  32:libDaisy/src/util/ringbuffer.h ****     }
 4740              		.loc 17 32 47 view .LVU1334
 4741 01aa DBB2     		uxtb	r3, r3
 4742              	.LBE959:
 4743              	.LBE958:
  46:libDaisy/src/util/ringbuffer.h ****             ;
 4744              		.loc 17 46 24 view .LVU1335
 4745 01ac 002B     		cmp	r3, #0
 4746 01ae F6D0     		beq	.L278
 4747              	.LVL281:
 4748              	.L322:
  46:libDaisy/src/util/ringbuffer.h ****             ;
 4749              		.loc 17 46 24 view .LVU1336
 4750 01b0 9022     		movs	r2, #144
 4751 01b2 3146     		mov	r1, r6
 4752 01b4 0DEB0200 		add	r0, sp, r2
 4753 01b8 FFF7FEFF 		bl	memcpy
 4754              	.LVL282:
 4755              	.LBE957:
 4756              	.LBE956:
 4757              	.LBB960:
 4758              	.LBB961:
 4759              	.LBB962:
 4760              	.LBI962:
  54:libDaisy/src/util/ringbuffer.h ****     {
 4761              		.loc 17 54 17 is_stmt 1 view .LVU1337
 4762              	.LBB963:
  56:libDaisy/src/util/ringbuffer.h ****         buffer_[w] = v;
 4763              		.loc 17 56 16 is_stmt 0 view .LVU1338
 4764 01bc D4F89C60 		ldr	r6, [r4, #156]
 4765              	.LVL283:
  57:libDaisy/src/util/ringbuffer.h ****         write_ptr_ = (w + 1) % size;
 4766              		.loc 17 57 9 view .LVU1339
 4767 01c0 24A9     		add	r1, sp, #144
 4768 01c2 9022     		movs	r2, #144
 4769 01c4 06EBC600 		add	r0, r6, r6, lsl #3
 4770              		.loc 17 58 25 view .LVU1340
 4771 01c8 0136     		adds	r6, r6, #1
 4772              	.LVL284:
  57:libDaisy/src/util/ringbuffer.h ****         write_ptr_ = (w + 1) % size;
 4773              		.loc 17 57 9 view .LVU1341
ARM GAS  /tmp/cca3rxWD.s 			page 139


 4774 01ca 05EB0010 		add	r0, r5, r0, lsl #4
 4775              		.loc 17 58 30 view .LVU1342
 4776 01ce F6B2     		uxtb	r6, r6
 4777              	.LVL285:
  57:libDaisy/src/util/ringbuffer.h ****         write_ptr_ = (w + 1) % size;
 4778              		.loc 17 57 9 view .LVU1343
 4779 01d0 9830     		adds	r0, r0, #152
 4780 01d2 FFF7FEFF 		bl	memcpy
 4781              	.LVL286:
 4782              		.loc 17 58 20 view .LVU1344
 4783 01d6 C4F89C60 		str	r6, [r4, #156]
 4784              		.loc 17 58 20 view .LVU1345
 4785              	.LBE963:
 4786              	.LBE962:
 4787              	.LBE961:
 4788              	.LBE960:
 4789              		.loc 9 318 5 view .LVU1346
 4790 01da 48B0     		add	sp, sp, #288
 4791              		.cfi_remember_state
 4792              		.cfi_def_cfa_offset 24
 4793              		@ sp needed
 4794 01dc BDE8F081 		pop	{r4, r5, r6, r7, r8, pc}
 4795              	.LVL287:
 4796              	.L324:
 4797              		.cfi_restore_state
 305:libDaisy/src/hid/midi.h ****                     event_q_.Write(incoming_message_);
 4798              		.loc 9 305 29 view .LVU1347
 4799 01e0 0023     		movs	r3, #0
 4800 01e2 6E46     		mov	r6, sp
 4801 01e4 9022     		movs	r2, #144
 4802 01e6 05F10801 		add	r1, r5, #8
 4803              	.LVL288:
 305:libDaisy/src/hid/midi.h ****                     event_q_.Write(incoming_message_);
 4804              		.loc 9 305 29 view .LVU1348
 4805 01ea 3046     		mov	r0, r6
 4806              	.LVL289:
 305:libDaisy/src/hid/midi.h ****                     event_q_.Write(incoming_message_);
 4807              		.loc 9 305 29 view .LVU1349
 4808 01ec 2B71     		strb	r3, [r5, #4]
 4809              	.LVL290:
 305:libDaisy/src/hid/midi.h ****                     event_q_.Write(incoming_message_);
 4810              		.loc 9 305 29 view .LVU1350
 4811 01ee FFF7FEFF 		bl	memcpy
 4812              	.LVL291:
 4813              	.LBB967:
 4814              	.LBI960:
  44:libDaisy/src/util/ringbuffer.h ****     {
 4815              		.loc 17 44 17 is_stmt 1 view .LVU1351
 4816              	.L288:
 4817              	.LBB966:
  46:libDaisy/src/util/ringbuffer.h ****             ;
 4818              		.loc 17 46 24 view .LVU1352
 4819              	.LBB964:
 4820              	.LBI964:
  30:libDaisy/src/util/ringbuffer.h ****     {
 4821              		.loc 17 30 19 view .LVU1353
 4822              	.LBB965:
ARM GAS  /tmp/cca3rxWD.s 			page 140


  32:libDaisy/src/util/ringbuffer.h ****     }
 4823              		.loc 17 32 17 is_stmt 0 view .LVU1354
 4824 01f2 D4F89830 		ldr	r3, [r4, #152]
  32:libDaisy/src/util/ringbuffer.h ****     }
 4825              		.loc 17 32 29 view .LVU1355
 4826 01f6 D4F89C20 		ldr	r2, [r4, #156]
 4827              	.LVL292:
  32:libDaisy/src/util/ringbuffer.h ****     }
 4828              		.loc 17 32 40 view .LVU1356
 4829 01fa 013B     		subs	r3, r3, #1
 4830 01fc 9B1A     		subs	r3, r3, r2
  32:libDaisy/src/util/ringbuffer.h ****     }
 4831              		.loc 17 32 47 view .LVU1357
 4832 01fe DBB2     		uxtb	r3, r3
 4833              	.LBE965:
 4834              	.LBE964:
  46:libDaisy/src/util/ringbuffer.h ****             ;
 4835              		.loc 17 46 24 view .LVU1358
 4836 0200 002B     		cmp	r3, #0
 4837 0202 F6D0     		beq	.L288
 4838 0204 D4E7     		b	.L322
 4839              	.LVL293:
 4840              	.L277:
  46:libDaisy/src/util/ringbuffer.h ****             ;
 4841              		.loc 17 46 24 view .LVU1359
 4842              	.LBE966:
 4843              	.LBE967:
 238:libDaisy/src/hid/midi.h ****                     }
 4844              		.loc 9 238 29 view .LVU1360
 4845 0206 0223     		movs	r3, #2
 4846 0208 2B71     		strb	r3, [r5, #4]
 4847 020a 1AE7     		b	.L265
 4848              	.LVL294:
 4849              	.L281:
 257:libDaisy/src/hid/midi.h ****                     }
 4850              		.loc 9 257 33 view .LVU1361
 4851 020c 0223     		movs	r3, #2
 4852 020e 2B71     		strb	r3, [r5, #4]
 4853 0210 68E7     		b	.L283
 4854              	.LVL295:
 4855              	.L323:
 185:libDaisy/src/hid/midi.h ****                             {
 4856              		.loc 9 185 29 view .LVU1362
 4857 0212 11F00800 		ands	r0, r1, #8
 183:libDaisy/src/hid/midi.h ****                             //system real time = 1111 1xxx
 4858              		.loc 9 183 55 view .LVU1363
 4859 0216 EA60     		str	r2, [r5, #12]
 185:libDaisy/src/hid/midi.h ****                             {
 4860              		.loc 9 185 29 view .LVU1364
 4861 0218 36D1     		bne	.L326
 202:libDaisy/src/hid/midi.h ****                                 //sysex
 4862              		.loc 9 202 69 view .LVU1365
 4863 021a 01F00703 		and	r3, r1, #7
 201:libDaisy/src/hid/midi.h ****                                                                     & 0x07);
 4864              		.loc 9 201 37 view .LVU1366
 4865 021e 85F89330 		strb	r3, [r5, #147]
 204:libDaisy/src/hid/midi.h ****                                 {
ARM GAS  /tmp/cca3rxWD.s 			page 141


 4866              		.loc 9 204 33 view .LVU1367
 4867 0222 3BB9     		cbnz	r3, .L273
 206:libDaisy/src/hid/midi.h ****                                     incoming_message_.sysex_message_len = 0;
 4868              		.loc 9 206 45 view .LVU1368
 4869 0224 0322     		movs	r2, #3
 207:libDaisy/src/hid/midi.h ****                                 }
 4870              		.loc 9 207 73 view .LVU1369
 4871 0226 85F89230 		strb	r3, [r5, #146]
 206:libDaisy/src/hid/midi.h ****                                     incoming_message_.sysex_message_len = 0;
 4872              		.loc 9 206 45 view .LVU1370
 4873 022a 2A71     		strb	r2, [r5, #4]
 4874 022c 09E7     		b	.L265
 4875              	.LVL296:
 4876              	.L325:
 286:libDaisy/src/hid/midi.h ****                     }
 4877              		.loc 9 286 48 view .LVU1371
 4878 022e 0023     		movs	r3, #0
 4879 0230 2B72     		strb	r3, [r5, #8]
 4880 0232 70E7     		b	.L285
 4881              	.LVL297:
 4882              	.L273:
 210:libDaisy/src/hid/midi.h ****                                 {
 4883              		.loc 9 210 38 view .LVU1372
 4884 0234 4B07     		lsls	r3, r1, #29
 4885 0236 7FF504AF 		bpl	.L265
 4886 023a 6E46     		mov	r6, sp
 212:libDaisy/src/hid/midi.h ****                                     event_q_.Write(incoming_message_);
 4887              		.loc 9 212 45 view .LVU1373
 4888 023c 2871     		strb	r0, [r5, #4]
 4889              	.LVL298:
 212:libDaisy/src/hid/midi.h ****                                     event_q_.Write(incoming_message_);
 4890              		.loc 9 212 45 view .LVU1374
 4891 023e 9022     		movs	r2, #144
 4892 0240 05F10801 		add	r1, r5, #8
 4893              	.LVL299:
 212:libDaisy/src/hid/midi.h ****                                     event_q_.Write(incoming_message_);
 4894              		.loc 9 212 45 view .LVU1375
 4895 0244 3046     		mov	r0, r6
 4896 0246 FFF7FEFF 		bl	memcpy
 4897              	.LVL300:
 4898              	.LBB968:
 4899              	.LBI968:
  44:libDaisy/src/util/ringbuffer.h ****     {
 4900              		.loc 17 44 17 is_stmt 1 view .LVU1376
 4901              	.L274:
 4902              	.LBB969:
  46:libDaisy/src/util/ringbuffer.h ****             ;
 4903              		.loc 17 46 24 view .LVU1377
 4904              	.LBB970:
 4905              	.LBI970:
  30:libDaisy/src/util/ringbuffer.h ****     {
 4906              		.loc 17 30 19 view .LVU1378
 4907              	.LBB971:
  32:libDaisy/src/util/ringbuffer.h ****     }
 4908              		.loc 17 32 17 is_stmt 0 view .LVU1379
 4909 024a D4F89830 		ldr	r3, [r4, #152]
  32:libDaisy/src/util/ringbuffer.h ****     }
ARM GAS  /tmp/cca3rxWD.s 			page 142


 4910              		.loc 17 32 29 view .LVU1380
 4911 024e D4F89C20 		ldr	r2, [r4, #156]
 4912              	.LVL301:
  32:libDaisy/src/util/ringbuffer.h ****     }
 4913              		.loc 17 32 40 view .LVU1381
 4914 0252 013B     		subs	r3, r3, #1
 4915 0254 9B1A     		subs	r3, r3, r2
  32:libDaisy/src/util/ringbuffer.h ****     }
 4916              		.loc 17 32 47 view .LVU1382
 4917 0256 DBB2     		uxtb	r3, r3
 4918              	.LBE971:
 4919              	.LBE970:
  46:libDaisy/src/util/ringbuffer.h ****             ;
 4920              		.loc 17 46 24 view .LVU1383
 4921 0258 002B     		cmp	r3, #0
 4922 025a F6D0     		beq	.L274
 4923              	.LVL302:
 4924              	.L321:
  46:libDaisy/src/util/ringbuffer.h ****             ;
 4925              		.loc 17 46 24 view .LVU1384
 4926 025c 9022     		movs	r2, #144
 4927 025e 3146     		mov	r1, r6
 4928 0260 0DEB0200 		add	r0, sp, r2
 4929 0264 FFF7FEFF 		bl	memcpy
 4930              	.LVL303:
 4931              	.LBB972:
 4932              	.LBI972:
  54:libDaisy/src/util/ringbuffer.h ****     {
 4933              		.loc 17 54 17 is_stmt 1 view .LVU1385
 4934              	.LBB973:
  56:libDaisy/src/util/ringbuffer.h ****         buffer_[w] = v;
 4935              		.loc 17 56 16 is_stmt 0 view .LVU1386
 4936 0268 D4F89C60 		ldr	r6, [r4, #156]
 4937              	.LVL304:
  57:libDaisy/src/util/ringbuffer.h ****         write_ptr_ = (w + 1) % size;
 4938              		.loc 17 57 9 view .LVU1387
 4939 026c 24A9     		add	r1, sp, #144
 4940 026e 9022     		movs	r2, #144
 4941 0270 06EBC600 		add	r0, r6, r6, lsl #3
 4942 0274 05EB0010 		add	r0, r5, r0, lsl #4
 4943 0278 9830     		adds	r0, r0, #152
 4944 027a FFF7FEFF 		bl	memcpy
 4945              	.LVL305:
 4946              		.loc 17 58 25 view .LVU1388
 4947 027e 731C     		adds	r3, r6, #1
 4948              		.loc 17 58 30 view .LVU1389
 4949 0280 DBB2     		uxtb	r3, r3
 4950              		.loc 17 58 20 view .LVU1390
 4951 0282 C4F89C30 		str	r3, [r4, #156]
 4952              	.LVL306:
 4953              		.loc 17 58 20 view .LVU1391
 4954              	.LBE973:
 4955              	.LBE972:
 4956              	.LBE969:
 4957              	.LBE968:
 4958 0286 DCE6     		b	.L265
 4959              	.LVL307:
ARM GAS  /tmp/cca3rxWD.s 			page 143


 4960              	.L326:
 187:libDaisy/src/hid/midi.h ****                                 running_status_        = SystemRealTime;
 4961              		.loc 9 187 56 view .LVU1392
 4962 0288 0823     		movs	r3, #8
 4963 028a 6E46     		mov	r6, sp
 4964 028c 2B72     		strb	r3, [r5, #8]
 4965 028e 3046     		mov	r0, r6
 188:libDaisy/src/hid/midi.h ****                                 incoming_message_.srt_type
 4966              		.loc 9 188 56 view .LVU1393
 4967 0290 84F8A430 		strb	r3, [r4, #164]
 191:libDaisy/src/hid/midi.h **** 
 4968              		.loc 9 191 46 view .LVU1394
 4969 0294 94F8BA30 		ldrb	r3, [r4, #186]	@ zero_extendqisi2
 194:libDaisy/src/hid/midi.h ****                                 event_q_.Write(incoming_message_);
 4970              		.loc 9 194 41 view .LVU1395
 4971 0298 2A71     		strb	r2, [r5, #4]
 4972              	.LVL308:
 194:libDaisy/src/hid/midi.h ****                                 event_q_.Write(incoming_message_);
 4973              		.loc 9 194 41 view .LVU1396
 4974 029a 9022     		movs	r2, #144
 191:libDaisy/src/hid/midi.h **** 
 4975              		.loc 9 191 46 view .LVU1397
 4976 029c 1940     		ands	r1, r1, r3
 4977              	.LVL309:
 190:libDaisy/src/hid/midi.h ****                                         byte & kSystemRealTimeMask);
 4978              		.loc 9 190 37 view .LVU1398
 4979 029e 85F89410 		strb	r1, [r5, #148]
 4980 02a2 05F10801 		add	r1, r5, #8
 4981 02a6 FFF7FEFF 		bl	memcpy
 4982              	.LVL310:
 4983              	.LBB974:
 4984              	.LBI974:
  44:libDaisy/src/util/ringbuffer.h ****     {
 4985              		.loc 17 44 17 is_stmt 1 view .LVU1399
 4986              	.L272:
 4987              	.LBB975:
  46:libDaisy/src/util/ringbuffer.h ****             ;
 4988              		.loc 17 46 24 view .LVU1400
 4989              	.LBB976:
 4990              	.LBI976:
  30:libDaisy/src/util/ringbuffer.h ****     {
 4991              		.loc 17 30 19 view .LVU1401
 4992              	.LBB977:
  32:libDaisy/src/util/ringbuffer.h ****     }
 4993              		.loc 17 32 17 is_stmt 0 view .LVU1402
 4994 02aa D4F89830 		ldr	r3, [r4, #152]
  32:libDaisy/src/util/ringbuffer.h ****     }
 4995              		.loc 17 32 29 view .LVU1403
 4996 02ae D4F89C20 		ldr	r2, [r4, #156]
 4997              	.LVL311:
  32:libDaisy/src/util/ringbuffer.h ****     }
 4998              		.loc 17 32 40 view .LVU1404
 4999 02b2 013B     		subs	r3, r3, #1
 5000 02b4 9B1A     		subs	r3, r3, r2
  32:libDaisy/src/util/ringbuffer.h ****     }
 5001              		.loc 17 32 47 view .LVU1405
 5002 02b6 DBB2     		uxtb	r3, r3
ARM GAS  /tmp/cca3rxWD.s 			page 144


 5003              	.LBE977:
 5004              	.LBE976:
  46:libDaisy/src/util/ringbuffer.h ****             ;
 5005              		.loc 17 46 24 view .LVU1406
 5006 02b8 002B     		cmp	r3, #0
 5007 02ba F6D0     		beq	.L272
 5008 02bc CEE7     		b	.L321
 5009              	.LBE975:
 5010              	.LBE974:
 5011              		.cfi_endproc
 5012              	.LFE5270:
 5014 02be 00BF     		.section	.text.startup.main,"ax",%progbits
 5015              		.align	1
 5016              		.p2align 2,,3
 5017              		.global	main
 5018              		.syntax unified
 5019              		.thumb
 5020              		.thumb_func
 5022              	main:
 5023              	.LFB4811:
 177:fjol.cpp      **** {
 5024              		.loc 7 177 1 is_stmt 1 view -0
 5025              		.cfi_startproc
 5026              		@ args = 0, pretend = 0, frame = 152
 5027              		@ frame_needed = 0, uses_anonymous_args = 0
 180:fjol.cpp      ****   i2c.Init(i2c_config);
 5028              		.loc 7 180 3 view .LVU1408
 177:fjol.cpp      **** {
 5029              		.loc 7 177 1 is_stmt 0 view .LVU1409
 5030 0000 2DE9F04F 		push	{r4, r5, r6, r7, r8, r9, r10, fp, lr}
 5031              		.cfi_def_cfa_offset 36
 5032              		.cfi_offset 4, -36
 5033              		.cfi_offset 5, -32
 5034              		.cfi_offset 6, -28
 5035              		.cfi_offset 7, -24
 5036              		.cfi_offset 8, -20
 5037              		.cfi_offset 9, -16
 5038              		.cfi_offset 10, -12
 5039              		.cfi_offset 11, -8
 5040              		.cfi_offset 14, -4
 180:fjol.cpp      ****   i2c.Init(i2c_config);
 5041              		.loc 7 180 11 view .LVU1410
 5042 0004 7F49     		ldr	r1, .L366
 177:fjol.cpp      **** {
 5043              		.loc 7 177 1 view .LVU1411
 5044 0006 C7B0     		sub	sp, sp, #284
 5045              		.cfi_def_cfa_offset 320
 180:fjol.cpp      ****   i2c.Init(i2c_config);
 5046              		.loc 7 180 11 view .LVU1412
 5047 0008 7F48     		ldr	r0, .L366+4
 5048 000a FFF7FEFF 		bl	_ZN5daisy9I2CHandle4InitERKNS0_6ConfigE
 5049              	.LVL312:
 182:fjol.cpp      ****   initializeadc();
 5050              		.loc 7 182 3 is_stmt 1 view .LVU1413
 182:fjol.cpp      ****   initializeadc();
 5051              		.loc 7 182 16 is_stmt 0 view .LVU1414
 5052 000e FFF7FEFF 		bl	_Z13initializeadcv
ARM GAS  /tmp/cca3rxWD.s 			page 145


 5053              	.LVL313:
 185:fjol.cpp      ****   hw.adc.Init(&adcConfig, 1);
 5054              		.loc 7 185 3 is_stmt 1 view .LVU1415
 185:fjol.cpp      ****   hw.adc.Init(&adcConfig, 1);
 5055              		.loc 7 185 14 is_stmt 0 view .LVU1416
 5056 0012 0423     		movs	r3, #4
 5057 0014 0122     		movs	r2, #1
 5058 0016 7D49     		ldr	r1, .L366+8
 5059 0018 7D48     		ldr	r0, .L366+12
 5060 001a FFF7FEFF 		bl	_ZN5daisy9AdcHandle4InitEPNS_16AdcChannelConfigEjNS0_12OverSamplingE
 5061              	.LVL314:
 186:fjol.cpp      ****   hw.Init();
 5062              		.loc 7 186 3 is_stmt 1 view .LVU1417
 186:fjol.cpp      ****   hw.Init();
 5063              		.loc 7 186 10 is_stmt 0 view .LVU1418
 5064 001e 0021     		movs	r1, #0
 5065 0020 7C48     		ldr	r0, .L366+16
 5066 0022 FFF7FEFF 		bl	_ZN5daisy9DaisySeed4InitEb
 5067              	.LVL315:
 187:fjol.cpp      ****   hw.SetAudioBlockSize(2);
 5068              		.loc 7 187 3 is_stmt 1 view .LVU1419
 187:fjol.cpp      ****   hw.SetAudioBlockSize(2);
 5069              		.loc 7 187 23 is_stmt 0 view .LVU1420
 5070 0026 0221     		movs	r1, #2
 5071 0028 7A48     		ldr	r0, .L366+16
 5072 002a FFF7FEFF 		bl	_ZN5daisy9DaisySeed17SetAudioBlockSizeEj
 5073              	.LVL316:
 189:fjol.cpp      ****   initializecontrols();
 5074              		.loc 7 189 3 is_stmt 1 view .LVU1421
 189:fjol.cpp      ****   initializecontrols();
 5075              		.loc 7 189 21 is_stmt 0 view .LVU1422
 5076 002e FFF7FEFF 		bl	_Z18initializecontrolsv
 5077              	.LVL317:
 192:fjol.cpp      ****   updatecontrols();
 5078              		.loc 7 192 3 is_stmt 1 view .LVU1423
 192:fjol.cpp      ****   updatecontrols();
 5079              		.loc 7 192 17 is_stmt 0 view .LVU1424
 5080 0032 FFF7FEFF 		bl	_Z14updatecontrolsv
 5081              	.LVL318:
 193:fjol.cpp      ****   shift_sw.Debounce();
 5082              		.loc 7 193 3 is_stmt 1 view .LVU1425
 193:fjol.cpp      ****   shift_sw.Debounce();
 5083              		.loc 7 193 20 is_stmt 0 view .LVU1426
 5084 0036 7848     		ldr	r0, .L366+20
 5085 0038 FFF7FEFF 		bl	_ZN5daisy6Switch8DebounceEv
 5086              	.LVL319:
 194:fjol.cpp      ****   if(shift_sw.Pressed())
 5087              		.loc 7 194 3 is_stmt 1 view .LVU1427
 5088              	.LBB1028:
 5089              	.LBI1028:
 5090              		.loc 1 79 17 view .LVU1428
 5091              	.LBB1029:
 5092              		.loc 1 79 35 view .LVU1429
 5093              		.loc 1 79 35 is_stmt 0 view .LVU1430
 5094              	.LBE1029:
 5095              	.LBE1028:
 194:fjol.cpp      ****   if(shift_sw.Pressed())
ARM GAS  /tmp/cca3rxWD.s 			page 146


 5096              		.loc 7 194 3 view .LVU1431
 5097 003c 764B     		ldr	r3, .L366+20
 5098 003e 9B7A     		ldrb	r3, [r3, #10]	@ zero_extendqisi2
 5099 0040 FF2B     		cmp	r3, #255
 5100 0042 00F0DC80 		beq	.L364
 5101              	.L328:
 198:fjol.cpp      ****   getorsetsettings(load); //get settings from EEPROM
 5102              		.loc 7 198 3 is_stmt 1 view .LVU1432
 198:fjol.cpp      ****   getorsetsettings(load); //get settings from EEPROM
 5103              		.loc 7 198 19 is_stmt 0 view .LVU1433
 5104 0046 0020     		movs	r0, #0
 204:fjol.cpp      ****   startPCA9622();
 5105              		.loc 7 204 15 view .LVU1434
 5106 0048 0224     		movs	r4, #2
 198:fjol.cpp      ****   getorsetsettings(load); //get settings from EEPROM
 5107              		.loc 7 198 19 view .LVU1435
 5108 004a FFF7FEFF 		bl	_Z16getorsetsettingsb
 5109              	.LVL320:
 200:fjol.cpp      ****   samplerate = hw.AudioSampleRate();
 5110              		.loc 7 200 3 is_stmt 1 view .LVU1436
 200:fjol.cpp      ****   samplerate = hw.AudioSampleRate();
 5111              		.loc 7 200 34 is_stmt 0 view .LVU1437
 5112 004e 7148     		ldr	r0, .L366+16
 5113 0050 FFF7FEFF 		bl	_ZN5daisy9DaisySeed15AudioSampleRateEv
 5114              	.LVL321:
 200:fjol.cpp      ****   samplerate = hw.AudioSampleRate();
 5115              		.loc 7 200 14 view .LVU1438
 5116 0054 714B     		ldr	r3, .L366+24
 5117 0056 22AD     		add	r5, sp, #136
 5118 0058 83ED000A 		vstr.32	s0, [r3]
 201:fjol.cpp      ****   initializeaudio();
 5119              		.loc 7 201 3 is_stmt 1 view .LVU1439
 201:fjol.cpp      ****   initializeaudio();
 5120              		.loc 7 201 18 is_stmt 0 view .LVU1440
 5121 005c FFF7FEFF 		bl	_Z15initializeaudiov
 5122              	.LVL322:
 202:fjol.cpp      ****   hw.StartAudio(AudioCallback);
 5123              		.loc 7 202 3 is_stmt 1 view .LVU1441
 202:fjol.cpp      ****   hw.StartAudio(AudioCallback);
 5124              		.loc 7 202 16 is_stmt 0 view .LVU1442
 5125 0060 6F49     		ldr	r1, .L366+28
 5126 0062 6C48     		ldr	r0, .L366+16
 5127 0064 FFF7FEFF 		bl	_ZN5daisy9DaisySeed10StartAudioEPFvPKfPfjE
 5128              	.LVL323:
 204:fjol.cpp      ****   startPCA9622();
 5129              		.loc 7 204 3 is_stmt 1 view .LVU1443
 204:fjol.cpp      ****   startPCA9622();
 5130              		.loc 7 204 15 is_stmt 0 view .LVU1444
 5131 0068 FFF7FEFF 		bl	_Z12startPCA9622v
 5132              	.LVL324:
 206:fjol.cpp      ****   for(int i = 0; i<15;i++)
 5133              		.loc 7 206 3 is_stmt 1 view .LVU1445
 5134              	.LBB1030:
 206:fjol.cpp      ****   for(int i = 0; i<15;i++)
 5135              		.loc 7 206 19 view .LVU1446
 5136              	.L329:
 208:fjol.cpp      ****     setpwm(i,128);
ARM GAS  /tmp/cca3rxWD.s 			page 147


 5137              		.loc 7 208 5 discriminator 2 view .LVU1447
 5138              	.LBB1031:
 5139              	.LBB1032:
 641:fjol.cpp      ****   i2c.WriteDataAtAddress(PCA9622_I2C_ADDRESS,channel+2,2,&pwm,2,10);
 5140              		.loc 7 641 25 is_stmt 0 discriminator 2 view .LVU1448
 5141 006c 4FF00209 		mov	r9, #2
 5142 0070 4FF00A08 		mov	r8, #10
 5143 0074 8027     		movs	r7, #128
 5144 0076 2246     		mov	r2, r4
 5145 0078 4B46     		mov	r3, r9
 5146 007a 6021     		movs	r1, #96
 5147 007c 6248     		ldr	r0, .L366+4
 5148 007e 0026     		movs	r6, #0
 5149 0080 0095     		str	r5, [sp]
 5150 0082 8DF88870 		strb	r7, [sp, #136]
 5151              	.LVL325:
 641:fjol.cpp      ****   i2c.WriteDataAtAddress(PCA9622_I2C_ADDRESS,channel+2,2,&pwm,2,10);
 5152              		.loc 7 641 25 discriminator 2 view .LVU1449
 5153              	.LBE1032:
 5154              	.LBI1031:
 639:fjol.cpp      **** void setpwm(uint8_t channel, uint8_t pwm)
 5155              		.loc 7 639 6 is_stmt 1 discriminator 2 view .LVU1450
 5156              	.LBB1033:
 641:fjol.cpp      ****   i2c.WriteDataAtAddress(PCA9622_I2C_ADDRESS,channel+2,2,&pwm,2,10);
 5157              		.loc 7 641 3 discriminator 2 view .LVU1451
 641:fjol.cpp      ****   i2c.WriteDataAtAddress(PCA9622_I2C_ADDRESS,channel+2,2,&pwm,2,10);
 5158              		.loc 7 641 25 is_stmt 0 discriminator 2 view .LVU1452
 5159 0086 CDE90198 		strd	r9, r8, [sp, #4]
 5160 008a FFF7FEFF 		bl	_ZN5daisy9I2CHandle18WriteDataAtAddressEtttPhtm
 5161              	.LVL326:
 641:fjol.cpp      ****   i2c.WriteDataAtAddress(PCA9622_I2C_ADDRESS,channel+2,2,&pwm,2,10);
 5162              		.loc 7 641 25 discriminator 2 view .LVU1453
 5163              	.LBE1033:
 5164              	.LBE1031:
 209:fjol.cpp      ****     System::Delay(25);
 5165              		.loc 7 209 5 is_stmt 1 discriminator 2 view .LVU1454
 209:fjol.cpp      ****     System::Delay(25);
 5166              		.loc 7 209 18 is_stmt 0 discriminator 2 view .LVU1455
 5167 008e 1920     		movs	r0, #25
 5168 0090 FFF7FEFF 		bl	_ZN5daisy6System5DelayEm
 5169              	.LVL327:
 210:fjol.cpp      ****     setpwm(i,0);
 5170              		.loc 7 210 5 is_stmt 1 discriminator 2 view .LVU1456
 5171              	.LBB1034:
 5172              	.LBB1035:
 641:fjol.cpp      ****   i2c.WriteDataAtAddress(PCA9622_I2C_ADDRESS,channel+2,2,&pwm,2,10);
 5173              		.loc 7 641 25 is_stmt 0 discriminator 2 view .LVU1457
 5174 0094 2246     		mov	r2, r4
 5175              	.LBE1035:
 5176              	.LBE1034:
 206:fjol.cpp      ****   for(int i = 0; i<15;i++)
 5177              		.loc 7 206 19 discriminator 2 view .LVU1458
 5178 0096 0134     		adds	r4, r4, #1
 5179              	.LVL328:
 5180              	.LBB1039:
 5181              	.LBB1036:
 641:fjol.cpp      ****   i2c.WriteDataAtAddress(PCA9622_I2C_ADDRESS,channel+2,2,&pwm,2,10);
ARM GAS  /tmp/cca3rxWD.s 			page 148


 5182              		.loc 7 641 25 discriminator 2 view .LVU1459
 5183 0098 4B46     		mov	r3, r9
 5184 009a 6021     		movs	r1, #96
 5185 009c 5A48     		ldr	r0, .L366+4
 5186              	.LBE1036:
 5187              	.LBE1039:
 206:fjol.cpp      ****   for(int i = 0; i<15;i++)
 5188              		.loc 7 206 19 discriminator 2 view .LVU1460
 5189 009e A4B2     		uxth	r4, r4
 5190              	.LBB1040:
 5191              	.LBB1037:
 641:fjol.cpp      ****   i2c.WriteDataAtAddress(PCA9622_I2C_ADDRESS,channel+2,2,&pwm,2,10);
 5192              		.loc 7 641 25 discriminator 2 view .LVU1461
 5193 00a0 0095     		str	r5, [sp]
 5194 00a2 8DF88860 		strb	r6, [sp, #136]
 5195              	.LVL329:
 641:fjol.cpp      ****   i2c.WriteDataAtAddress(PCA9622_I2C_ADDRESS,channel+2,2,&pwm,2,10);
 5196              		.loc 7 641 25 discriminator 2 view .LVU1462
 5197              	.LBE1037:
 5198              	.LBI1034:
 639:fjol.cpp      **** void setpwm(uint8_t channel, uint8_t pwm)
 5199              		.loc 7 639 6 is_stmt 1 discriminator 2 view .LVU1463
 5200              	.LBB1038:
 641:fjol.cpp      ****   i2c.WriteDataAtAddress(PCA9622_I2C_ADDRESS,channel+2,2,&pwm,2,10);
 5201              		.loc 7 641 3 discriminator 2 view .LVU1464
 641:fjol.cpp      ****   i2c.WriteDataAtAddress(PCA9622_I2C_ADDRESS,channel+2,2,&pwm,2,10);
 5202              		.loc 7 641 25 is_stmt 0 discriminator 2 view .LVU1465
 5203 00a6 CDE90198 		strd	r9, r8, [sp, #4]
 5204 00aa FFF7FEFF 		bl	_ZN5daisy9I2CHandle18WriteDataAtAddressEtttPhtm
 5205              	.LVL330:
 641:fjol.cpp      ****   i2c.WriteDataAtAddress(PCA9622_I2C_ADDRESS,channel+2,2,&pwm,2,10);
 5206              		.loc 7 641 25 discriminator 2 view .LVU1466
 5207              	.LBE1038:
 5208              	.LBE1040:
 211:fjol.cpp      ****     System::Delay(25);
 5209              		.loc 7 211 5 is_stmt 1 discriminator 2 view .LVU1467
 211:fjol.cpp      ****     System::Delay(25);
 5210              		.loc 7 211 18 is_stmt 0 discriminator 2 view .LVU1468
 5211 00ae 1920     		movs	r0, #25
 5212 00b0 FFF7FEFF 		bl	_ZN5daisy6System5DelayEm
 5213              	.LVL331:
 206:fjol.cpp      ****   for(int i = 0; i<15;i++)
 5214              		.loc 7 206 3 is_stmt 1 discriminator 2 view .LVU1469
 206:fjol.cpp      ****   for(int i = 0; i<15;i++)
 5215              		.loc 7 206 19 discriminator 2 view .LVU1470
 5216 00b4 112C     		cmp	r4, #17
 5217 00b6 D9D1     		bne	.L329
 5218              	.LBE1030:
 213:fjol.cpp      ****   led_update(8);
 5219              		.loc 7 213 3 view .LVU1471
 213:fjol.cpp      ****   led_update(8);
 5220              		.loc 7 213 13 is_stmt 0 view .LVU1472
 5221 00b8 0820     		movs	r0, #8
 5222              	.LBB1041:
 5223              	.LBB1042:
  97:libDaisy/src/hid/midi.h **** 
 5224              		.loc 9 97 9 view .LVU1473
ARM GAS  /tmp/cca3rxWD.s 			page 149


 5225 00ba 5A4F     		ldr	r7, .L366+32
 5226              	.LBE1042:
 5227              	.LBE1041:
 213:fjol.cpp      ****   led_update(8);
 5228              		.loc 7 213 13 view .LVU1474
 5229 00bc FFF7FEFF 		bl	_Z10led_updateh
 5230              	.LVL332:
 214:fjol.cpp      ****   MidiUartHandler::Config midi_config;
 5231              		.loc 7 214 3 is_stmt 1 view .LVU1475
 5232              	.LBB1071:
 5233              	.LBI1071:
  87:libDaisy/src/hid/midi.h ****     {
 5234              		.loc 9 87 12 view .LVU1476
 5235              	.LBB1072:
 5236              	.LBI1072:
  34:libDaisy/src/hid/midi.h ****         {
 5237              		.loc 9 34 9 view .LVU1477
 5238              	.LBE1072:
 5239              	.LBE1071:
  36:libDaisy/src/hid/midi.h ****             rx     = {DSY_GPIOB, 7};
 5240              		.loc 9 36 13 view .LVU1478
  37:libDaisy/src/hid/midi.h ****             tx     = {DSY_GPIOB, 6};
 5241              		.loc 9 37 13 view .LVU1479
  38:libDaisy/src/hid/midi.h ****         }
 5242              		.loc 9 38 13 view .LVU1480
 215:fjol.cpp      ****   midi.Init(midi_config);
 5243              		.loc 7 215 3 view .LVU1481
 5244              	.LBB1073:
 5245              	.LBI1041:
  95:libDaisy/src/hid/midi.h ****     {
 5246              		.loc 9 95 10 view .LVU1482
 5247              	.LBB1068:
 5248              	.LBB1043:
 5249              	.LBB1044:
 5250              	.LBB1045:
 5251              	.LBB1046:
 5252              	.LBB1047:
 5253              		.file 18 "libDaisy/src/per/uart.h"
   1:libDaisy/src/per/uart.h **** /* 
   2:libDaisy/src/per/uart.h **** TODO
   3:libDaisy/src/per/uart.h **** - UART1 defaults to DMA, add flexible config for DMA on all periphs
   4:libDaisy/src/per/uart.h **** - Transmit function improvements.
   5:libDaisy/src/per/uart.h **** - Overflow handling, etc. for Rx Queue.
   6:libDaisy/src/per/uart.h **** */
   7:libDaisy/src/per/uart.h **** 
   8:libDaisy/src/per/uart.h **** #pragma once
   9:libDaisy/src/per/uart.h **** #ifndef DSY_UART_H
  10:libDaisy/src/per/uart.h **** #define DSY_UART_H /**< macro */
  11:libDaisy/src/per/uart.h **** #include "daisy_core.h"
  12:libDaisy/src/per/uart.h **** 
  13:libDaisy/src/per/uart.h **** 
  14:libDaisy/src/per/uart.h **** namespace daisy
  15:libDaisy/src/per/uart.h **** {
  16:libDaisy/src/per/uart.h **** /** @addtogroup serial
  17:libDaisy/src/per/uart.h ****     @{
  18:libDaisy/src/per/uart.h ****     */
  19:libDaisy/src/per/uart.h **** 
ARM GAS  /tmp/cca3rxWD.s 			page 150


  20:libDaisy/src/per/uart.h **** /** 
  21:libDaisy/src/per/uart.h ****     Uart Peripheral
  22:libDaisy/src/per/uart.h ****     @author shensley
  23:libDaisy/src/per/uart.h ****     @date March 2020
  24:libDaisy/src/per/uart.h ****     */
  25:libDaisy/src/per/uart.h **** class UartHandler
  26:libDaisy/src/per/uart.h **** {
  27:libDaisy/src/per/uart.h ****   public:
  28:libDaisy/src/per/uart.h ****     struct Config
  29:libDaisy/src/per/uart.h ****     {
  30:libDaisy/src/per/uart.h ****         enum class Peripheral
  31:libDaisy/src/per/uart.h ****         {
  32:libDaisy/src/per/uart.h ****             USART_1,
  33:libDaisy/src/per/uart.h ****             USART_2,
  34:libDaisy/src/per/uart.h ****             USART_3,
  35:libDaisy/src/per/uart.h ****             UART_4,
  36:libDaisy/src/per/uart.h ****             UART_5,
  37:libDaisy/src/per/uart.h ****             USART_6,
  38:libDaisy/src/per/uart.h ****             UART_7,
  39:libDaisy/src/per/uart.h ****             UART_8,
  40:libDaisy/src/per/uart.h ****             LPUART_1,
  41:libDaisy/src/per/uart.h ****         };
  42:libDaisy/src/per/uart.h **** 
  43:libDaisy/src/per/uart.h ****         enum class StopBits
  44:libDaisy/src/per/uart.h ****         {
  45:libDaisy/src/per/uart.h ****             BITS_0_5,
  46:libDaisy/src/per/uart.h ****             BITS_1,
  47:libDaisy/src/per/uart.h ****             BITS_1_5,
  48:libDaisy/src/per/uart.h ****             BITS_2,
  49:libDaisy/src/per/uart.h ****         };
  50:libDaisy/src/per/uart.h **** 
  51:libDaisy/src/per/uart.h ****         enum class Parity
  52:libDaisy/src/per/uart.h ****         {
  53:libDaisy/src/per/uart.h ****             NONE,
  54:libDaisy/src/per/uart.h ****             EVEN,
  55:libDaisy/src/per/uart.h ****             ODD,
  56:libDaisy/src/per/uart.h ****         };
  57:libDaisy/src/per/uart.h **** 
  58:libDaisy/src/per/uart.h ****         enum class Mode
  59:libDaisy/src/per/uart.h ****         {
  60:libDaisy/src/per/uart.h ****             RX,
  61:libDaisy/src/per/uart.h ****             TX,
  62:libDaisy/src/per/uart.h ****             TX_RX,
  63:libDaisy/src/per/uart.h ****         };
  64:libDaisy/src/per/uart.h **** 
  65:libDaisy/src/per/uart.h ****         enum class WordLength
  66:libDaisy/src/per/uart.h ****         {
  67:libDaisy/src/per/uart.h ****             BITS_7,
  68:libDaisy/src/per/uart.h ****             BITS_8,
  69:libDaisy/src/per/uart.h ****             BITS_9,
  70:libDaisy/src/per/uart.h ****         };
  71:libDaisy/src/per/uart.h **** 
  72:libDaisy/src/per/uart.h ****         struct
  73:libDaisy/src/per/uart.h ****         {
  74:libDaisy/src/per/uart.h ****             dsy_gpio_pin tx; /**< & */
  75:libDaisy/src/per/uart.h ****             dsy_gpio_pin rx; /**< & */
  76:libDaisy/src/per/uart.h ****         } pin_config;        /**< & */
ARM GAS  /tmp/cca3rxWD.s 			page 151


  77:libDaisy/src/per/uart.h **** 
  78:libDaisy/src/per/uart.h ****         Config()
  79:libDaisy/src/per/uart.h ****         {
  80:libDaisy/src/per/uart.h ****             // user must init periph, pin_config, and mode
  81:libDaisy/src/per/uart.h ****             stopbits   = StopBits::BITS_1;
 5254              		.loc 18 81 24 is_stmt 0 view .LVU1483
 5255 00c0 0123     		movs	r3, #1
 5256              	.LBE1047:
 5257              	.LBE1046:
 5258              	.LBE1045:
 5259              	.LBE1044:
 5260              	.LBE1043:
  97:libDaisy/src/hid/midi.h **** 
 5261              		.loc 9 97 9 view .LVU1484
 5262 00c2 07F51044 		add	r4, r7, #36864
 5263              	.LBB1061:
 5264              	.LBB1057:
  58:libDaisy/src/hid/midi.h ****     }
 5265              		.loc 9 58 19 view .LVU1485
 5266 00c6 2946     		mov	r1, r5
 5267              	.LBB1054:
 5268              	.LBB1051:
 5269              	.LBB1048:
 5270              		.loc 18 81 24 view .LVU1486
 5271 00c8 2493     		str	r3, [sp, #144]
  82:libDaisy/src/per/uart.h ****             parity     = Parity::NONE;
  83:libDaisy/src/per/uart.h ****             wordlength = WordLength::BITS_8;
 5272              		.loc 18 83 24 view .LVU1487
 5273 00ca 2793     		str	r3, [sp, #156]
 5274              	.LBE1048:
 5275              	.LBE1051:
 5276              	.LBE1054:
 5277              	.LBE1057:
 5278              	.LBE1061:
  97:libDaisy/src/hid/midi.h **** 
 5279              		.loc 9 97 9 view .LVU1488
 5280 00cc A3F1F923 		sub	r3, r3, #-117376768
 5281              	.LBB1062:
 5282              	.LBB1058:
  58:libDaisy/src/hid/midi.h ****     }
 5283              		.loc 9 58 19 view .LVU1489
 5284 00d0 04F1B000 		add	r0, r4, #176
 5285              	.LBE1058:
 5286              	.LBE1062:
  97:libDaisy/src/hid/midi.h **** 
 5287              		.loc 9 97 9 view .LVU1490
 5288 00d4 C4F8A860 		str	r6, [r4, #168]
 5289 00d8 A3F57E03 		sub	r3, r3, #16646144
 5290              	.LBB1063:
 5291              	.LBB1059:
  50:libDaisy/src/hid/midi.h ****         uart_config.wordlength = UartHandler::Config::WordLength::BITS_8;
 5292              		.loc 9 50 32 view .LVU1491
 5293 00dc CDF89890 		str	r9, [sp, #152]
  54:libDaisy/src/hid/midi.h ****         uart_config.pin_config.rx = config.rx;
 5294              		.loc 9 54 35 view .LVU1492
 5295 00e0 2396     		str	r6, [sp, #140]
 5296              	.LBE1059:
ARM GAS  /tmp/cca3rxWD.s 			page 152


 5297              	.LBE1063:
  97:libDaisy/src/hid/midi.h **** 
 5298              		.loc 9 97 9 view .LVU1493
 5299 00e2 C4F8AC30 		str	r3, [r4, #172]
 5300              	.LVL333:
 5301              	.LBB1064:
 5302              	.LBI1043:
  42:libDaisy/src/hid/midi.h ****     {
 5303              		.loc 9 42 17 is_stmt 1 view .LVU1494
 5304              	.LBB1060:
  44:libDaisy/src/hid/midi.h **** 
 5305              		.loc 9 44 9 view .LVU1495
 5306              	.LBB1055:
 5307              	.LBI1045:
  78:libDaisy/src/per/uart.h ****         {
 5308              		.loc 18 78 9 view .LVU1496
 5309              	.LBB1052:
 5310              	.LBB1049:
  81:libDaisy/src/per/uart.h ****             parity     = Parity::NONE;
 5311              		.loc 18 81 13 view .LVU1497
  82:libDaisy/src/per/uart.h ****             wordlength = WordLength::BITS_8;
 5312              		.loc 18 82 13 view .LVU1498
 5313              		.loc 18 83 13 view .LVU1499
  84:libDaisy/src/per/uart.h ****             baudrate   = 4800;
 5314              		.loc 18 84 13 view .LVU1500
 5315              		.loc 18 84 13 is_stmt 0 view .LVU1501
 5316              	.LBE1049:
 5317              	.LBE1052:
 5318              	.LBE1055:
  47:libDaisy/src/hid/midi.h ****         uart_config.stopbits   = UartHandler::Config::StopBits::BITS_1;
 5319              		.loc 9 47 9 is_stmt 1 view .LVU1502
  48:libDaisy/src/hid/midi.h ****         uart_config.parity     = UartHandler::Config::Parity::NONE;
 5320              		.loc 9 48 9 view .LVU1503
  49:libDaisy/src/hid/midi.h ****         uart_config.mode       = UartHandler::Config::Mode::TX_RX;
 5321              		.loc 9 49 9 view .LVU1504
  50:libDaisy/src/hid/midi.h ****         uart_config.wordlength = UartHandler::Config::WordLength::BITS_8;
 5322              		.loc 9 50 9 view .LVU1505
  51:libDaisy/src/hid/midi.h **** 
 5323              		.loc 9 51 9 view .LVU1506
  54:libDaisy/src/hid/midi.h ****         uart_config.pin_config.rx = config.rx;
 5324              		.loc 9 54 9 view .LVU1507
  55:libDaisy/src/hid/midi.h ****         uart_config.pin_config.tx = config.tx;
 5325              		.loc 9 55 9 view .LVU1508
  56:libDaisy/src/hid/midi.h **** 
 5326              		.loc 9 56 9 view .LVU1509
 5327              	.LBB1056:
 5328              	.LBB1053:
  79:libDaisy/src/per/uart.h ****             // user must init periph, pin_config, and mode
 5329              		.loc 18 79 9 is_stmt 0 view .LVU1510
 5330 00e6 03F57F03 		add	r3, r3, #16711680
 5331              	.LBB1050:
  82:libDaisy/src/per/uart.h ****             wordlength = WordLength::BITS_8;
 5332              		.loc 18 82 24 view .LVU1511
 5333 00ea 2596     		str	r6, [sp, #148]
 5334              	.LBE1050:
  79:libDaisy/src/per/uart.h ****             // user must init periph, pin_config, and mode
 5335              		.loc 18 79 9 view .LVU1512
ARM GAS  /tmp/cca3rxWD.s 			page 153


 5336 00ec 03F57F43 		add	r3, r3, #65280
 5337 00f0 DFF83CB1 		ldr	fp, .L366+44
 5338 00f4 DFF83C91 		ldr	r9, .L366+48
 5339 00f8 2293     		str	r3, [sp, #136]
 5340              	.LBE1053:
 5341              	.LBE1056:
  47:libDaisy/src/hid/midi.h ****         uart_config.stopbits   = UartHandler::Config::StopBits::BITS_1;
 5342              		.loc 9 47 32 view .LVU1513
 5343 00fa 47F61223 		movw	r3, #31250
 5344 00fe DFF838A1 		ldr	r10, .L366+52
 5345 0102 2893     		str	r3, [sp, #160]
  58:libDaisy/src/hid/midi.h ****     }
 5346              		.loc 9 58 9 is_stmt 1 view .LVU1514
  58:libDaisy/src/hid/midi.h ****     }
 5347              		.loc 9 58 19 is_stmt 0 view .LVU1515
 5348 0104 FFF7FEFF 		bl	_ZN5daisy11UartHandler4InitERKNS0_6ConfigE
 5349              	.LVL334:
  58:libDaisy/src/hid/midi.h ****     }
 5350              		.loc 9 58 19 view .LVU1516
 5351              	.LBE1060:
 5352              	.LBE1064:
 5353              	.LBB1065:
 5354              	.LBI1065:
  24:libDaisy/src/util/ringbuffer.h **** 
 5355              		.loc 17 24 17 is_stmt 1 view .LVU1517
 5356              	.LBE1065:
 102:libDaisy/src/hid/midi.h ****         pstate_                = ParserEmpty;
 5357              		.loc 9 102 32 is_stmt 0 view .LVU1518
 5358 0108 87F80880 		strb	r8, [r7, #8]
 5359              	.LBE1068:
 5360              	.LBE1073:
 5361              	.LBB1074:
 5362              	.LBB1075:
 5363              	.LBB1076:
 5364              	.LBB1077:
  61:libDaisy/src/hid/midi.h ****     inline size_t  Readable() { return uart_.Readable(); }
 5365              		.loc 9 61 45 view .LVU1519
 5366 010c 04F1B000 		add	r0, r4, #176
 5367 0110 DFF82881 		ldr	r8, .L366+56
 5368              	.LBE1077:
 5369              	.LBE1076:
 5370              	.LBE1075:
 5371              	.LBE1074:
 5372              	.LBB1084:
 5373              	.LBB1069:
 5374              	.LBB1067:
 5375              	.LBB1066:
  24:libDaisy/src/util/ringbuffer.h **** 
 5376              		.loc 17 24 49 view .LVU1520
 5377 0114 C4F89C60 		str	r6, [r4, #156]
  24:libDaisy/src/util/ringbuffer.h **** 
 5378              		.loc 17 24 36 view .LVU1521
 5379 0118 C4F89860 		str	r6, [r4, #152]
 5380              	.LVL335:
  24:libDaisy/src/util/ringbuffer.h **** 
 5381              		.loc 17 24 36 view .LVU1522
 5382              	.LBE1066:
ARM GAS  /tmp/cca3rxWD.s 			page 154


 5383              	.LBE1067:
 5384              	.LBE1069:
 5385              	.LBE1084:
 216:fjol.cpp      ****   midi.StartReceive();
 5386              		.loc 7 216 3 is_stmt 1 view .LVU1523
 5387              	.LBB1085:
 5388              	.LBI1074:
 107:libDaisy/src/hid/midi.h **** 
 5389              		.loc 9 107 10 view .LVU1524
 5390              	.LBB1082:
 5391              	.LBB1080:
 5392              	.LBI1076:
  61:libDaisy/src/hid/midi.h ****     inline size_t  Readable() { return uart_.Readable(); }
 5393              		.loc 9 61 20 view .LVU1525
 5394              	.LBB1078:
  61:libDaisy/src/hid/midi.h ****     inline size_t  Readable() { return uart_.Readable(); }
 5395              		.loc 9 61 32 view .LVU1526
 5396              	.LBE1078:
 5397              	.LBE1080:
 5398              	.LBE1082:
 5399              	.LBE1085:
 5400              	.LBB1086:
 5401              	.LBB1070:
 103:libDaisy/src/hid/midi.h ****     }
 5402              		.loc 9 103 32 is_stmt 0 view .LVU1527
 5403 011c 3E71     		strb	r6, [r7, #4]
 5404              	.LBE1070:
 5405              	.LBE1086:
 5406              	.LBB1087:
 5407              	.LBB1083:
 5408              	.LBB1081:
 5409              	.LBB1079:
  61:libDaisy/src/hid/midi.h ****     inline size_t  Readable() { return uart_.Readable(); }
 5410              		.loc 9 61 45 view .LVU1528
 5411 011e FFF7FEFF 		bl	_ZN5daisy11UartHandler7StartRxEv
 5412              	.LVL336:
 5413              	.L342:
  61:libDaisy/src/hid/midi.h ****     inline size_t  Readable() { return uart_.Readable(); }
 5414              		.loc 9 61 45 view .LVU1529
 5415              	.LBE1079:
 5416              	.LBE1081:
 5417              	.LBE1083:
 5418              	.LBE1087:
 217:fjol.cpp      ****   while(1)
 5419              		.loc 7 217 3 is_stmt 1 view .LVU1530
 5420              	.LBB1088:
 220:fjol.cpp      ****     midi.Listen();
 5421              		.loc 7 220 5 view .LVU1531
 5422              	.LBB1089:
 5423              	.LBI1089:
 110:libDaisy/src/hid/midi.h ****     {
 5424              		.loc 9 110 10 view .LVU1532
 5425              	.LBB1090:
 113:libDaisy/src/hid/midi.h ****         while(transport_.Readable())
 5426              		.loc 9 113 29 is_stmt 0 view .LVU1533
 5427 0122 FFF7FEFF 		bl	_ZN5daisy6System6GetNowEv
 5428              	.LVL337:
ARM GAS  /tmp/cca3rxWD.s 			page 155


 5429 0126 0646     		mov	r6, r0
 5430              	.LVL338:
 113:libDaisy/src/hid/midi.h ****         while(transport_.Readable())
 5431              		.loc 9 113 29 view .LVU1534
 5432 0128 07E0     		b	.L331
 5433              	.LVL339:
 5434              	.L365:
 116:libDaisy/src/hid/midi.h ****             Parse(transport_.Rx());
 5435              		.loc 9 116 24 view .LVU1535
 5436 012a C4F8A060 		str	r6, [r4, #160]
 5437              	.LVL340:
 5438              	.LBB1091:
 5439              	.LBI1091:
  63:libDaisy/src/hid/midi.h ****     inline bool    RxActive() { return uart_.RxActive(); }
 5440              		.loc 9 63 20 is_stmt 1 view .LVU1536
 5441              	.LBB1092:
  63:libDaisy/src/hid/midi.h ****     inline bool    RxActive() { return uart_.RxActive(); }
 5442              		.loc 9 63 27 view .LVU1537
  63:libDaisy/src/hid/midi.h ****     inline bool    RxActive() { return uart_.RxActive(); }
 5443              		.loc 9 63 45 is_stmt 0 view .LVU1538
 5444 012e FFF7FEFF 		bl	_ZN5daisy11UartHandler5PopRxEv
 5445              	.LVL341:
  63:libDaisy/src/hid/midi.h ****     inline bool    RxActive() { return uart_.RxActive(); }
 5446              		.loc 9 63 45 view .LVU1539
 5447 0132 0146     		mov	r1, r0
 5448              	.LBE1092:
 5449              	.LBE1091:
 117:libDaisy/src/hid/midi.h ****         }
 5450              		.loc 9 117 18 view .LVU1540
 5451 0134 3B48     		ldr	r0, .L366+32
 5452 0136 FFF7FEFF 		bl	_ZN5daisy11MidiHandlerINS_17MidiUartTransportEE5ParseEh
 5453              	.LVL342:
 5454              	.L331:
 114:libDaisy/src/hid/midi.h ****         {
 5455              		.loc 9 114 34 is_stmt 1 view .LVU1541
 5456              	.LBB1094:
 5457              	.LBI1094:
  62:libDaisy/src/hid/midi.h ****     inline uint8_t Rx() { return uart_.PopRx(); }
 5458              		.loc 9 62 20 view .LVU1542
 5459              	.LBB1095:
  62:libDaisy/src/hid/midi.h ****     inline uint8_t Rx() { return uart_.PopRx(); }
 5460              		.loc 9 62 33 view .LVU1543
  62:libDaisy/src/hid/midi.h ****     inline uint8_t Rx() { return uart_.PopRx(); }
 5461              		.loc 9 62 54 is_stmt 0 view .LVU1544
 5462 013a 3B48     		ldr	r0, .L366+36
 5463              	.LVL343:
  62:libDaisy/src/hid/midi.h ****     inline uint8_t Rx() { return uart_.PopRx(); }
 5464              		.loc 9 62 54 view .LVU1545
 5465 013c FFF7FEFF 		bl	_ZN5daisy11UartHandler8ReadableEv
 5466              	.LVL344:
  62:libDaisy/src/hid/midi.h ****     inline uint8_t Rx() { return uart_.PopRx(); }
 5467              		.loc 9 62 54 view .LVU1546
 5468 0140 0346     		mov	r3, r0
 5469              	.LBE1095:
 5470              	.LBE1094:
 5471              	.LBB1096:
 5472              	.LBB1093:
ARM GAS  /tmp/cca3rxWD.s 			page 156


  63:libDaisy/src/hid/midi.h ****     inline bool    RxActive() { return uart_.RxActive(); }
 5473              		.loc 9 63 45 view .LVU1547
 5474 0142 3948     		ldr	r0, .L366+36
 5475              	.LBE1093:
 5476              	.LBE1096:
 114:libDaisy/src/hid/midi.h ****         {
 5477              		.loc 9 114 34 view .LVU1548
 5478 0144 002B     		cmp	r3, #0
 5479 0146 F0D1     		bne	.L365
 5480              	.LVL345:
 5481              	.L330:
 114:libDaisy/src/hid/midi.h ****         {
 5482              		.loc 9 114 34 view .LVU1549
 5483              	.LBE1090:
 5484              	.LBE1089:
 222:fjol.cpp      ****     while(midi.HasEvents())
 5485              		.loc 7 222 5 is_stmt 1 view .LVU1550
 222:fjol.cpp      ****     while(midi.HasEvents())
 5486              		.loc 7 222 25 view .LVU1551
 5487              	.LBB1097:
 5488              	.LBI1097:
 134:libDaisy/src/hid/midi.h **** 
 5489              		.loc 9 134 10 view .LVU1552
 5490              	.LBB1098:
 5491              	.LBI1098:
  36:libDaisy/src/util/ringbuffer.h **** 
 5492              		.loc 17 36 19 view .LVU1553
 5493              	.LBB1099:
  36:libDaisy/src/util/ringbuffer.h **** 
 5494              		.loc 17 36 46 is_stmt 0 view .LVU1554
 5495 0148 D4F89C30 		ldr	r3, [r4, #156]
  36:libDaisy/src/util/ringbuffer.h **** 
 5496              		.loc 17 36 59 view .LVU1555
 5497 014c D4F89820 		ldr	r2, [r4, #152]
 5498              	.LVL346:
  36:libDaisy/src/util/ringbuffer.h **** 
 5499              		.loc 17 36 57 view .LVU1556
 5500 0150 9B1A     		subs	r3, r3, r2
  36:libDaisy/src/util/ringbuffer.h **** 
 5501              		.loc 17 36 72 view .LVU1557
 5502 0152 DBB2     		uxtb	r3, r3
 5503              	.LBE1099:
 5504              	.LBE1098:
 5505              	.LBE1097:
 222:fjol.cpp      ****     while(midi.HasEvents())
 5506              		.loc 7 222 25 view .LVU1558
 5507 0154 03B3     		cbz	r3, .L332
 5508              	.L333:
 5509              	.LBB1101:
 5510              	.LBB1102:
 5511              	.LBB1103:
  59:libDaisy/src/util/ringbuffer.h ****     }
  60:libDaisy/src/util/ringbuffer.h **** 
  61:libDaisy/src/util/ringbuffer.h ****     /** Reads the first available element from the ring buffer
  62:libDaisy/src/util/ringbuffer.h ****     \return read value
  63:libDaisy/src/util/ringbuffer.h ****      */
  64:libDaisy/src/util/ringbuffer.h ****     inline T Read()
ARM GAS  /tmp/cca3rxWD.s 			page 157


  65:libDaisy/src/util/ringbuffer.h ****     {
  66:libDaisy/src/util/ringbuffer.h ****         while(!readable())
 5512              		.loc 17 66 24 is_stmt 1 view .LVU1559
 5513              	.LVL347:
 5514              	.LBB1104:
 5515              	.LBI1104:
  36:libDaisy/src/util/ringbuffer.h **** 
 5516              		.loc 17 36 19 view .LVU1560
 5517              	.LBB1105:
  36:libDaisy/src/util/ringbuffer.h **** 
 5518              		.loc 17 36 46 is_stmt 0 view .LVU1561
 5519 0156 D4F89C30 		ldr	r3, [r4, #156]
  36:libDaisy/src/util/ringbuffer.h **** 
 5520              		.loc 17 36 59 view .LVU1562
 5521 015a D4F89820 		ldr	r2, [r4, #152]
 5522              	.LVL348:
  36:libDaisy/src/util/ringbuffer.h **** 
 5523              		.loc 17 36 57 view .LVU1563
 5524 015e 9B1A     		subs	r3, r3, r2
  36:libDaisy/src/util/ringbuffer.h **** 
 5525              		.loc 17 36 72 view .LVU1564
 5526 0160 DBB2     		uxtb	r3, r3
 5527              	.LBE1105:
 5528              	.LBE1104:
 5529              		.loc 17 66 24 view .LVU1565
 5530 0162 002B     		cmp	r3, #0
 5531 0164 F7D0     		beq	.L333
 5532              	.LVL349:
 5533              	.LBB1106:
 5534              	.LBI1106:
  67:libDaisy/src/util/ringbuffer.h ****             ;
  68:libDaisy/src/util/ringbuffer.h ****         return ImmediateRead();
  69:libDaisy/src/util/ringbuffer.h ****     }
  70:libDaisy/src/util/ringbuffer.h **** 
  71:libDaisy/src/util/ringbuffer.h ****     /** Reads next element from ring buffer immediately
  72:libDaisy/src/util/ringbuffer.h ****     \return read value
  73:libDaisy/src/util/ringbuffer.h ****      */
  74:libDaisy/src/util/ringbuffer.h ****     inline T ImmediateRead()
 5535              		.loc 17 74 14 is_stmt 1 view .LVU1566
 5536              	.LBB1107:
  75:libDaisy/src/util/ringbuffer.h ****     {
  76:libDaisy/src/util/ringbuffer.h ****         size_t r      = read_ptr_;
 5537              		.loc 17 76 16 is_stmt 0 view .LVU1567
 5538 0166 D4F89860 		ldr	r6, [r4, #152]
 5539              	.LVL350:
  77:libDaisy/src/util/ringbuffer.h ****         T      result = buffer_[r];
 5540              		.loc 17 77 16 view .LVU1568
 5541 016a 9022     		movs	r2, #144
 5542              	.LVL351:
 5543              		.loc 17 77 16 view .LVU1569
 5544 016c 2846     		mov	r0, r5
 5545 016e 06EBC601 		add	r1, r6, r6, lsl #3
  78:libDaisy/src/util/ringbuffer.h ****         read_ptr_     = (r + 1) % size;
 5546              		.loc 17 78 28 view .LVU1570
 5547 0172 0136     		adds	r6, r6, #1
 5548              	.LVL352:
  77:libDaisy/src/util/ringbuffer.h ****         T      result = buffer_[r];
ARM GAS  /tmp/cca3rxWD.s 			page 158


 5549              		.loc 17 77 16 view .LVU1571
 5550 0174 07EB0111 		add	r1, r7, r1, lsl #4
 5551              		.loc 17 78 33 view .LVU1572
 5552 0178 F6B2     		uxtb	r6, r6
  77:libDaisy/src/util/ringbuffer.h ****         T      result = buffer_[r];
 5553              		.loc 17 77 16 view .LVU1573
 5554 017a 9831     		adds	r1, r1, #152
 5555 017c FFF7FEFF 		bl	memcpy
 5556              	.LVL353:
  77:libDaisy/src/util/ringbuffer.h ****         T      result = buffer_[r];
 5557              		.loc 17 77 16 view .LVU1574
 5558              	.LBE1107:
 5559              	.LBE1106:
 5560              	.LBE1103:
 5561              	.LBE1102:
 5562              	.LBE1101:
 224:fjol.cpp      ****       HandleMidiMessage(midi.PopEvent());
 5563              		.loc 7 224 24 view .LVU1575
 5564 0180 26A9     		add	r1, sp, #152
 5565 0182 8022     		movs	r2, #128
 5566 0184 6846     		mov	r0, sp
 5567              	.LBB1112:
 5568              	.LBB1111:
 5569              	.LBB1110:
 5570              	.LBB1109:
 5571              	.LBB1108:
 5572              		.loc 17 78 23 view .LVU1576
 5573 0186 C4F89860 		str	r6, [r4, #152]
 5574              	.LVL354:
 5575              		.loc 17 78 23 view .LVU1577
 5576              	.LBE1108:
 5577              	.LBE1109:
 5578              	.LBE1110:
 5579              	.LBE1111:
 5580              	.LBE1112:
 224:fjol.cpp      ****       HandleMidiMessage(midi.PopEvent());
 5581              		.loc 7 224 24 view .LVU1578
 5582 018a FFF7FEFF 		bl	memcpy
 5583              	.LVL355:
 5584 018e 95E80F00 		ldm	r5, {r0, r1, r2, r3}
 5585 0192 FFF7FEFF 		bl	_Z17HandleMidiMessageN5daisy9MidiEventE
 5586              	.LVL356:
 222:fjol.cpp      ****     while(midi.HasEvents())
 5587              		.loc 7 222 5 is_stmt 1 view .LVU1579
 222:fjol.cpp      ****     while(midi.HasEvents())
 5588              		.loc 7 222 25 view .LVU1580
 5589              	.LBB1113:
 134:libDaisy/src/hid/midi.h **** 
 5590              		.loc 9 134 10 view .LVU1581
 5591              	.LBB1100:
  36:libDaisy/src/util/ringbuffer.h **** 
 5592              		.loc 17 36 19 view .LVU1582
 5593 0196 D7E7     		b	.L330
 5594              	.LVL357:
 5595              	.L332:
  36:libDaisy/src/util/ringbuffer.h **** 
 5596              		.loc 17 36 19 is_stmt 0 view .LVU1583
ARM GAS  /tmp/cca3rxWD.s 			page 159


 5597              	.LBE1100:
 5598              	.LBE1113:
 226:fjol.cpp      ****     if(led_takeover == 0)
 5599              		.loc 7 226 5 is_stmt 1 view .LVU1584
 5600              	.LBB1114:
 5601 0198 98F80060 		ldrb	r6, [r8]	@ zero_extendqisi2
 5602 019c 86B1     		cbz	r6, .L335
 5603              	.L340:
 5604              	.LBE1114:
 241:fjol.cpp      ****     if( led_takeover == 1 && ((System::GetNow()- ledlastmillis) >= 500) )
 5605              		.loc 7 241 46 is_stmt 0 view .LVU1585
 5606 019e FFF7FEFF 		bl	_ZN5daisy6System6GetNowEv
 5607              	.LVL358:
 241:fjol.cpp      ****     if( led_takeover == 1 && ((System::GetNow()- ledlastmillis) >= 500) )
 5608              		.loc 7 241 48 view .LVU1586
 5609 01a2 DBF80030 		ldr	r3, [fp]
 5610 01a6 C01A     		subs	r0, r0, r3
 241:fjol.cpp      ****     if( led_takeover == 1 && ((System::GetNow()- ledlastmillis) >= 500) )
 5611              		.loc 7 241 27 view .LVU1587
 5612 01a8 B0F5FA7F 		cmp	r0, #500
 5613 01ac 05D3     		bcc	.L341
 243:fjol.cpp      ****        led_takeover = 0;
 5614              		.loc 7 243 8 is_stmt 1 view .LVU1588
 243:fjol.cpp      ****        led_takeover = 0;
 5615              		.loc 7 243 21 is_stmt 0 view .LVU1589
 5616 01ae 0023     		movs	r3, #0
 245:fjol.cpp      ****        led_update(8); //update all leds
 5617              		.loc 7 245 18 view .LVU1590
 5618 01b0 0820     		movs	r0, #8
 243:fjol.cpp      ****        led_takeover = 0;
 5619              		.loc 7 243 21 view .LVU1591
 5620 01b2 88F80030 		strb	r3, [r8]
 245:fjol.cpp      ****        led_update(8); //update all leds
 5621              		.loc 7 245 8 is_stmt 1 view .LVU1592
 245:fjol.cpp      ****        led_update(8); //update all leds
 5622              		.loc 7 245 18 is_stmt 0 view .LVU1593
 5623 01b6 FFF7FEFF 		bl	_Z10led_updateh
 5624              	.LVL359:
 5625              	.L341:
 247:fjol.cpp      ****     updatecontrols();
 5626              		.loc 7 247 5 is_stmt 1 view .LVU1594
 247:fjol.cpp      ****     updatecontrols();
 5627              		.loc 7 247 19 is_stmt 0 view .LVU1595
 5628 01ba FFF7FEFF 		bl	_Z14updatecontrolsv
 5629              	.LVL360:
 5630              	.LBE1088:
 217:fjol.cpp      ****   while(1)
 5631              		.loc 7 217 3 is_stmt 1 view .LVU1596
 249:fjol.cpp      ****   } //while ends
 5632              		.loc 7 249 3 is_stmt 0 view .LVU1597
 5633 01be B0E7     		b	.L342
 5634              	.L335:
 5635 01c0 1A4B     		ldr	r3, .L366+40
 5636              	.L339:
 5637              	.LVL361:
 5638              	.LBB1123:
 5639              	.LBB1122:
ARM GAS  /tmp/cca3rxWD.s 			page 160


 5640              	.LBB1115:
 231:fjol.cpp      ****         if(params_changed[i] == 1 && !(midi_sw.Pressed()) && !(algo_sw.Pressed()) && !(shift_sw.Pre
 5641              		.loc 7 231 9 is_stmt 1 view .LVU1598
 5642              	.LBB1116:
 5643              	.LBI1116:
 5644              		.loc 1 79 17 view .LVU1599
 5645              	.LBB1117:
 5646              		.loc 1 79 35 view .LVU1600
 5647              		.loc 1 79 35 is_stmt 0 view .LVU1601
 5648              	.LBE1117:
 5649              	.LBE1116:
 231:fjol.cpp      ****         if(params_changed[i] == 1 && !(midi_sw.Pressed()) && !(algo_sw.Pressed()) && !(shift_sw.Pre
 5650              		.loc 7 231 83 view .LVU1602
 5651 01c2 13F8012F 		ldrb	r2, [r3, #1]!	@ zero_extendqisi2
 5652 01c6 92B1     		cbz	r2, .L338
 5653              	.LVL362:
 5654              	.LBB1118:
 5655              	.LBI1118:
 5656              		.loc 1 79 17 is_stmt 1 view .LVU1603
 5657              	.LBB1119:
 5658              		.loc 1 79 35 view .LVU1604
 5659              		.loc 1 79 35 is_stmt 0 view .LVU1605
 5660              	.LBE1119:
 5661              	.LBE1118:
 5662              	.LBB1120:
 5663              	.LBI1120:
 5664              		.loc 1 79 17 is_stmt 1 view .LVU1606
 5665              	.LBB1121:
 5666              		.loc 1 79 35 view .LVU1607
 5667              		.loc 1 79 35 is_stmt 0 view .LVU1608
 5668              	.LBE1121:
 5669              	.LBE1120:
 231:fjol.cpp      ****         if(params_changed[i] == 1 && !(midi_sw.Pressed()) && !(algo_sw.Pressed()) && !(shift_sw.Pre
 5670              		.loc 7 231 35 view .LVU1609
 5671 01c8 99F80A20 		ldrb	r2, [r9, #10]	@ zero_extendqisi2
 5672 01cc FF2A     		cmp	r2, #255
 5673 01ce 0ED0     		beq	.L338
 231:fjol.cpp      ****         if(params_changed[i] == 1 && !(midi_sw.Pressed()) && !(algo_sw.Pressed()) && !(shift_sw.Pre
 5674              		.loc 7 231 59 view .LVU1610
 5675 01d0 9AF80A20 		ldrb	r2, [r10, #10]	@ zero_extendqisi2
 5676 01d4 FF2A     		cmp	r2, #255
 5677 01d6 0AD0     		beq	.L338
 234:fjol.cpp      ****           led_update(i);
 5678              		.loc 7 234 11 is_stmt 1 view .LVU1611
 231:fjol.cpp      ****         if(params_changed[i] == 1 && !(midi_sw.Pressed()) && !(algo_sw.Pressed()) && !(shift_sw.Pre
 5679              		.loc 7 231 83 is_stmt 0 view .LVU1612
 5680 01d8 0F4A     		ldr	r2, .L366+20
 234:fjol.cpp      ****           led_update(i);
 5681              		.loc 7 234 21 view .LVU1613
 5682 01da F0B2     		uxtb	r0, r6
 231:fjol.cpp      ****         if(params_changed[i] == 1 && !(midi_sw.Pressed()) && !(algo_sw.Pressed()) && !(shift_sw.Pre
 5683              		.loc 7 231 83 view .LVU1614
 5684 01dc 927A     		ldrb	r2, [r2, #10]	@ zero_extendqisi2
 5685 01de FF2A     		cmp	r2, #255
 5686 01e0 05D0     		beq	.L338
 5687 01e2 2193     		str	r3, [sp, #132]
 234:fjol.cpp      ****           led_update(i);
ARM GAS  /tmp/cca3rxWD.s 			page 161


 5688              		.loc 7 234 21 view .LVU1615
 5689 01e4 FFF7FEFF 		bl	_Z10led_updateh
 5690              	.LVL363:
 235:fjol.cpp      ****           params_changed[i] = 0; 
 5691              		.loc 7 235 11 is_stmt 1 view .LVU1616
 235:fjol.cpp      ****           params_changed[i] = 0; 
 5692              		.loc 7 235 29 is_stmt 0 view .LVU1617
 5693 01e8 0022     		movs	r2, #0
 5694 01ea 219B     		ldr	r3, [sp, #132]
 5695 01ec 1A70     		strb	r2, [r3]
 5696              	.L338:
 229:fjol.cpp      ****       for(int i = 0;i<8;i++)
 5697              		.loc 7 229 7 is_stmt 1 discriminator 2 view .LVU1618
 5698 01ee 0136     		adds	r6, r6, #1
 5699              	.LVL364:
 229:fjol.cpp      ****       for(int i = 0;i<8;i++)
 5700              		.loc 7 229 22 discriminator 2 view .LVU1619
 5701 01f0 082E     		cmp	r6, #8
 5702 01f2 E6D1     		bne	.L339
 5703              	.LBE1115:
 5704              	.LBE1122:
 241:fjol.cpp      ****     if( led_takeover == 1 && ((System::GetNow()- ledlastmillis) >= 500) )
 5705              		.loc 7 241 5 view .LVU1620
 241:fjol.cpp      ****     if( led_takeover == 1 && ((System::GetNow()- ledlastmillis) >= 500) )
 5706              		.loc 7 241 27 is_stmt 0 view .LVU1621
 5707 01f4 98F80030 		ldrb	r3, [r8]	@ zero_extendqisi2
 5708 01f8 002B     		cmp	r3, #0
 5709 01fa DED0     		beq	.L341
 5710 01fc CFE7     		b	.L340
 5711              	.LVL365:
 5712              	.L364:
 241:fjol.cpp      ****     if( led_takeover == 1 && ((System::GetNow()- ledlastmillis) >= 500) )
 5713              		.loc 7 241 27 view .LVU1622
 5714              	.LBE1123:
 196:fjol.cpp      ****     calibrate();
 5715              		.loc 7 196 5 is_stmt 1 view .LVU1623
 196:fjol.cpp      ****     calibrate();
 5716              		.loc 7 196 14 is_stmt 0 view .LVU1624
 5717 01fe FFF7FEFF 		bl	_Z9calibratev
 5718              	.LVL366:
 5719 0202 20E7     		b	.L328
 5720              	.L367:
 5721              		.align	2
 5722              	.L366:
 5723 0204 00000000 		.word	.LANCHOR16
 5724 0208 00000000 		.word	.LANCHOR15
 5725 020c 00000000 		.word	.LANCHOR12
 5726 0210 18000000 		.word	.LANCHOR13+24
 5727 0214 00000000 		.word	.LANCHOR13
 5728 0218 00000000 		.word	.LANCHOR7
 5729 021c 00000000 		.word	samplerate
 5730 0220 00000000 		.word	_ZL13AudioCallbackPKfPfj
 5731 0224 00000000 		.word	midi
 5732 0228 B0900000 		.word	midi+37040
 5733 022c FFFFFFFF 		.word	params_changed-1
 5734 0230 00000000 		.word	ledlastmillis
 5735 0234 00000000 		.word	.LANCHOR9
ARM GAS  /tmp/cca3rxWD.s 			page 162


 5736 0238 00000000 		.word	.LANCHOR8
 5737 023c 00000000 		.word	led_takeover
 5738              		.cfi_endproc
 5739              	.LFE4811:
 5741              		.section	.text.startup._GLOBAL__sub_I_i2c,"ax",%progbits
 5742              		.align	1
 5743              		.p2align 2,,3
 5744              		.syntax unified
 5745              		.thumb
 5746              		.thumb_func
 5748              	_GLOBAL__sub_I_i2c:
 5749              	.LFB5447:
 5750              		.loc 7 715 1 is_stmt 1 view -0
 5751              		.cfi_startproc
 5752              		@ args = 0, pretend = 0, frame = 0
 5753              		@ frame_needed = 0, uses_anonymous_args = 0
 5754              	.LBB1206:
 5755              	.LBI1206:
 5756              		.loc 7 715 1 view .LVU1626
 5757              	.LVL367:
 5758              	.LBB1207:
 5759              	.LBB1208:
 5760              	.LBI1208:
  21:libDaisy/src/daisy_seed.h ****     ~DaisySeed() {}
 5761              		.loc 2 21 5 view .LVU1627
 5762              	.LBB1209:
 5763              	.LBB1210:
 5764              	.LBI1210:
 5765              		.file 19 "libDaisy/src/per/qspi.h"
   1:libDaisy/src/per/qspi.h **** #ifndef DSY_QSPI
   2:libDaisy/src/per/qspi.h **** #define DSY_QSPI /**< Macro */
   3:libDaisy/src/per/qspi.h **** 
   4:libDaisy/src/per/qspi.h **** #ifndef UNIT_TEST // for unit tests, a dummy implementation
   5:libDaisy/src/per/qspi.h **** 
   6:libDaisy/src/per/qspi.h **** #include <cstdint>
   7:libDaisy/src/per/qspi.h **** #include "daisy_core.h" // Added for dsy_gpio_pin typedef
   8:libDaisy/src/per/qspi.h **** 
   9:libDaisy/src/per/qspi.h **** #define DSY_QSPI_TEXT       \
  10:libDaisy/src/per/qspi.h ****     __attribute__((section( \
  11:libDaisy/src/per/qspi.h ****         ".qspiflash_text"))) /**< used for reading memory in memory_mapped mode. */
  12:libDaisy/src/per/qspi.h **** #define DSY_QSPI_DATA       \
  13:libDaisy/src/per/qspi.h ****     __attribute__((section( \
  14:libDaisy/src/per/qspi.h ****         ".qspiflash_data"))) /**< used for reading memory in memory_mapped mode. */
  15:libDaisy/src/per/qspi.h **** #define DSY_QSPI_BSS        \
  16:libDaisy/src/per/qspi.h ****     __attribute__((section( \
  17:libDaisy/src/per/qspi.h ****         ".qspiflash_bss"))) /**< used for reading memory in memory_mapped mode. */
  18:libDaisy/src/per/qspi.h **** 
  19:libDaisy/src/per/qspi.h **** namespace daisy
  20:libDaisy/src/per/qspi.h **** {
  21:libDaisy/src/per/qspi.h **** /** @addtogroup serial
  22:libDaisy/src/per/qspi.h **** @{
  23:libDaisy/src/per/qspi.h **** */
  24:libDaisy/src/per/qspi.h **** 
  25:libDaisy/src/per/qspi.h **** /** 
  26:libDaisy/src/per/qspi.h ****  Driver for QSPI peripheral to interface with external flash memory. \n 
  27:libDaisy/src/per/qspi.h ****     Currently supported QSPI Devices: \n 
  28:libDaisy/src/per/qspi.h ****     * IS25LP080D
ARM GAS  /tmp/cca3rxWD.s 			page 163


  29:libDaisy/src/per/qspi.h **** */
  30:libDaisy/src/per/qspi.h **** class QSPIHandle
  31:libDaisy/src/per/qspi.h **** {
  32:libDaisy/src/per/qspi.h ****   public:
  33:libDaisy/src/per/qspi.h ****     enum Result
  34:libDaisy/src/per/qspi.h ****     {
  35:libDaisy/src/per/qspi.h ****         OK = 0,
  36:libDaisy/src/per/qspi.h ****         ERR
  37:libDaisy/src/per/qspi.h ****     };
  38:libDaisy/src/per/qspi.h **** 
  39:libDaisy/src/per/qspi.h ****     /** Indicates the current status of the module. 
  40:libDaisy/src/per/qspi.h ****          *  Warnings are indicated by a leading W.
  41:libDaisy/src/per/qspi.h ****          *  Errors are indicated by a leading E and cause an immediate exit.
  42:libDaisy/src/per/qspi.h ****          * 
  43:libDaisy/src/per/qspi.h ****          *  \param GOOD - No errors have been reported.
  44:libDaisy/src/per/qspi.h ****          *  \param E_HAL_ERROR - HAL code did not return HAL_OK.
  45:libDaisy/src/per/qspi.h ****          *  \param E_SWITCHING_MODES - An error was encountered while switching QSPI peripheral mod
  46:libDaisy/src/per/qspi.h ****          *  \param E_INVALID_MODE - QSPI should not be written to while the program is executing fr
  47:libDaisy/src/per/qspi.h ****          */
  48:libDaisy/src/per/qspi.h ****     enum Status
  49:libDaisy/src/per/qspi.h ****     {
  50:libDaisy/src/per/qspi.h ****         GOOD = 0,
  51:libDaisy/src/per/qspi.h ****         E_HAL_ERROR,
  52:libDaisy/src/per/qspi.h ****         E_SWITCHING_MODES,
  53:libDaisy/src/per/qspi.h ****         E_INVALID_MODE,
  54:libDaisy/src/per/qspi.h ****     };
  55:libDaisy/src/per/qspi.h **** 
  56:libDaisy/src/per/qspi.h ****     /** Configuration structure for interfacing with QSPI Driver */
  57:libDaisy/src/per/qspi.h ****     struct Config
  58:libDaisy/src/per/qspi.h ****     {
  59:libDaisy/src/per/qspi.h ****         /** Flash Devices supported. (Both of these are more-or-less the same, just different sizes
  60:libDaisy/src/per/qspi.h ****         enum Device
  61:libDaisy/src/per/qspi.h ****         {
  62:libDaisy/src/per/qspi.h ****             IS25LP080D,  /**< & */
  63:libDaisy/src/per/qspi.h ****             IS25LP064A,  /**< & */
  64:libDaisy/src/per/qspi.h ****             DEVICE_LAST, /**< & */
  65:libDaisy/src/per/qspi.h ****         };
  66:libDaisy/src/per/qspi.h **** 
  67:libDaisy/src/per/qspi.h ****         /** 
  68:libDaisy/src/per/qspi.h ****         Modes of operation.
  69:libDaisy/src/per/qspi.h ****         Memory Mapped mode: QSPI configured so that the QSPI can be
  70:libDaisy/src/per/qspi.h ****         read from starting address 0x90000000. Writing is not
  71:libDaisy/src/per/qspi.h ****         possible in this mode. \n 
  72:libDaisy/src/per/qspi.h ****         Indirect Polling mode: Device driver enabled. 
  73:libDaisy/src/per/qspi.h ****         */
  74:libDaisy/src/per/qspi.h ****         enum Mode
  75:libDaisy/src/per/qspi.h ****         {
  76:libDaisy/src/per/qspi.h ****             MEMORY_MAPPED,    /**< & */
  77:libDaisy/src/per/qspi.h ****             INDIRECT_POLLING, /**< & */
  78:libDaisy/src/per/qspi.h ****             MODE_LAST,
  79:libDaisy/src/per/qspi.h ****         };
  80:libDaisy/src/per/qspi.h **** 
  81:libDaisy/src/per/qspi.h ****         //SCK,  CE# (active low)
  82:libDaisy/src/per/qspi.h ****         struct
  83:libDaisy/src/per/qspi.h ****         {
  84:libDaisy/src/per/qspi.h ****             dsy_gpio_pin io0; /**< & */
  85:libDaisy/src/per/qspi.h ****             dsy_gpio_pin io1; /**< & */
ARM GAS  /tmp/cca3rxWD.s 			page 164


  86:libDaisy/src/per/qspi.h ****             dsy_gpio_pin io2; /**< & */
  87:libDaisy/src/per/qspi.h ****             dsy_gpio_pin io3; /**< & */
  88:libDaisy/src/per/qspi.h ****             dsy_gpio_pin clk; /**< & */
  89:libDaisy/src/per/qspi.h ****             dsy_gpio_pin ncs; /**< & */
  90:libDaisy/src/per/qspi.h ****         } pin_config;
  91:libDaisy/src/per/qspi.h **** 
  92:libDaisy/src/per/qspi.h ****         Device device;
  93:libDaisy/src/per/qspi.h ****         Mode   mode;
  94:libDaisy/src/per/qspi.h ****     };
  95:libDaisy/src/per/qspi.h **** 
  96:libDaisy/src/per/qspi.h ****     /** 
  97:libDaisy/src/per/qspi.h ****         Initializes QSPI peripheral, and Resets, and prepares memory for access.
  98:libDaisy/src/per/qspi.h ****         \param config should be populated with the mode, device and pin_config before calling this 
  99:libDaisy/src/per/qspi.h ****         \return Result::OK or Result::ERR
 100:libDaisy/src/per/qspi.h ****         */
 101:libDaisy/src/per/qspi.h ****     Result Init(const Config& config);
 102:libDaisy/src/per/qspi.h **** 
 103:libDaisy/src/per/qspi.h ****     /** Returns the current config. */
 104:libDaisy/src/per/qspi.h ****     const Config& GetConfig() const;
 105:libDaisy/src/per/qspi.h **** 
 106:libDaisy/src/per/qspi.h ****     // Couldn't this just be called before anything else in init? That
 107:libDaisy/src/per/qspi.h ****     // would make manually calling it unnecessary.
 108:libDaisy/src/per/qspi.h ****     /** 
 109:libDaisy/src/per/qspi.h ****         Deinitializes the peripheral
 110:libDaisy/src/per/qspi.h ****         This should be called before reinitializing QSPI in a different mode.
 111:libDaisy/src/per/qspi.h ****         \return Result::OK or Result::ERR
 112:libDaisy/src/per/qspi.h ****         */
 113:libDaisy/src/per/qspi.h ****     Result DeInit();
 114:libDaisy/src/per/qspi.h **** 
 115:libDaisy/src/per/qspi.h ****     /** 
 116:libDaisy/src/per/qspi.h ****         Writes a single page to to the specified address on the QSPI chip.
 117:libDaisy/src/per/qspi.h ****         For IS25LP*, page size is 256 bytes.
 118:libDaisy/src/per/qspi.h ****         \param address Address to write to
 119:libDaisy/src/per/qspi.h ****         \param size Buffer size
 120:libDaisy/src/per/qspi.h ****         \param buffer Buffer to write
 121:libDaisy/src/per/qspi.h ****         \return Result::OK or Result::ERR
 122:libDaisy/src/per/qspi.h ****         */
 123:libDaisy/src/per/qspi.h ****     Result WritePage(uint32_t address, uint32_t size, uint8_t* buffer);
 124:libDaisy/src/per/qspi.h **** 
 125:libDaisy/src/per/qspi.h ****     /** 
 126:libDaisy/src/per/qspi.h ****         Writes data in buffer to to the QSPI. Starting at address to address+size 
 127:libDaisy/src/per/qspi.h ****         \param address Address to write to
 128:libDaisy/src/per/qspi.h ****         \param size Buffer size
 129:libDaisy/src/per/qspi.h ****         \param buffer Buffer to write
 130:libDaisy/src/per/qspi.h ****         \return Result::OK or Result::ERR
 131:libDaisy/src/per/qspi.h ****         */
 132:libDaisy/src/per/qspi.h ****     Result Write(uint32_t address, uint32_t size, uint8_t* buffer);
 133:libDaisy/src/per/qspi.h **** 
 134:libDaisy/src/per/qspi.h ****     /** 
 135:libDaisy/src/per/qspi.h ****         Erases the area specified on the chip.
 136:libDaisy/src/per/qspi.h ****         Erasures will happen by 4K, 32K or 64K increments.
 137:libDaisy/src/per/qspi.h ****         Smallest erase possible is 4kB at a time. (on IS25LP*)
 138:libDaisy/src/per/qspi.h ****         \param start_addr Address to begin erasing from
 139:libDaisy/src/per/qspi.h ****         \param end_addr  Address to stop erasing at
 140:libDaisy/src/per/qspi.h ****         \return Result::OK or Result::ERR
 141:libDaisy/src/per/qspi.h ****         */
 142:libDaisy/src/per/qspi.h ****     Result Erase(uint32_t start_addr, uint32_t end_addr);
ARM GAS  /tmp/cca3rxWD.s 			page 165


 143:libDaisy/src/per/qspi.h **** 
 144:libDaisy/src/per/qspi.h ****     /**  
 145:libDaisy/src/per/qspi.h ****          Erases a single sector of the chip.  
 146:libDaisy/src/per/qspi.h ****         TODO: Document the size of this function. 
 147:libDaisy/src/per/qspi.h ****         \param address Address of sector to erase
 148:libDaisy/src/per/qspi.h ****         \return Result::OK or Result::ERR
 149:libDaisy/src/per/qspi.h ****         */
 150:libDaisy/src/per/qspi.h ****     Result EraseSector(uint32_t address);
 151:libDaisy/src/per/qspi.h **** 
 152:libDaisy/src/per/qspi.h ****     /** Returns the current class status. Useful for debugging.
 153:libDaisy/src/per/qspi.h ****      *  \returns Status
 154:libDaisy/src/per/qspi.h ****      */
 155:libDaisy/src/per/qspi.h ****     Status GetStatus();
 156:libDaisy/src/per/qspi.h **** 
 157:libDaisy/src/per/qspi.h ****     /** Returns a pointer to the actual memory used 
 158:libDaisy/src/per/qspi.h ****      *  The memory at this address is read-only
 159:libDaisy/src/per/qspi.h ****      *  to write to it use the Write function.
 160:libDaisy/src/per/qspi.h ****      * 
 161:libDaisy/src/per/qspi.h ****      *  \param offset returns the pointer starting this 
 162:libDaisy/src/per/qspi.h ****      *                many bytes into the memory
 163:libDaisy/src/per/qspi.h ****     */
 164:libDaisy/src/per/qspi.h ****     void* GetData(uint32_t offset = 0);
 165:libDaisy/src/per/qspi.h **** 
 166:libDaisy/src/per/qspi.h ****     QSPIHandle() : pimpl_(nullptr) {}
 5766              		.loc 19 166 5 view .LVU1628
 5767              	.LBE1210:
 5768              	.LBE1209:
 5769              	.LBE1208:
 5770              	.LBE1207:
 5771              	.LBE1206:
 5772              		.loc 7 715 1 is_stmt 0 view .LVU1629
 5773 0000 38B5     		push	{r3, r4, r5, lr}
 5774              		.cfi_def_cfa_offset 16
 5775              		.cfi_offset 3, -16
 5776              		.cfi_offset 4, -12
 5777              		.cfi_offset 5, -8
 5778              		.cfi_offset 14, -4
 5779              	.LBB1324:
 5780              	.LBB1322:
 5781              	.LBB1228:
 5782              	.LBB1226:
 5783              	.LBB1215:
 5784              	.LBB1211:
 5785              	.LBB1212:
 5786              		.loc 19 166 34 view .LVU1630
 5787 0002 4F48     		ldr	r0, .L374
 5788 0004 0024     		movs	r4, #0
 5789              	.LBE1212:
 5790              	.LBE1211:
 5791              	.LBE1215:
 5792              	.LBE1226:
 5793              	.LBE1228:
   8:fjol.cpp      **** static DaisySeed  hw;
 5794              		.loc 7 8 19 view .LVU1631
 5795 0006 4F4A     		ldr	r2, .L374+4
 5796 0008 4F49     		ldr	r1, .L374+8
 5797              	.LBB1229:
ARM GAS  /tmp/cca3rxWD.s 			page 166


 5798              	.LBB1227:
 5799              	.LBB1216:
 5800              	.LBB1214:
 5801              	.LBB1213:
 5802              		.loc 19 166 34 view .LVU1632
 5803 000a 0460     		str	r4, [r0]
 5804              	.LVL368:
 5805              		.loc 19 166 34 view .LVU1633
 5806              	.LBE1213:
 5807              	.LBE1214:
 5808              	.LBE1216:
 5809              	.LBB1217:
 5810              	.LBI1217:
  95:libDaisy/src/hid/audio.h ****     ~AudioHandle() {}
 5811              		.loc 6 95 5 is_stmt 1 view .LVU1634
 5812              	.LBB1218:
 5813              	.LBB1219:
  95:libDaisy/src/hid/audio.h ****     ~AudioHandle() {}
 5814              		.loc 6 95 35 is_stmt 0 view .LVU1635
 5815 000c 4461     		str	r4, [r0, #20]
 5816              	.LVL369:
  95:libDaisy/src/hid/audio.h ****     ~AudioHandle() {}
 5817              		.loc 6 95 35 view .LVU1636
 5818              	.LBE1219:
 5819              	.LBE1218:
 5820              	.LBE1217:
 5821              	.LBB1220:
 5822              	.LBI1220:
  92:libDaisy/src/per/adc.h ****     ~AdcHandle() {}
 5823              		.loc 5 92 5 is_stmt 1 view .LVU1637
  92:libDaisy/src/per/adc.h ****     ~AdcHandle() {}
 5824              		.loc 5 92 5 is_stmt 0 view .LVU1638
 5825              	.LBE1220:
 5826              	.LBB1221:
 5827              	.LBI1221:
 5828              		.file 20 "libDaisy/src/per/dac.h"
   1:libDaisy/src/per/dac.h **** #pragma once
   2:libDaisy/src/per/dac.h **** #ifndef DSY_DAC_H
   3:libDaisy/src/per/dac.h **** #define DSY_DAC_H
   4:libDaisy/src/per/dac.h **** 
   5:libDaisy/src/per/dac.h **** #include "daisy_core.h"
   6:libDaisy/src/per/dac.h **** 
   7:libDaisy/src/per/dac.h **** namespace daisy
   8:libDaisy/src/per/dac.h **** {
   9:libDaisy/src/per/dac.h **** /** @brief DAC handle for Built-in DAC Peripheral 
  10:libDaisy/src/per/dac.h ****  *  @ingroup per_analog
  11:libDaisy/src/per/dac.h ****  ** 
  12:libDaisy/src/per/dac.h ****  ** For now only Normal Mode is supported,
  13:libDaisy/src/per/dac.h ****  ** Sample and hold mode provides reduced power consumption, but requires a bit more setup.
  14:libDaisy/src/per/dac.h ****  **
  15:libDaisy/src/per/dac.h ****  ** For now connecting the DAC through other internal peripherals is also not supported.
  16:libDaisy/src/per/dac.h ****  **
  17:libDaisy/src/per/dac.h ****  ** Since the DAC channels have dedicated pins we don't need to pass in a pin config like with
  18:libDaisy/src/per/dac.h ****  ** other modules. However, it is still important to not try to use the DAC pins for anything else.
  19:libDaisy/src/per/dac.h ****  ** DAC Channel 1 is on PA4, and DAC Channel 2 is on PA5
  20:libDaisy/src/per/dac.h ****  ***/
  21:libDaisy/src/per/dac.h **** class DacHandle
ARM GAS  /tmp/cca3rxWD.s 			page 167


  22:libDaisy/src/per/dac.h **** {
  23:libDaisy/src/per/dac.h ****   public:
  24:libDaisy/src/per/dac.h ****     /** Return Values for the DacHandle class */
  25:libDaisy/src/per/dac.h ****     enum class Result
  26:libDaisy/src/per/dac.h ****     {
  27:libDaisy/src/per/dac.h ****         OK,
  28:libDaisy/src/per/dac.h ****         ERR,
  29:libDaisy/src/per/dac.h ****     };
  30:libDaisy/src/per/dac.h **** 
  31:libDaisy/src/per/dac.h ****     /** Selects which channel(s) will be configured for use. */
  32:libDaisy/src/per/dac.h ****     enum class Channel
  33:libDaisy/src/per/dac.h ****     {
  34:libDaisy/src/per/dac.h ****         ONE,
  35:libDaisy/src/per/dac.h ****         TWO,
  36:libDaisy/src/per/dac.h ****         BOTH,
  37:libDaisy/src/per/dac.h ****     };
  38:libDaisy/src/per/dac.h **** 
  39:libDaisy/src/per/dac.h ****     /** Sets the Mode for the DAC channels.
  40:libDaisy/src/per/dac.h ****      **
  41:libDaisy/src/per/dac.h ****      ** Polling mode uses the blocking mode to transmit a single value at a time.
  42:libDaisy/src/per/dac.h ****      **
  43:libDaisy/src/per/dac.h ****      ** DMA mode uses a buffer, and periodically transmits it triggering a 
  44:libDaisy/src/per/dac.h ****      ** callback to fill the buffer when it is ready for more samples.
  45:libDaisy/src/per/dac.h ****      ***/
  46:libDaisy/src/per/dac.h ****     enum class Mode
  47:libDaisy/src/per/dac.h ****     {
  48:libDaisy/src/per/dac.h ****         POLLING,
  49:libDaisy/src/per/dac.h ****         DMA,
  50:libDaisy/src/per/dac.h ****     };
  51:libDaisy/src/per/dac.h **** 
  52:libDaisy/src/per/dac.h ****     /** Sets the number of bits per sample transmitted out of the DAC.
  53:libDaisy/src/per/dac.h ****      ** The output range will be: 0V - VDDA
  54:libDaisy/src/per/dac.h ****      ** The resolution will be roughly: bitdepth / (VDDA - 0V) 
  55:libDaisy/src/per/dac.h ****      ***/
  56:libDaisy/src/per/dac.h ****     enum class BitDepth
  57:libDaisy/src/per/dac.h ****     {
  58:libDaisy/src/per/dac.h ****         BITS_8,
  59:libDaisy/src/per/dac.h ****         BITS_12
  60:libDaisy/src/per/dac.h ****     };
  61:libDaisy/src/per/dac.h **** 
  62:libDaisy/src/per/dac.h ****     /** Sets whether the DAC output is buffered for higher drive ability. */
  63:libDaisy/src/per/dac.h ****     enum class BufferState
  64:libDaisy/src/per/dac.h ****     {
  65:libDaisy/src/per/dac.h ****         ENABLED,
  66:libDaisy/src/per/dac.h ****         DISABLED,
  67:libDaisy/src/per/dac.h ****     };
  68:libDaisy/src/per/dac.h **** 
  69:libDaisy/src/per/dac.h ****     /** Configuration structure for initializing the DAC structure. */
  70:libDaisy/src/per/dac.h ****     struct Config
  71:libDaisy/src/per/dac.h ****     {
  72:libDaisy/src/per/dac.h ****         /** Target Samplerate in Hz used to configure the internal 
  73:libDaisy/src/per/dac.h ****          ** timebase for DMA mode. Does nothing in POLLING mode.
  74:libDaisy/src/per/dac.h ****          ** If the value is 0 at Init time this will default to 48000Hz 
  75:libDaisy/src/per/dac.h ****          ** otherwise the driver will attempt meet the target.*/
  76:libDaisy/src/per/dac.h ****         uint32_t target_samplerate;
  77:libDaisy/src/per/dac.h **** 
  78:libDaisy/src/per/dac.h ****         Channel     chn;
ARM GAS  /tmp/cca3rxWD.s 			page 168


  79:libDaisy/src/per/dac.h ****         Mode        mode;
  80:libDaisy/src/per/dac.h ****         BitDepth    bitdepth;
  81:libDaisy/src/per/dac.h ****         BufferState buff_state;
  82:libDaisy/src/per/dac.h ****     };
  83:libDaisy/src/per/dac.h **** 
  84:libDaisy/src/per/dac.h ****     DacHandle() : pimpl_(nullptr) {}
 5829              		.loc 20 84 5 is_stmt 1 view .LVU1639
 5830              	.LBB1222:
 5831              	.LBB1223:
 5832              		.loc 20 84 33 is_stmt 0 view .LVU1640
 5833 000e 0462     		str	r4, [r0, #32]
 5834              	.LVL370:
 5835              		.loc 20 84 33 view .LVU1641
 5836              	.LBE1223:
 5837              	.LBE1222:
 5838              	.LBE1221:
 5839              	.LBB1224:
 5840              	.LBI1224:
  40:libDaisy/src/hid/usb.h **** 
 5841              		.loc 4 40 5 is_stmt 1 view .LVU1642
  40:libDaisy/src/hid/usb.h **** 
 5842              		.loc 4 40 5 is_stmt 0 view .LVU1643
 5843              	.LBE1224:
 5844              	.LBB1225:
 5845              	.LBI1225:
  77:libDaisy/src/sys/system.h ****     ~System() {}
 5846              		.loc 3 77 5 is_stmt 1 view .LVU1644
  77:libDaisy/src/sys/system.h ****     ~System() {}
 5847              		.loc 3 77 5 is_stmt 0 view .LVU1645
 5848              	.LBE1225:
 5849              	.LBE1227:
 5850              	.LBE1229:
   8:fjol.cpp      **** static DaisySeed  hw;
 5851              		.loc 7 8 19 view .LVU1646
 5852 0010 FFF7FEFF 		bl	__aeabi_atexit
 5853              	.LVL371:
 5854              	.LBB1230:
 5855              	.LBI1230:
 5856              		.file 21 "libDaisy/src/per/i2c.h"
   1:libDaisy/src/per/i2c.h **** #pragma once
   2:libDaisy/src/per/i2c.h **** #include "daisy_core.h"
   3:libDaisy/src/per/i2c.h **** 
   4:libDaisy/src/per/i2c.h **** namespace daisy
   5:libDaisy/src/per/i2c.h **** {
   6:libDaisy/src/per/i2c.h **** /** A handle for interacting with an I2C peripheral. This is a dumb
   7:libDaisy/src/per/i2c.h ****  *  gateway that internally points to one of the four I2C peripherals
   8:libDaisy/src/per/i2c.h ****  *  after it was initialised. It can then be copied and passed around.
   9:libDaisy/src/per/i2c.h ****  *  Use an I2CHandle like this:
  10:libDaisy/src/per/i2c.h ****  *  
  11:libDaisy/src/per/i2c.h ****  *      // setup the configuration
  12:libDaisy/src/per/i2c.h ****  *      I2CHandle::Config i2c_conf;
  13:libDaisy/src/per/i2c.h ****  *      i2c_conf.periph = I2CHandle::Config::Peripheral::I2C_1;
  14:libDaisy/src/per/i2c.h ****  *      i2c_conf.speed  = I2CHandle::Config::Speed::I2C_400KHZ;
  15:libDaisy/src/per/i2c.h ****  *      i2c_conf.mode   = I2CHandle::Config::Mode::Master;
  16:libDaisy/src/per/i2c.h ****  *      i2c_conf.pin_config.scl  = {DSY_GPIOB, 8};
  17:libDaisy/src/per/i2c.h ****  *      i2c_conf.pin_config.sda  = {DSY_GPIOB, 9};
  18:libDaisy/src/per/i2c.h ****  *      // initialise the peripheral
ARM GAS  /tmp/cca3rxWD.s 			page 169


  19:libDaisy/src/per/i2c.h ****  *      I2CHandle i2c;
  20:libDaisy/src/per/i2c.h ****  *      i2c.Init(i2c_conf);
  21:libDaisy/src/per/i2c.h ****  *      // now i2c points to the corresponding peripheral and can be used.
  22:libDaisy/src/per/i2c.h ****  *      i2c.TransmitBlocking( ... );
  23:libDaisy/src/per/i2c.h ****  */
  24:libDaisy/src/per/i2c.h **** class I2CHandle
  25:libDaisy/src/per/i2c.h **** {
  26:libDaisy/src/per/i2c.h ****   public:
  27:libDaisy/src/per/i2c.h ****     /** Contains settings for initialising an I2C interface. */
  28:libDaisy/src/per/i2c.h ****     struct Config
  29:libDaisy/src/per/i2c.h ****     {
  30:libDaisy/src/per/i2c.h ****         /** Specifies whether the interface will operate in master or slave mode. */
  31:libDaisy/src/per/i2c.h ****         enum class Mode
  32:libDaisy/src/per/i2c.h ****         {
  33:libDaisy/src/per/i2c.h ****             I2C_MASTER,
  34:libDaisy/src/per/i2c.h ****             I2C_SLAVE,
  35:libDaisy/src/per/i2c.h ****         };
  36:libDaisy/src/per/i2c.h **** 
  37:libDaisy/src/per/i2c.h ****         /** Specifices the internal peripheral to use (these are mapped to different pins on the ha
  38:libDaisy/src/per/i2c.h ****         enum class Peripheral
  39:libDaisy/src/per/i2c.h ****         {
  40:libDaisy/src/per/i2c.h ****             I2C_1 = 0, /**< & */
  41:libDaisy/src/per/i2c.h ****             I2C_2,     /**< & */
  42:libDaisy/src/per/i2c.h ****             I2C_3,     /**< & */
  43:libDaisy/src/per/i2c.h ****             I2C_4,     /**< & */
  44:libDaisy/src/per/i2c.h ****         };
  45:libDaisy/src/per/i2c.h **** 
  46:libDaisy/src/per/i2c.h ****         /** Rate at which the clock/data will be sent/received. The device being used will have max
  47:libDaisy/src/per/i2c.h ****          *  1MHZ Mode is currently 886kHz
  48:libDaisy/src/per/i2c.h ****          */
  49:libDaisy/src/per/i2c.h ****         enum class Speed
  50:libDaisy/src/per/i2c.h ****         {
  51:libDaisy/src/per/i2c.h ****             I2C_100KHZ, /**< & */
  52:libDaisy/src/per/i2c.h ****             I2C_400KHZ, /**< & */
  53:libDaisy/src/per/i2c.h ****             I2C_1MHZ,   /**< & */
  54:libDaisy/src/per/i2c.h ****         };
  55:libDaisy/src/per/i2c.h **** 
  56:libDaisy/src/per/i2c.h ****         Peripheral periph; /**< & */
  57:libDaisy/src/per/i2c.h ****         struct
  58:libDaisy/src/per/i2c.h ****         {
  59:libDaisy/src/per/i2c.h ****             dsy_gpio_pin scl; /**< & */
  60:libDaisy/src/per/i2c.h ****             dsy_gpio_pin sda; /**< & */
  61:libDaisy/src/per/i2c.h ****         } pin_config;         /**< & */
  62:libDaisy/src/per/i2c.h **** 
  63:libDaisy/src/per/i2c.h ****         Speed speed; /**< & */
  64:libDaisy/src/per/i2c.h ****         Mode  mode;  /**< & */
  65:libDaisy/src/per/i2c.h ****         // 0x10 is chosen as a default to avoid conflicts with reserved addresses
  66:libDaisy/src/per/i2c.h ****         uint8_t address = 0x10; /**< & */
  67:libDaisy/src/per/i2c.h ****     };
  68:libDaisy/src/per/i2c.h **** 
  69:libDaisy/src/per/i2c.h ****     /** Return values for I2C functions. */
  70:libDaisy/src/per/i2c.h ****     enum class Result
  71:libDaisy/src/per/i2c.h ****     {
  72:libDaisy/src/per/i2c.h ****         OK, /**< & */
  73:libDaisy/src/per/i2c.h ****         ERR /**< & */
  74:libDaisy/src/per/i2c.h ****     };
  75:libDaisy/src/per/i2c.h **** 
ARM GAS  /tmp/cca3rxWD.s 			page 170


  76:libDaisy/src/per/i2c.h ****     enum class Direction
  77:libDaisy/src/per/i2c.h ****     {
  78:libDaisy/src/per/i2c.h ****         TRANSMIT, /**< & */
  79:libDaisy/src/per/i2c.h ****         RECEIVE,  /**< & */
  80:libDaisy/src/per/i2c.h ****     };
  81:libDaisy/src/per/i2c.h **** 
  82:libDaisy/src/per/i2c.h ****     I2CHandle() : pimpl_(nullptr) {}
 5857              		.loc 21 82 5 is_stmt 1 view .LVU1647
 5858              	.LBE1230:
 5859              	.LBB1235:
 5860              	.LBB1236:
 5861              	.LBB1237:
 5862              	.LBB1238:
 5863              	.LBB1239:
 5864              	.LBB1240:
  85:libDaisy/src/per/uart.h ****             // baudrate   = 31250;
  86:libDaisy/src/per/uart.h ****         }
  87:libDaisy/src/per/uart.h **** 
  88:libDaisy/src/per/uart.h ****         Peripheral periph;
  89:libDaisy/src/per/uart.h ****         StopBits   stopbits;
  90:libDaisy/src/per/uart.h ****         Parity     parity;
  91:libDaisy/src/per/uart.h ****         Mode       mode;
  92:libDaisy/src/per/uart.h ****         WordLength wordlength;
  93:libDaisy/src/per/uart.h ****         uint32_t   baudrate;
  94:libDaisy/src/per/uart.h ****     };
  95:libDaisy/src/per/uart.h **** 
  96:libDaisy/src/per/uart.h **** 
  97:libDaisy/src/per/uart.h ****     UartHandler() : pimpl_(nullptr) {}
 5865              		.loc 18 97 35 is_stmt 0 view .LVU1648
 5866 0014 4D48     		ldr	r0, .L374+12
 5867              	.LBE1240:
 5868              	.LBE1239:
 5869              	.LBE1238:
 5870              	.LBE1237:
 5871              	.LBE1236:
 5872              	.LBE1235:
 5873              	.LBB1276:
 5874              	.LBB1231:
 5875              	.LBB1232:
 5876              		.loc 21 82 33 view .LVU1649
 5877 0016 4E4A     		ldr	r2, .L374+16
 5878              	.LBE1232:
 5879              	.LBE1231:
 5880              	.LBE1276:
 5881              	.LBB1277:
 5882              	.LBB1274:
 5883              	.LBB1272:
 5884              	.LBB1243:
 5885              	.LBB1244:
 5886              	.LBB1245:
 5887              	.LBB1246:
  36:libDaisy/src/hid/midi.h ****             rx     = {DSY_GPIOB, 7};
 5888              		.loc 9 36 20 view .LVU1650
 5889 0018 00F51043 		add	r3, r0, #36864
 5890              	.LBE1246:
 5891              	.LBE1245:
 5892              	.LBE1244:
ARM GAS  /tmp/cca3rxWD.s 			page 171


 5893              	.LBE1243:
 5894              	.LBB1259:
 5895              	.LBB1242:
 5896              	.LBB1241:
 5897              		.loc 18 97 35 view .LVU1651
 5898 001c 0460     		str	r4, [r0]
 5899              	.LBE1241:
 5900              	.LBE1242:
 5901              	.LBE1259:
 5902              	.LBE1272:
 5903              	.LBE1274:
 5904              	.LBE1277:
 5905              	.LBB1278:
 5906              	.LBB1234:
 5907              	.LBB1233:
 5908              		.loc 21 82 33 view .LVU1652
 5909 001e 1460     		str	r4, [r2]
 5910              	.LVL372:
 5911              		.loc 21 82 33 view .LVU1653
 5912              	.LBE1233:
 5913              	.LBE1234:
 5914              	.LBE1278:
 5915              	.LBB1279:
 5916              	.LBI1235:
  84:libDaisy/src/hid/midi.h ****     ~MidiHandler() {}
 5917              		.loc 9 84 5 is_stmt 1 view .LVU1654
 5918              	.LBB1275:
 5919              	.LBB1273:
 5920              	.LBB1260:
 5921              	.LBI1238:
 5922              		.loc 18 97 5 view .LVU1655
 5923              		.loc 18 97 5 is_stmt 0 view .LVU1656
 5924              	.LBE1260:
 5925              	.LBB1261:
 5926              	.LBI1261:
  21:libDaisy/src/util/ringbuffer.h **** 
 5927              		.loc 17 21 5 is_stmt 1 view .LVU1657
  21:libDaisy/src/util/ringbuffer.h **** 
 5928              		.loc 17 21 5 is_stmt 0 view .LVU1658
 5929              	.LBE1261:
 5930              	.LBB1262:
 5931              	.LBI1243:
  87:libDaisy/src/hid/midi.h ****     {
 5932              		.loc 9 87 12 is_stmt 1 view .LVU1659
 5933              	.LBB1255:
 5934              	.LBI1244:
  34:libDaisy/src/hid/midi.h ****         {
 5935              		.loc 9 34 9 view .LVU1660
 5936              	.LBB1251:
 5937              	.LBB1247:
  36:libDaisy/src/hid/midi.h ****             rx     = {DSY_GPIOB, 7};
 5938              		.loc 9 36 13 view .LVU1661
 5939              	.LBE1247:
 5940              	.LBE1251:
 5941              	.LBE1255:
 5942              	.LBE1262:
  84:libDaisy/src/hid/midi.h ****     ~MidiHandler() {}
ARM GAS  /tmp/cca3rxWD.s 			page 172


 5943              		.loc 9 84 19 is_stmt 0 view .LVU1662
 5944 0020 4FF60F02 		movw	r2, #63503
 5945              	.LBB1263:
 5946              	.LBB1256:
 5947              	.LBB1252:
 5948              	.LBB1248:
  36:libDaisy/src/hid/midi.h ****             rx     = {DSY_GPIOB, 7};
 5949              		.loc 9 36 20 view .LVU1663
 5950 0024 C3F8A840 		str	r4, [r3, #168]
  37:libDaisy/src/hid/midi.h ****             tx     = {DSY_GPIOB, 6};
 5951              		.loc 9 37 13 is_stmt 1 view .LVU1664
 5952              	.LBE1248:
 5953              	.LBE1252:
 5954              	.LBE1256:
 5955              	.LBE1263:
 5956              	.LBB1264:
 5957              	.LBB1265:
 5958              	.LBB1266:
 5959              	.LBB1267:
 5960              		.loc 18 97 35 is_stmt 0 view .LVU1665
 5961 0028 C3F8B040 		str	r4, [r3, #176]
 5962              	.LBE1267:
 5963              	.LBE1266:
 5964              	.LBE1265:
 5965              	.LBE1264:
  84:libDaisy/src/hid/midi.h ****     ~MidiHandler() {}
 5966              		.loc 9 84 19 view .LVU1666
 5967 002c 494C     		ldr	r4, .L374+20
 5968              	.LBB1269:
 5969              	.LBB1257:
 5970              	.LBB1253:
 5971              	.LBB1249:
  37:libDaisy/src/hid/midi.h ****             tx     = {DSY_GPIOB, 6};
 5972              		.loc 9 37 20 view .LVU1667
 5973 002e 4A49     		ldr	r1, .L374+24
 5974              	.LBE1249:
 5975              	.LBE1253:
 5976              	.LBE1257:
 5977              	.LBE1269:
  84:libDaisy/src/hid/midi.h ****     ~MidiHandler() {}
 5978              		.loc 9 84 19 view .LVU1668
 5979 0030 C3F8B440 		str	r4, [r3, #180]
 5980 0034 0724     		movs	r4, #7
 5981 0036 A3F8B820 		strh	r2, [r3, #184]	@ movhi
 5982 003a 83F8BA40 		strb	r4, [r3, #186]
 5983              	.LBB1270:
 5984              	.LBB1258:
 5985              	.LBB1254:
 5986              	.LBB1250:
  37:libDaisy/src/hid/midi.h ****             tx     = {DSY_GPIOB, 6};
 5987              		.loc 9 37 20 view .LVU1669
 5988 003e 0C8D     		ldrh	r4, [r1, #40]
  38:libDaisy/src/hid/midi.h ****         }
 5989              		.loc 9 38 20 view .LVU1670
 5990 0040 898D     		ldrh	r1, [r1, #44]
  37:libDaisy/src/hid/midi.h ****             tx     = {DSY_GPIOB, 6};
 5991              		.loc 9 37 20 view .LVU1671
ARM GAS  /tmp/cca3rxWD.s 			page 173


 5992 0042 A3F8AC40 		strh	r4, [r3, #172]	@ movhi
  38:libDaisy/src/hid/midi.h ****         }
 5993              		.loc 9 38 13 is_stmt 1 view .LVU1672
  38:libDaisy/src/hid/midi.h ****         }
 5994              		.loc 9 38 20 is_stmt 0 view .LVU1673
 5995 0046 A3F8AE10 		strh	r1, [r3, #174]	@ movhi
 5996              	.LVL373:
  38:libDaisy/src/hid/midi.h ****         }
 5997              		.loc 9 38 20 view .LVU1674
 5998              	.LBE1250:
 5999              	.LBE1254:
 6000              	.LBE1258:
 6001              	.LBE1270:
 6002              	.LBB1271:
 6003              	.LBI1264:
  25:libDaisy/src/hid/midi.h ****     ~MidiUartTransport() {}
 6004              		.loc 9 25 5 is_stmt 1 view .LVU1675
 6005              	.LBB1268:
 6006              	.LBI1265:
 6007              		.loc 18 97 5 view .LVU1676
 6008              		.loc 18 97 5 is_stmt 0 view .LVU1677
 6009              	.LBE1268:
 6010              	.LBE1271:
 6011              	.LBE1273:
 6012              	.LBE1275:
 6013              	.LBE1279:
  25:fjol.cpp      **** MidiUartHandler midi; //initialize midi object
 6014              		.loc 7 25 17 view .LVU1678
 6015 004a 3E4A     		ldr	r2, .L374+4
 6016 004c 4349     		ldr	r1, .L374+28
 6017 004e FFF7FEFF 		bl	__aeabi_atexit
 6018              	.LVL374:
  99:fjol.cpp      **** op voice[voicecount]; 
 6019              		.loc 7 99 20 is_stmt 1 view .LVU1679
 6020 0052 434B     		ldr	r3, .L374+32
 6021 0054 03F53870 		add	r0, r3, #736
 6022              	.L369:
 6023              	.LVL375:
 6024              	.LBB1280:
 6025              	.LBI1280:
  46:fjol.cpp      **** struct op
 6026              		.loc 7 46 8 view .LVU1680
 6027              	.LBB1281:
 6028              	.LBB1282:
 6029              	.LBI1282:
  15:DaisySP/Source/Synthesis/oscillator.h ****     ~Oscillator() {}
 6030              		.loc 10 15 5 view .LVU1681
  15:DaisySP/Source/Synthesis/oscillator.h ****     ~Oscillator() {}
 6031              		.loc 10 15 5 is_stmt 0 view .LVU1682
 6032              	.LBE1282:
 6033              	.LBB1283:
 6034              	.LBI1283:
  15:DaisySP/Source/Synthesis/oscillator.h ****     ~Oscillator() {}
 6035              		.loc 10 15 5 is_stmt 1 view .LVU1683
  15:DaisySP/Source/Synthesis/oscillator.h ****     ~Oscillator() {}
 6036              		.loc 10 15 5 is_stmt 0 view .LVU1684
 6037              	.LBE1283:
ARM GAS  /tmp/cca3rxWD.s 			page 174


 6038              	.LBB1284:
 6039              	.LBI1284:
  15:DaisySP/Source/Synthesis/oscillator.h ****     ~Oscillator() {}
 6040              		.loc 10 15 5 is_stmt 1 view .LVU1685
  15:DaisySP/Source/Synthesis/oscillator.h ****     ~Oscillator() {}
 6041              		.loc 10 15 5 is_stmt 0 view .LVU1686
 6042              	.LBE1284:
 6043              	.LBE1281:
 6044              	.LBE1280:
  99:fjol.cpp      **** op voice[voicecount]; 
 6045              		.loc 7 99 20 view .LVU1687
 6046 0058 B833     		adds	r3, r3, #184
 6047              	.LVL376:
 6048              	.LBB1287:
 6049              	.LBB1285:
  46:fjol.cpp      **** struct op
 6050              		.loc 7 46 8 view .LVU1688
 6051 005a 0022     		movs	r2, #0
 6052 005c 4FF07D51 		mov	r1, #1061158912
 6053              	.LBE1285:
 6054              	.LBE1287:
  99:fjol.cpp      **** op voice[voicecount]; 
 6055              		.loc 7 99 20 view .LVU1689
 6056 0060 9842     		cmp	r0, r3
 6057              	.LBB1288:
 6058              	.LBB1286:
  46:fjol.cpp      **** struct op
 6059              		.loc 7 46 8 view .LVU1690
 6060 0062 43F8282C 		str	r2, [r3, #-40]	@ float
 6061 0066 43F8242C 		str	r2, [r3, #-36]	@ float
 6062 006a 43F81C1C 		str	r1, [r3, #-28]	@ float
 6063              	.LVL377:
  46:fjol.cpp      **** struct op
 6064              		.loc 7 46 8 view .LVU1691
 6065              	.LBE1286:
 6066              	.LBE1288:
  99:fjol.cpp      **** op voice[voicecount]; 
 6067              		.loc 7 99 20 is_stmt 1 view .LVU1692
  99:fjol.cpp      **** op voice[voicecount]; 
 6068              		.loc 7 99 20 view .LVU1693
 6069 006e F3D1     		bne	.L369
  99:fjol.cpp      **** op voice[voicecount]; 
 6070              		.loc 7 99 4 is_stmt 0 view .LVU1694
 6071 0070 3C49     		ldr	r1, .L374+36
 6072 0072 0020     		movs	r0, #0
 6073 0074 334A     		ldr	r2, .L374+4
 6074 0076 FFF7FEFF 		bl	__aeabi_atexit
 6075              	.LVL378:
 100:fjol.cpp      **** envStruc envelope[voicecount];
 6076              		.loc 7 100 29 is_stmt 1 view .LVU1695
 6077 007a 3B4B     		ldr	r3, .L374+40
 6078 007c 03F58071 		add	r1, r3, #256
 6079              	.L370:
 6080              	.LVL379:
 6081              	.LBB1289:
 6082              	.LBI1289:
  29:fjol.cpp      **** struct envStruc //amplitude envelope
ARM GAS  /tmp/cca3rxWD.s 			page 175


 6083              		.loc 7 29 8 view .LVU1696
 6084              	.LBB1290:
 6085              	.LBI1290:
  36:DaisySP/Source/Control/adsr.h ****     ~Adsr() {}
 6086              		.loc 14 36 5 view .LVU1697
 6087              	.LBE1290:
 6088              	.LBE1289:
 100:fjol.cpp      **** envStruc envelope[voicecount];
 6089              		.loc 7 100 29 is_stmt 0 view .LVU1698
 6090 0080 4033     		adds	r3, r3, #64
 6091              	.LVL380:
 6092              	.LBB1295:
 6093              	.LBB1293:
 6094              	.LBB1291:
  36:DaisySP/Source/Control/adsr.h ****     ~Adsr() {}
 6095              		.loc 14 36 12 view .LVU1699
 6096 0082 0024     		movs	r4, #0
 6097 0084 394A     		ldr	r2, .L374+44
 6098 0086 0025     		movs	r5, #0
 6099              	.LBE1291:
 6100              	.LBE1293:
 6101              	.LBE1295:
 100:fjol.cpp      **** envStruc envelope[voicecount];
 6102              		.loc 7 100 29 view .LVU1700
 6103 0088 8B42     		cmp	r3, r1
 6104              	.LBB1296:
 6105              	.LBB1294:
 6106              	.LBB1292:
  36:DaisySP/Source/Control/adsr.h ****     ~Adsr() {}
 6107              		.loc 14 36 12 view .LVU1701
 6108 008a 43F8404C 		str	r4, [r3, #-64]	@ float
 6109 008e 43F83C4C 		str	r4, [r3, #-60]	@ float
 6110 0092 43F8382C 		str	r2, [r3, #-56]	@ float
 6111 0096 43F8344C 		str	r4, [r3, #-52]	@ float
 6112 009a 43F8302C 		str	r2, [r3, #-48]	@ float
 6113 009e 43F82C2C 		str	r2, [r3, #-44]	@ float
 6114 00a2 43F8282C 		str	r2, [r3, #-40]	@ float
 6115 00a6 43F8244C 		str	r4, [r3, #-36]	@ float
 6116 00aa 43F8204C 		str	r4, [r3, #-32]	@ float
 6117 00ae 43F81C4C 		str	r4, [r3, #-28]	@ float
 6118 00b2 03F8145C 		strb	r5, [r3, #-20]
 6119 00b6 03F8135C 		strb	r5, [r3, #-19]
 6120              	.LVL381:
  36:DaisySP/Source/Control/adsr.h ****     ~Adsr() {}
 6121              		.loc 14 36 12 view .LVU1702
 6122              	.LBE1292:
 6123              	.LBE1294:
 6124              	.LBE1296:
 100:fjol.cpp      **** envStruc envelope[voicecount];
 6125              		.loc 7 100 29 is_stmt 1 view .LVU1703
 100:fjol.cpp      **** envStruc envelope[voicecount];
 6126              		.loc 7 100 29 view .LVU1704
 6127 00ba E1D1     		bne	.L370
 100:fjol.cpp      **** envStruc envelope[voicecount];
 6128              		.loc 7 100 10 is_stmt 0 view .LVU1705
 6129 00bc 214A     		ldr	r2, .L374+4
 6130 00be 2846     		mov	r0, r5
ARM GAS  /tmp/cca3rxWD.s 			page 176


 6131 00c0 2B49     		ldr	r1, .L374+48
 6132 00c2 FFF7FEFF 		bl	__aeabi_atexit
 6133              	.LVL382:
 6134              	.LBB1297:
 6135              	.LBI1297:
  38:fjol.cpp      **** struct ADStruc //for filter envelope
 6136              		.loc 7 38 8 is_stmt 1 view .LVU1706
 6137              	.LBB1298:
 6138              	.LBI1298:
  34:DaisySP/Source/Control/adenv.h ****     ~AdEnv() {}
 6139              		.loc 8 34 5 view .LVU1707
  34:DaisySP/Source/Control/adenv.h ****     ~AdEnv() {}
 6140              		.loc 8 34 5 is_stmt 0 view .LVU1708
 6141              	.LBE1298:
 6142              	.LBE1297:
 101:fjol.cpp      **** ADStruc filtenvelope; //stereo
 6143              		.loc 7 101 9 view .LVU1709
 6144 00c6 1F4A     		ldr	r2, .L374+4
 6145 00c8 2A49     		ldr	r1, .L374+52
 6146 00ca 2B48     		ldr	r0, .L374+56
 6147 00cc FFF7FEFF 		bl	__aeabi_atexit
 6148              	.LVL383:
 102:fjol.cpp      **** filter_ stfilter[2]; //stereo
 6149              		.loc 7 102 19 is_stmt 1 view .LVU1710
 6150              	.LBB1299:
 6151              	.LBI1299:
  72:fjol.cpp      **** struct filter_
 6152              		.loc 7 72 8 view .LVU1711
 6153              	.LBB1300:
 6154              	.LBB1301:
 6155              	.LBI1301:
 6156              		.file 22 "DaisySP/Source/Filters/svf.h"
   1:DaisySP/Source/Filters/svf.h **** #pragma once
   2:DaisySP/Source/Filters/svf.h **** #ifndef DSY_SVF_H
   3:DaisySP/Source/Filters/svf.h **** #define DSY_SVF_H
   4:DaisySP/Source/Filters/svf.h **** 
   5:DaisySP/Source/Filters/svf.h **** namespace daisysp
   6:DaisySP/Source/Filters/svf.h **** {
   7:DaisySP/Source/Filters/svf.h **** /**      Double Sampled, Stable State Variable Filter
   8:DaisySP/Source/Filters/svf.h **** 
   9:DaisySP/Source/Filters/svf.h **** Credit to Andrew Simper from musicdsp.org
  10:DaisySP/Source/Filters/svf.h **** 
  11:DaisySP/Source/Filters/svf.h **** This is his "State Variable Filter (Double Sampled, Stable)"
  12:DaisySP/Source/Filters/svf.h **** 
  13:DaisySP/Source/Filters/svf.h **** Additional thanks to Laurent de Soras for stability limit, and 
  14:DaisySP/Source/Filters/svf.h **** Stefan Diedrichsen for the correct notch output
  15:DaisySP/Source/Filters/svf.h **** 
  16:DaisySP/Source/Filters/svf.h **** Ported by: Stephen Hensley
  17:DaisySP/Source/Filters/svf.h **** */
  18:DaisySP/Source/Filters/svf.h **** class Svf
  19:DaisySP/Source/Filters/svf.h **** {
  20:DaisySP/Source/Filters/svf.h ****   public:
  21:DaisySP/Source/Filters/svf.h ****     Svf() {}
 6157              		.loc 22 21 5 view .LVU1712
 6158              		.loc 22 21 5 is_stmt 0 view .LVU1713
 6159              	.LBE1301:
  72:fjol.cpp      **** struct filter_
ARM GAS  /tmp/cca3rxWD.s 			page 177


 6160              		.loc 7 72 8 view .LVU1714
 6161 00d0 2A4B     		ldr	r3, .L374+60
 6162              	.LBE1300:
 6163              	.LBE1299:
 102:fjol.cpp      **** filter_ stfilter[2]; //stereo
 6164              		.loc 7 102 9 view .LVU1715
 6165 00d2 1C4A     		ldr	r2, .L374+4
 6166 00d4 2846     		mov	r0, r5
 6167              	.LBB1305:
 6168              	.LBB1303:
  72:fjol.cpp      **** struct filter_
 6169              		.loc 7 72 8 view .LVU1716
 6170 00d6 5C65     		str	r4, [r3, #84]	@ float
 6171              	.LVL384:
  72:fjol.cpp      **** struct filter_
 6172              		.loc 7 72 8 view .LVU1717
 6173              	.LBE1303:
 6174              	.LBE1305:
 102:fjol.cpp      **** filter_ stfilter[2]; //stereo
 6175              		.loc 7 102 19 is_stmt 1 view .LVU1718
 102:fjol.cpp      **** filter_ stfilter[2]; //stereo
 6176              		.loc 7 102 19 view .LVU1719
 6177              	.LBB1306:
  72:fjol.cpp      **** struct filter_
 6178              		.loc 7 72 8 view .LVU1720
 6179              	.LBB1304:
 6180              	.LBB1302:
 6181              		.loc 22 21 5 view .LVU1721
 6182              		.loc 22 21 5 is_stmt 0 view .LVU1722
 6183              	.LBE1302:
  72:fjol.cpp      **** struct filter_
 6184              		.loc 7 72 8 view .LVU1723
 6185 00d8 C3F8AC40 		str	r4, [r3, #172]	@ float
 6186              	.LVL385:
  72:fjol.cpp      **** struct filter_
 6187              		.loc 7 72 8 view .LVU1724
 6188              	.LBE1304:
 6189              	.LBE1306:
 102:fjol.cpp      **** filter_ stfilter[2]; //stereo
 6190              		.loc 7 102 19 is_stmt 1 view .LVU1725
 102:fjol.cpp      **** filter_ stfilter[2]; //stereo
 6191              		.loc 7 102 19 view .LVU1726
 102:fjol.cpp      **** filter_ stfilter[2]; //stereo
 6192              		.loc 7 102 9 is_stmt 0 view .LVU1727
 6193 00dc 2849     		ldr	r1, .L374+64
 6194 00de FFF7FEFF 		bl	__aeabi_atexit
 6195              	.LVL386:
 6196              	.LBB1307:
 6197              	.LBI1307:
  41:libDaisy/src/hid/switch.h ****     ~Switch() {}
 6198              		.loc 1 41 5 is_stmt 1 view .LVU1728
  41:libDaisy/src/hid/switch.h ****     ~Switch() {}
 6199              		.loc 1 41 5 is_stmt 0 view .LVU1729
 6200              	.LBE1307:
 104:fjol.cpp      **** Switch shift_sw;
 6201              		.loc 7 104 8 view .LVU1730
 6202 00e2 184A     		ldr	r2, .L374+4
ARM GAS  /tmp/cca3rxWD.s 			page 178


 6203 00e4 2749     		ldr	r1, .L374+68
 6204 00e6 2848     		ldr	r0, .L374+72
 6205 00e8 FFF7FEFF 		bl	__aeabi_atexit
 6206              	.LVL387:
 6207              	.LBB1308:
 6208              	.LBI1308:
  41:libDaisy/src/hid/switch.h ****     ~Switch() {}
 6209              		.loc 1 41 5 is_stmt 1 view .LVU1731
  41:libDaisy/src/hid/switch.h ****     ~Switch() {}
 6210              		.loc 1 41 5 is_stmt 0 view .LVU1732
 6211              	.LBE1308:
 105:fjol.cpp      **** Switch algo_sw;
 6212              		.loc 7 105 8 view .LVU1733
 6213 00ec 154A     		ldr	r2, .L374+4
 6214 00ee 2549     		ldr	r1, .L374+68
 6215 00f0 2648     		ldr	r0, .L374+76
 6216 00f2 FFF7FEFF 		bl	__aeabi_atexit
 6217              	.LVL388:
 6218              	.LBB1309:
 6219              	.LBI1309:
  41:libDaisy/src/hid/switch.h ****     ~Switch() {}
 6220              		.loc 1 41 5 is_stmt 1 view .LVU1734
  41:libDaisy/src/hid/switch.h ****     ~Switch() {}
 6221              		.loc 1 41 5 is_stmt 0 view .LVU1735
 6222              	.LBE1309:
 106:fjol.cpp      **** Switch midi_sw;
 6223              		.loc 7 106 8 view .LVU1736
 6224 00f6 134A     		ldr	r2, .L374+4
 6225 00f8 2249     		ldr	r1, .L374+68
 6226 00fa 2548     		ldr	r0, .L374+80
 6227 00fc FFF7FEFF 		bl	__aeabi_atexit
 6228              	.LVL389:
 107:fjol.cpp      **** gate_i gate[4];
 6229              		.loc 7 107 14 is_stmt 1 view .LVU1737
 107:fjol.cpp      **** gate_i gate[4];
 6230              		.loc 7 107 8 is_stmt 0 view .LVU1738
 6231 0100 104A     		ldr	r2, .L374+4
 6232 0102 2449     		ldr	r1, .L374+84
 6233 0104 2846     		mov	r0, r5
 6234 0106 FFF7FEFF 		bl	__aeabi_atexit
 6235              	.LVL390:
 108:fjol.cpp      **** knob voct[4];
 6236              		.loc 7 108 12 is_stmt 1 view .LVU1739
 108:fjol.cpp      **** knob voct[4];
 6237              		.loc 7 108 6 is_stmt 0 view .LVU1740
 6238 010a 0E4A     		ldr	r2, .L374+4
 6239 010c 2249     		ldr	r1, .L374+88
 6240 010e 2846     		mov	r0, r5
 6241 0110 FFF7FEFF 		bl	__aeabi_atexit
 6242              	.LVL391:
 109:fjol.cpp      **** knob controls[8]; //8 knobs
 6243              		.loc 7 109 16 is_stmt 1 view .LVU1741
 109:fjol.cpp      **** knob controls[8]; //8 knobs
 6244              		.loc 7 109 6 is_stmt 0 view .LVU1742
 6245 0114 0B4A     		ldr	r2, .L374+4
 6246 0116 2149     		ldr	r1, .L374+92
 6247 0118 2846     		mov	r0, r5
ARM GAS  /tmp/cca3rxWD.s 			page 179


 6248 011a FFF7FEFF 		bl	__aeabi_atexit
 6249              	.LVL392:
 110:fjol.cpp      **** knob cv[2]; //2 cv ins for ctl1 and ctl2
 6250              		.loc 7 110 10 is_stmt 1 view .LVU1743
 110:fjol.cpp      **** knob cv[2]; //2 cv ins for ctl1 and ctl2
 6251              		.loc 7 110 6 is_stmt 0 view .LVU1744
 6252 011e 094A     		ldr	r2, .L374+4
 6253 0120 1F49     		ldr	r1, .L374+96
 6254 0122 2846     		mov	r0, r5
 6255 0124 FFF7FEFF 		bl	__aeabi_atexit
 6256              	.LVL393:
 111:fjol.cpp      **** rotary enc[2];
 6257              		.loc 7 111 13 is_stmt 1 view .LVU1745
 6258              	.LBB1310:
 6259              	.LBI1310:
  92:fjol.cpp      **** struct rotary
 6260              		.loc 7 92 8 view .LVU1746
 6261              	.LBB1311:
 6262              	.LBB1312:
 6263              	.LBI1312:
  20:libDaisy/src/hid/encoder.h ****     ~Encoder() {}
 6264              		.loc 12 20 5 view .LVU1747
 6265              	.LBB1313:
 6266              	.LBB1314:
 6267              	.LBI1314:
  41:libDaisy/src/hid/switch.h ****     ~Switch() {}
 6268              		.loc 1 41 5 view .LVU1748
  41:libDaisy/src/hid/switch.h ****     ~Switch() {}
 6269              		.loc 1 41 5 is_stmt 0 view .LVU1749
 6270              	.LBE1314:
 6271              	.LBE1313:
 6272              	.LBE1312:
  92:fjol.cpp      **** struct rotary
 6273              		.loc 7 92 8 view .LVU1750
 6274 0128 1E4B     		ldr	r3, .L374+100
 6275              	.LBE1311:
 6276              	.LBE1310:
 111:fjol.cpp      **** rotary enc[2];
 6277              		.loc 7 111 8 view .LVU1751
 6278 012a 2846     		mov	r0, r5
 6279 012c 054A     		ldr	r2, .L374+4
 6280              	.LBB1320:
 6281              	.LBB1318:
  92:fjol.cpp      **** struct rotary
 6282              		.loc 7 92 8 view .LVU1752
 6283 012e 1D85     		strh	r5, [r3, #40]	@ movhi
 6284              	.LVL394:
  92:fjol.cpp      **** struct rotary
 6285              		.loc 7 92 8 view .LVU1753
 6286              	.LBE1318:
 6287              	.LBE1320:
 111:fjol.cpp      **** rotary enc[2];
 6288              		.loc 7 111 13 is_stmt 1 view .LVU1754
 111:fjol.cpp      **** rotary enc[2];
 6289              		.loc 7 111 13 view .LVU1755
 6290              	.LBB1321:
  92:fjol.cpp      **** struct rotary
ARM GAS  /tmp/cca3rxWD.s 			page 180


 6291              		.loc 7 92 8 view .LVU1756
 6292              	.LBB1319:
 6293              	.LBB1317:
  20:libDaisy/src/hid/encoder.h ****     ~Encoder() {}
 6294              		.loc 12 20 5 view .LVU1757
 6295              	.LBB1316:
 6296              	.LBB1315:
  41:libDaisy/src/hid/switch.h ****     ~Switch() {}
 6297              		.loc 1 41 5 view .LVU1758
  41:libDaisy/src/hid/switch.h ****     ~Switch() {}
 6298              		.loc 1 41 5 is_stmt 0 view .LVU1759
 6299              	.LBE1315:
 6300              	.LBE1316:
 6301              	.LBE1317:
  92:fjol.cpp      **** struct rotary
 6302              		.loc 7 92 8 view .LVU1760
 6303 0130 A3F85450 		strh	r5, [r3, #84]	@ movhi
 6304              	.LVL395:
  92:fjol.cpp      **** struct rotary
 6305              		.loc 7 92 8 view .LVU1761
 6306              	.LBE1319:
 6307              	.LBE1321:
 111:fjol.cpp      **** rotary enc[2];
 6308              		.loc 7 111 13 is_stmt 1 view .LVU1762
 111:fjol.cpp      **** rotary enc[2];
 6309              		.loc 7 111 13 view .LVU1763
 111:fjol.cpp      **** rotary enc[2];
 6310              		.loc 7 111 8 is_stmt 0 view .LVU1764
 6311 0134 1C49     		ldr	r1, .L374+104
 6312              	.LBE1322:
 6313              	.LBE1324:
 6314              		.loc 7 715 1 view .LVU1765
 6315 0136 BDE83840 		pop	{r3, r4, r5, lr}
 6316              		.cfi_restore 14
 6317              		.cfi_restore 5
 6318              		.cfi_restore 4
 6319              		.cfi_restore 3
 6320              		.cfi_def_cfa_offset 0
 6321              	.LBB1325:
 6322              	.LBB1323:
 111:fjol.cpp      **** rotary enc[2];
 6323              		.loc 7 111 8 view .LVU1766
 6324 013a FFF7FEBF 		b	__aeabi_atexit
 6325              	.LVL396:
 6326              	.L375:
 6327 013e 00BF     		.align	2
 6328              	.L374:
 6329 0140 00000000 		.word	.LANCHOR13
 6330 0144 00000000 		.word	__dso_handle
 6331 0148 00000000 		.word	_ZN5daisy9DaisySeedD1Ev
 6332 014c 00000000 		.word	midi
 6333 0150 00000000 		.word	.LANCHOR15
 6334 0154 80707FF0 		.word	-260083584
 6335 0158 00000000 		.word	.LANCHOR3
 6336 015c 00000000 		.word	_ZN5daisy11MidiHandlerINS_17MidiUartTransportEED1Ev
 6337 0160 00000000 		.word	.LANCHOR0
 6338 0164 00000000 		.word	__tcf_0
ARM GAS  /tmp/cca3rxWD.s 			page 181


 6339 0168 00000000 		.word	.LANCHOR1
 6340 016c 000080BF 		.word	-1082130432
 6341 0170 00000000 		.word	__tcf_1
 6342 0174 00000000 		.word	_ZN7ADStrucD1Ev
 6343 0178 00000000 		.word	.LANCHOR6
 6344 017c 00000000 		.word	.LANCHOR11
 6345 0180 00000000 		.word	__tcf_2
 6346 0184 00000000 		.word	_ZN5daisy6SwitchD1Ev
 6347 0188 00000000 		.word	.LANCHOR7
 6348 018c 00000000 		.word	.LANCHOR8
 6349 0190 00000000 		.word	.LANCHOR9
 6350 0194 00000000 		.word	__tcf_3
 6351 0198 00000000 		.word	__tcf_4
 6352 019c 00000000 		.word	__tcf_5
 6353 01a0 00000000 		.word	__tcf_6
 6354 01a4 00000000 		.word	.LANCHOR4
 6355 01a8 00000000 		.word	__tcf_7
 6356              	.LBE1323:
 6357              	.LBE1325:
 6358              		.cfi_endproc
 6359              	.LFE5447:
 6361              		.section	.init_array,"aw",%init_array
 6362              		.align	2
 6363 0000 00000000 		.word	_GLOBAL__sub_I_i2c(target1)
 6364              		.global	debug_midi
 6365              		.global	debug_pots
 6366              		.global	enc
 6367              		.global	cv
 6368              		.global	controls
 6369              		.global	voct
 6370              		.global	gate
 6371              		.global	midi_sw
 6372              		.global	algo_sw
 6373              		.global	shift_sw
 6374              		.global	stfilter
 6375              		.global	filtenvelope
 6376              		.global	envelope
 6377              		.global	voice
 6378              		.global	adcConfig
 6379              		.global	midi
 6380              		.global	qspi_buffer
 6381              		.global	i2c
 6382              		.section	.rodata
 6383              		.align	2
 6384              		.set	.LANCHOR3,. + 0
 6385              	.LC2:
 6386 0000 00000000 		.word	0
 6387 0004 00000000 		.word	0
 6388 0008 00000000 		.word	0
 6389 000c 00000000 		.word	0
 6390 0010 00000000 		.word	0
 6391 0014 00000000 		.word	0
 6392 0018 00000000 		.word	0
 6393 001c 00000000 		.word	0
 6394 0020 00000404 		.ascii	"\000\000\004\004\000\001"
 6394      0001
 6395 0026 0000     		.space	2
ARM GAS  /tmp/cca3rxWD.s 			page 182


 6396              	.LC0:
 6397 0028 01       		.byte	1
 6398 0029 07       		.byte	7
 6399 002a 0000     		.space	2
 6400              	.LC1:
 6401 002c 01       		.byte	1
 6402 002d 06       		.byte	6
 6403              		.section	.bss._ZL2hw,"aw",%nobits
 6404              		.align	2
 6405              		.set	.LANCHOR13,. + 0
 6408              	_ZL2hw:
 6409 0000 00000000 		.space	60
 6409      00000000 
 6409      00000000 
 6409      00000000 
 6409      00000000 
 6410              		.section	.bss.adcConfig,"aw",%nobits
 6411              		.align	2
 6412              		.set	.LANCHOR12,. + 0
 6415              	adcConfig:
 6416 0000 00000000 		.space	17
 6416      00000000 
 6416      00000000 
 6416      00000000 
 6416      00
 6417              		.section	.bss.algo_sw,"aw",%nobits
 6418              		.align	2
 6419              		.set	.LANCHOR8,. + 0
 6422              	algo_sw:
 6423 0000 00000000 		.space	16
 6423      00000000 
 6423      00000000 
 6423      00000000 
 6424              		.section	.bss.controls,"aw",%nobits
 6425              		.align	2
 6426              		.set	.LANCHOR2,. + 0
 6429              	controls:
 6430 0000 00000000 		.space	736
 6430      00000000 
 6430      00000000 
 6430      00000000 
 6430      00000000 
 6431              		.section	.bss.cv,"aw",%nobits
 6432              		.align	2
 6433              		.set	.LANCHOR5,. + 0
 6436              	cv:
 6437 0000 00000000 		.space	184
 6437      00000000 
 6437      00000000 
 6437      00000000 
 6437      00000000 
 6438              		.section	.bss.debug_midi,"aw",%nobits
 6441              	debug_midi:
 6442 0000 00       		.space	1
 6443              		.section	.bss.enc,"aw",%nobits
 6444              		.align	2
 6445              		.set	.LANCHOR4,. + 0
ARM GAS  /tmp/cca3rxWD.s 			page 183


 6448              	enc:
 6449 0000 00000000 		.space	88
 6449      00000000 
 6449      00000000 
 6449      00000000 
 6449      00000000 
 6450              		.section	.bss.envelope,"aw",%nobits
 6451              		.align	2
 6452              		.set	.LANCHOR1,. + 0
 6455              	envelope:
 6456 0000 00000000 		.space	256
 6456      00000000 
 6456      00000000 
 6456      00000000 
 6456      00000000 
 6457              		.section	.bss.filtenvelope,"aw",%nobits
 6458              		.align	2
 6459              		.set	.LANCHOR6,. + 0
 6462              	filtenvelope:
 6463 0000 00000000 		.space	68
 6463      00000000 
 6463      00000000 
 6463      00000000 
 6463      00000000 
 6464              		.section	.bss.gate,"aw",%nobits
 6465              		.align	2
 6466              		.set	.LANCHOR10,. + 0
 6469              	gate:
 6470 0000 00000000 		.space	28
 6470      00000000 
 6470      00000000 
 6470      00000000 
 6470      00000000 
 6471              		.section	.bss.i2c,"aw",%nobits
 6472              		.align	2
 6473              		.set	.LANCHOR15,. + 0
 6476              	i2c:
 6477 0000 00000000 		.space	4
 6478              		.section	.bss.midi,"aw",%nobits
 6479              		.align	2
 6482              	midi:
 6483 0000 00000000 		.space	37052
 6483      00000000 
 6483      00000000 
 6483      00000000 
 6483      00000000 
 6484              		.section	.bss.midi_sw,"aw",%nobits
 6485              		.align	2
 6486              		.set	.LANCHOR9,. + 0
 6489              	midi_sw:
 6490 0000 00000000 		.space	16
 6490      00000000 
 6490      00000000 
 6490      00000000 
 6491              		.section	.bss.shift_sw,"aw",%nobits
 6492              		.align	2
 6493              		.set	.LANCHOR7,. + 0
ARM GAS  /tmp/cca3rxWD.s 			page 184


 6496              	shift_sw:
 6497 0000 00000000 		.space	16
 6497      00000000 
 6497      00000000 
 6497      00000000 
 6498              		.section	.bss.stfilter,"aw",%nobits
 6499              		.align	2
 6500              		.set	.LANCHOR11,. + 0
 6503              	stfilter:
 6504 0000 00000000 		.space	176
 6504      00000000 
 6504      00000000 
 6504      00000000 
 6504      00000000 
 6505              		.section	.bss.voct,"aw",%nobits
 6506              		.align	2
 6507              		.set	.LANCHOR14,. + 0
 6510              	voct:
 6511 0000 00000000 		.space	368
 6511      00000000 
 6511      00000000 
 6511      00000000 
 6511      00000000 
 6512              		.section	.bss.voice,"aw",%nobits
 6513              		.align	2
 6514              		.set	.LANCHOR0,. + 0
 6517              	voice:
 6518 0000 00000000 		.space	736
 6518      00000000 
 6518      00000000 
 6518      00000000 
 6518      00000000 
 6519              		.section	.data.debug_pots,"aw"
 6522              	debug_pots:
 6523 0000 01       		.byte	1
 6524              		.section	.qspiflash_bss,"aw"
 6525              		.align	2
 6528              	qspi_buffer:
 6529 0000 00000000 		.space	160
 6529      00000000 
 6529      00000000 
 6529      00000000 
 6529      00000000 
 6530              		.section	.rodata._ZL10i2c_config,"a"
 6531              		.align	2
 6532              		.set	.LANCHOR16,. + 0
 6535              	_ZL10i2c_config:
 6536 0000 00000000 		.word	0
 6537 0004 01       		.byte	1
 6538 0005 08       		.byte	8
 6539 0006 01       		.byte	1
 6540 0007 09       		.byte	9
 6541 0008 02000000 		.word	2
 6542 000c 00000000 		.word	0
 6543 0010 10       		.byte	16
 6544 0011 000000   		.space	3
 6545              		.text
ARM GAS  /tmp/cca3rxWD.s 			page 185


 6546              	.Letext0:
 6547              		.file 23 "/home/hallmar/Developer/gcc-arm-none-eabi-10.3-2021.10/arm-none-eabi/include/machine/_de
 6548              		.file 24 "/home/hallmar/Developer/gcc-arm-none-eabi-10.3-2021.10/arm-none-eabi/include/sys/_stdint
 6549              		.file 25 "/home/hallmar/Developer/gcc-arm-none-eabi-10.3-2021.10/arm-none-eabi/include/stdint.h"
 6550              		.file 26 "/home/hallmar/Developer/gcc-arm-none-eabi-10.3-2021.10/lib/gcc/arm-none-eabi/10.3.1/incl
 6551              		.file 27 "/home/hallmar/Developer/gcc-arm-none-eabi-10.3-2021.10/arm-none-eabi/include/c++/10.3.1/
 6552              		.file 28 "/home/hallmar/Developer/gcc-arm-none-eabi-10.3-2021.10/arm-none-eabi/include/c++/10.3.1/
 6553              		.file 29 "/home/hallmar/Developer/gcc-arm-none-eabi-10.3-2021.10/arm-none-eabi/include/c++/10.3.1/
 6554              		.file 30 "/home/hallmar/Developer/gcc-arm-none-eabi-10.3-2021.10/arm-none-eabi/include/c++/10.3.1/
 6555              		.file 31 "/home/hallmar/Developer/gcc-arm-none-eabi-10.3-2021.10/arm-none-eabi/include/c++/10.3.1/
 6556              		.file 32 "/home/hallmar/Developer/gcc-arm-none-eabi-10.3-2021.10/arm-none-eabi/include/c++/10.3.1/
 6557              		.file 33 "/home/hallmar/Developer/gcc-arm-none-eabi-10.3-2021.10/arm-none-eabi/include/c++/10.3.1/
 6558              		.file 34 "/home/hallmar/Developer/gcc-arm-none-eabi-10.3-2021.10/arm-none-eabi/include/c++/10.3.1/
 6559              		.file 35 "/home/hallmar/Developer/gcc-arm-none-eabi-10.3-2021.10/arm-none-eabi/include/c++/10.3.1/
 6560              		.file 36 "/home/hallmar/Developer/gcc-arm-none-eabi-10.3-2021.10/arm-none-eabi/include/c++/10.3.1/
 6561              		.file 37 "/home/hallmar/Developer/gcc-arm-none-eabi-10.3-2021.10/arm-none-eabi/include/c++/10.3.1/
 6562              		.file 38 "/home/hallmar/Developer/gcc-arm-none-eabi-10.3-2021.10/arm-none-eabi/include/c++/10.3.1/
 6563              		.file 39 "/home/hallmar/Developer/gcc-arm-none-eabi-10.3-2021.10/arm-none-eabi/include/c++/10.3.1/
 6564              		.file 40 "/home/hallmar/Developer/gcc-arm-none-eabi-10.3-2021.10/arm-none-eabi/include/c++/10.3.1/
 6565              		.file 41 "/home/hallmar/Developer/gcc-arm-none-eabi-10.3-2021.10/arm-none-eabi/include/c++/10.3.1/
 6566              		.file 42 "/home/hallmar/Developer/gcc-arm-none-eabi-10.3-2021.10/arm-none-eabi/include/c++/10.3.1/
 6567              		.file 43 "/home/hallmar/Developer/gcc-arm-none-eabi-10.3-2021.10/arm-none-eabi/include/c++/10.3.1/
 6568              		.file 44 "/home/hallmar/Developer/gcc-arm-none-eabi-10.3-2021.10/arm-none-eabi/include/sys/_types.
 6569              		.file 45 "/home/hallmar/Developer/gcc-arm-none-eabi-10.3-2021.10/arm-none-eabi/include/sys/reent.h
 6570              		.file 46 "/home/hallmar/Developer/gcc-arm-none-eabi-10.3-2021.10/arm-none-eabi/include/sys/lock.h"
 6571              		.file 47 "/home/hallmar/Developer/gcc-arm-none-eabi-10.3-2021.10/arm-none-eabi/include/math.h"
 6572              		.file 48 "/home/hallmar/Developer/gcc-arm-none-eabi-10.3-2021.10/arm-none-eabi/include/stdlib.h"
 6573              		.file 49 "/home/hallmar/Developer/gcc-arm-none-eabi-10.3-2021.10/arm-none-eabi/include/c++/10.3.1/
 6574              		.file 50 "/home/hallmar/Developer/gcc-arm-none-eabi-10.3-2021.10/lib/gcc/arm-none-eabi/10.3.1/incl
 6575              		.file 51 "/home/hallmar/Developer/gcc-arm-none-eabi-10.3-2021.10/arm-none-eabi/include/wchar.h"
 6576              		.file 52 "/home/hallmar/Developer/gcc-arm-none-eabi-10.3-2021.10/arm-none-eabi/include/locale.h"
 6577              		.file 53 "/home/hallmar/Developer/gcc-arm-none-eabi-10.3-2021.10/arm-none-eabi/include/stdio.h"
 6578              		.file 54 "/home/hallmar/Developer/gcc-arm-none-eabi-10.3-2021.10/arm-none-eabi/include/c++/10.3.1/
 6579              		.file 55 "/home/hallmar/Developer/gcc-arm-none-eabi-10.3-2021.10/arm-none-eabi/include/string.h"
 6580              		.file 56 "libDaisy/src/daisy_core.h"
 6581              		.file 57 "libDaisy/src/per/tim.h"
 6582              		.file 58 "libDaisy/src/per/sai.h"
 6583              		.file 59 "libDaisy/src/hid/MidiEvent.h"
 6584              		.file 60 "libDaisy/src/hid/parameter.h"
 6585              		.file 61 "libDaisy/src/util/wav_format.h"
 6586              		.file 62 "libDaisy/src/dev/max11300.h"
 6587              		.file 63 "libDaisy/src/per/gpio.h"
 6588              		.file 64 "libDaisy/src/dev/sdram.h"
 6589              		.file 65 "variables.h"
 6590              		.file 66 "libDaisy/src/dev/sr_595.h"
 6591              		.file 67 "settings.h"
 6592              		.file 68 "<built-in>"
ARM GAS  /tmp/cca3rxWD.s 			page 186


DEFINED SYMBOLS
                            *ABS*:0000000000000000 fjol.cpp
     /tmp/cca3rxWD.s:19     .text._ZN5daisy6SwitchD2Ev:0000000000000000 $t
     /tmp/cca3rxWD.s:26     .text._ZN5daisy6SwitchD2Ev:0000000000000000 _ZN5daisy6SwitchD2Ev
     /tmp/cca3rxWD.s:26     .text._ZN5daisy6SwitchD2Ev:0000000000000000 _ZN5daisy6SwitchD1Ev
     /tmp/cca3rxWD.s:43     .text._ZN5daisy9DaisySeedD2Ev:0000000000000000 $t
     /tmp/cca3rxWD.s:50     .text._ZN5daisy9DaisySeedD2Ev:0000000000000000 _ZN5daisy9DaisySeedD2Ev
     /tmp/cca3rxWD.s:50     .text._ZN5daisy9DaisySeedD2Ev:0000000000000000 _ZN5daisy9DaisySeedD1Ev
     /tmp/cca3rxWD.s:91     .text.__tcf_0:0000000000000000 $t
     /tmp/cca3rxWD.s:97     .text.__tcf_0:0000000000000000 __tcf_0
     /tmp/cca3rxWD.s:111    .text._ZN7ADStrucD2Ev:0000000000000000 $t
     /tmp/cca3rxWD.s:118    .text._ZN7ADStrucD2Ev:0000000000000000 _ZN7ADStrucD2Ev
     /tmp/cca3rxWD.s:118    .text._ZN7ADStrucD2Ev:0000000000000000 _ZN7ADStrucD1Ev
     /tmp/cca3rxWD.s:140    .text._ZN5daisy11MidiHandlerINS_17MidiUartTransportEED2Ev:0000000000000000 $t
     /tmp/cca3rxWD.s:147    .text._ZN5daisy11MidiHandlerINS_17MidiUartTransportEED2Ev:0000000000000000 _ZN5daisy11MidiHandlerINS_17MidiUartTransportEED2Ev
     /tmp/cca3rxWD.s:147    .text._ZN5daisy11MidiHandlerINS_17MidiUartTransportEED2Ev:0000000000000000 _ZN5daisy11MidiHandlerINS_17MidiUartTransportEED1Ev
     /tmp/cca3rxWD.s:169    .text._ZL13AudioCallbackPKfPfj:0000000000000000 $t
     /tmp/cca3rxWD.s:175    .text._ZL13AudioCallbackPKfPfj:0000000000000000 _ZL13AudioCallbackPKfPfj
     /tmp/cca3rxWD.s:517    .text._ZL13AudioCallbackPKfPfj:0000000000000130 $d
     /tmp/cca3rxWD.s:531    .text.__tcf_6:0000000000000000 $t
     /tmp/cca3rxWD.s:537    .text.__tcf_6:0000000000000000 __tcf_6
     /tmp/cca3rxWD.s:548    .text.__tcf_7:0000000000000000 $t
     /tmp/cca3rxWD.s:554    .text.__tcf_7:0000000000000000 __tcf_7
     /tmp/cca3rxWD.s:565    .text.__tcf_1:0000000000000000 $t
     /tmp/cca3rxWD.s:571    .text.__tcf_1:0000000000000000 __tcf_1
     /tmp/cca3rxWD.s:582    .text.__tcf_2:0000000000000000 $t
     /tmp/cca3rxWD.s:588    .text.__tcf_2:0000000000000000 __tcf_2
     /tmp/cca3rxWD.s:599    .text.__tcf_3:0000000000000000 $t
     /tmp/cca3rxWD.s:605    .text.__tcf_3:0000000000000000 __tcf_3
     /tmp/cca3rxWD.s:616    .text.__tcf_4:0000000000000000 $t
     /tmp/cca3rxWD.s:622    .text.__tcf_4:0000000000000000 __tcf_4
     /tmp/cca3rxWD.s:633    .text.__tcf_5:0000000000000000 $t
     /tmp/cca3rxWD.s:639    .text.__tcf_5:0000000000000000 __tcf_5
     /tmp/cca3rxWD.s:650    .text._Z9calcrightf:0000000000000000 $t
     /tmp/cca3rxWD.s:657    .text._Z9calcrightf:0000000000000000 _Z9calcrightf
     /tmp/cca3rxWD.s:729    .text._Z9calcrightf:0000000000000048 $d
     /tmp/cca3rxWD.s:735    .text._Z8calcleftf:0000000000000000 $t
     /tmp/cca3rxWD.s:742    .text._Z8calcleftf:0000000000000000 _Z8calcleftf
     /tmp/cca3rxWD.s:817    .text._Z8calcleftf:0000000000000050 $d
     /tmp/cca3rxWD.s:825    .text._Z12updatespreadv:0000000000000000 $t
     /tmp/cca3rxWD.s:832    .text._Z12updatespreadv:0000000000000000 _Z12updatespreadv
     /tmp/cca3rxWD.s:1271   .text._Z12updatespreadv:00000000000001c0 $d
     /tmp/cca3rxWD.s:1286   .text._Z16getorsetsettingsb:0000000000000000 $t
     /tmp/cca3rxWD.s:1293   .text._Z16getorsetsettingsb:0000000000000000 _Z16getorsetsettingsb
     /tmp/cca3rxWD.s:1402   .text._Z16getorsetsettingsb:0000000000000054 $d
     /tmp/cca3rxWD.s:1411   .text._Z8glidevalv:0000000000000000 $t
     /tmp/cca3rxWD.s:1418   .text._Z8glidevalv:0000000000000000 _Z8glidevalv
     /tmp/cca3rxWD.s:1556   .text._Z8glidevalv:00000000000000a4 $d
     /tmp/cca3rxWD.s:1564   .text._Z9midipanicv:0000000000000000 $t
     /tmp/cca3rxWD.s:1571   .text._Z9midipanicv:0000000000000000 _Z9midipanicv
     /tmp/cca3rxWD.s:1603   .text._Z9midipanicv:0000000000000014 $d
     /tmp/cca3rxWD.s:1609   .text._Z13update_paramsiff:0000000000000000 $t
     /tmp/cca3rxWD.s:1616   .text._Z13update_paramsiff:0000000000000000 _Z13update_paramsiff
     /tmp/cca3rxWD.s:1768   .text._Z13update_paramsiff:00000000000000a4 $d
     /tmp/cca3rxWD.s:1777   .text._Z16select_algorithmv:0000000000000000 $t
     /tmp/cca3rxWD.s:1784   .text._Z16select_algorithmv:0000000000000000 _Z16select_algorithmv
     /tmp/cca3rxWD.s:1901   .text._Z16select_algorithmv:0000000000000078 $d
ARM GAS  /tmp/cca3rxWD.s 			page 187


     /tmp/cca3rxWD.s:1907   .text._Z9updateadcv:0000000000000000 $t
     /tmp/cca3rxWD.s:1914   .text._Z9updateadcv:0000000000000000 _Z9updateadcv
     /tmp/cca3rxWD.s:2066   .text._Z9updateadcv:000000000000008c $d
     /tmp/cca3rxWD.s:2079   .text._Z14updateSwitchesv:0000000000000000 $t
     /tmp/cca3rxWD.s:2086   .text._Z14updateSwitchesv:0000000000000000 _Z14updateSwitchesv
     /tmp/cca3rxWD.s:2511   .text._Z14updateSwitchesv:0000000000000140 $d
     /tmp/cca3rxWD.s:2527   .text._Z14updatecontrolsv:0000000000000000 $t
     /tmp/cca3rxWD.s:2534   .text._Z14updatecontrolsv:0000000000000000 _Z14updatecontrolsv
     /tmp/cca3rxWD.s:2663   .text._Z14updatecontrolsv:0000000000000060 $d
     /tmp/cca3rxWD.s:2670   .text._Z15initializeaudiov:0000000000000000 $t
     /tmp/cca3rxWD.s:2677   .text._Z15initializeaudiov:0000000000000000 _Z15initializeaudiov
     /tmp/cca3rxWD.s:3141   .text._Z15initializeaudiov:0000000000000170 $d
     /tmp/cca3rxWD.s:3158   .text._Z13initializeadcv:0000000000000000 $t
     /tmp/cca3rxWD.s:3165   .text._Z13initializeadcv:0000000000000000 _Z13initializeadcv
     /tmp/cca3rxWD.s:3288   .text._Z13initializeadcv:00000000000000c8 $d
     /tmp/cca3rxWD.s:3293   .rodata._Z18initializecontrolsv.str1.4:0000000000000000 $d
     /tmp/cca3rxWD.s:3297   .text._Z18initializecontrolsv:0000000000000000 $t
     /tmp/cca3rxWD.s:3304   .text._Z18initializecontrolsv:0000000000000000 _Z18initializecontrolsv
     /tmp/cca3rxWD.s:3742   .text._Z18initializecontrolsv:000000000000029c $d
     /tmp/cca3rxWD.s:3760   .text._Z6setpwmhh:0000000000000000 $t
     /tmp/cca3rxWD.s:3767   .text._Z6setpwmhh:0000000000000000 _Z6setpwmhh
     /tmp/cca3rxWD.s:3812   .text._Z6setpwmhh:0000000000000028 $d
     /tmp/cca3rxWD.s:3817   .text._Z12startPCA9622v:0000000000000000 $t
     /tmp/cca3rxWD.s:3824   .text._Z12startPCA9622v:0000000000000000 _Z12startPCA9622v
     /tmp/cca3rxWD.s:3928   .text._Z12startPCA9622v:0000000000000078 $d
     /tmp/cca3rxWD.s:3933   .text._Z11shiftvoicesv:0000000000000000 $t
     /tmp/cca3rxWD.s:3940   .text._Z11shiftvoicesv:0000000000000000 _Z11shiftvoicesv
     /tmp/cca3rxWD.s:3976   .text._Z11shiftvoicesv:0000000000000018 $d
     /tmp/cca3rxWD.s:3981   .text._Z7noteOFFh:0000000000000000 $t
     /tmp/cca3rxWD.s:3988   .text._Z7noteOFFh:0000000000000000 _Z7noteOFFh
     /tmp/cca3rxWD.s:4069   .text._Z7noteOFFh:0000000000000048 $d
     /tmp/cca3rxWD.s:4077   .text._Z6noteONh:0000000000000000 $t
     /tmp/cca3rxWD.s:4084   .text._Z6noteONh:0000000000000000 _Z6noteONh
     /tmp/cca3rxWD.s:4331   .text._Z6noteONh:00000000000000bc $d
     /tmp/cca3rxWD.s:4348   .text._ZN5daisy11MidiHandlerINS_17MidiUartTransportEE5ParseEh:0000000000000000 $t
     /tmp/cca3rxWD.s:4355   .text._ZN5daisy11MidiHandlerINS_17MidiUartTransportEE5ParseEh:0000000000000000 _ZN5daisy11MidiHandlerINS_17MidiUartTransportEE5ParseEh
     /tmp/cca3rxWD.s:4434   .text._ZN5daisy11MidiHandlerINS_17MidiUartTransportEE5ParseEh:0000000000000050 $d
     /tmp/cca3rxWD.s:4438   .text._ZN5daisy11MidiHandlerINS_17MidiUartTransportEE5ParseEh:0000000000000054 $t
     /tmp/cca3rxWD.s:5015   .text.startup.main:0000000000000000 $t
     /tmp/cca3rxWD.s:5022   .text.startup.main:0000000000000000 main
     /tmp/cca3rxWD.s:5723   .text.startup.main:0000000000000204 $d
     /tmp/cca3rxWD.s:6482   .bss.midi:0000000000000000 midi
     /tmp/cca3rxWD.s:5742   .text.startup._GLOBAL__sub_I_i2c:0000000000000000 $t
     /tmp/cca3rxWD.s:5748   .text.startup._GLOBAL__sub_I_i2c:0000000000000000 _GLOBAL__sub_I_i2c
     /tmp/cca3rxWD.s:6329   .text.startup._GLOBAL__sub_I_i2c:0000000000000140 $d
     /tmp/cca3rxWD.s:6362   .init_array:0000000000000000 $d
     /tmp/cca3rxWD.s:6441   .bss.debug_midi:0000000000000000 debug_midi
     /tmp/cca3rxWD.s:6522   .data.debug_pots:0000000000000000 debug_pots
     /tmp/cca3rxWD.s:6448   .bss.enc:0000000000000000 enc
     /tmp/cca3rxWD.s:6436   .bss.cv:0000000000000000 cv
     /tmp/cca3rxWD.s:6429   .bss.controls:0000000000000000 controls
     /tmp/cca3rxWD.s:6510   .bss.voct:0000000000000000 voct
     /tmp/cca3rxWD.s:6469   .bss.gate:0000000000000000 gate
     /tmp/cca3rxWD.s:6489   .bss.midi_sw:0000000000000000 midi_sw
     /tmp/cca3rxWD.s:6422   .bss.algo_sw:0000000000000000 algo_sw
     /tmp/cca3rxWD.s:6496   .bss.shift_sw:0000000000000000 shift_sw
     /tmp/cca3rxWD.s:6503   .bss.stfilter:0000000000000000 stfilter
ARM GAS  /tmp/cca3rxWD.s 			page 188


     /tmp/cca3rxWD.s:6462   .bss.filtenvelope:0000000000000000 filtenvelope
     /tmp/cca3rxWD.s:6455   .bss.envelope:0000000000000000 envelope
     /tmp/cca3rxWD.s:6517   .bss.voice:0000000000000000 voice
     /tmp/cca3rxWD.s:6415   .bss.adcConfig:0000000000000000 adcConfig
     /tmp/cca3rxWD.s:6528   .qspiflash_bss:0000000000000000 qspi_buffer
     /tmp/cca3rxWD.s:6476   .bss.i2c:0000000000000000 i2c
     /tmp/cca3rxWD.s:6383   .rodata:0000000000000000 $d
     /tmp/cca3rxWD.s:6404   .bss._ZL2hw:0000000000000000 $d
     /tmp/cca3rxWD.s:6408   .bss._ZL2hw:0000000000000000 _ZL2hw
     /tmp/cca3rxWD.s:6411   .bss.adcConfig:0000000000000000 $d
     /tmp/cca3rxWD.s:6418   .bss.algo_sw:0000000000000000 $d
     /tmp/cca3rxWD.s:6425   .bss.controls:0000000000000000 $d
     /tmp/cca3rxWD.s:6432   .bss.cv:0000000000000000 $d
     /tmp/cca3rxWD.s:6442   .bss.debug_midi:0000000000000000 $d
     /tmp/cca3rxWD.s:6444   .bss.enc:0000000000000000 $d
     /tmp/cca3rxWD.s:6451   .bss.envelope:0000000000000000 $d
     /tmp/cca3rxWD.s:6458   .bss.filtenvelope:0000000000000000 $d
     /tmp/cca3rxWD.s:6465   .bss.gate:0000000000000000 $d
     /tmp/cca3rxWD.s:6472   .bss.i2c:0000000000000000 $d
     /tmp/cca3rxWD.s:6479   .bss.midi:0000000000000000 $d
     /tmp/cca3rxWD.s:6485   .bss.midi_sw:0000000000000000 $d
     /tmp/cca3rxWD.s:6492   .bss.shift_sw:0000000000000000 $d
     /tmp/cca3rxWD.s:6499   .bss.stfilter:0000000000000000 $d
     /tmp/cca3rxWD.s:6506   .bss.voct:0000000000000000 $d
     /tmp/cca3rxWD.s:6513   .bss.voice:0000000000000000 $d
     /tmp/cca3rxWD.s:6525   .qspiflash_bss:0000000000000000 $d
     /tmp/cca3rxWD.s:6531   .rodata._ZL10i2c_config:0000000000000000 $d
     /tmp/cca3rxWD.s:6535   .rodata._ZL10i2c_config:0000000000000000 _ZL10i2c_config
                           .group:0000000000000000 _ZN5daisy6SwitchD5Ev
                           .group:0000000000000000 _ZN5daisy9DaisySeedD5Ev
                           .group:0000000000000000 _ZN7ADStrucD5Ev
                           .group:0000000000000000 _ZN5daisy11MidiHandlerINS_17MidiUartTransportEED5Ev

UNDEFINED SYMBOLS
_ZN7daisysp10Oscillator12CalcPhaseIncEf
_ZN7daisysp4Adsr7ProcessEb
_ZN7daisysp10Oscillator7ProcessEv
ratioindex
knob_value
voicetrig
voicefreq
sinf
sqrt
cosf
param
algo_select
midichannel
glidetime
glide
voicefreqtarget
gate_out
_Z10led_updateh
params_changed
param_sum
cv_mod
_ZN5daisy9Parameter7ProcessEv
_ZN5daisy13AnalogControl7ProcessEv
ARM GAS  /tmp/cca3rxWD.s 			page 189


_ZN7daisysp4Adsr13SetAttackTimeEff
_ZN7daisysp4Adsr12SetDecayTimeEf
_ZN5daisy6Switch8DebounceEv
_ZN5daisy7Encoder8DebounceEv
dsy_gpio_read
_ZN5daisy6System6GetNowEv
_Z13led_menu_stephh
led_takeover
ledlastmillis
_Z12encoder_reada
_ZN7daisysp4Adsr4InitEfi
_ZN7daisysp5AdEnv4InitEf
_ZN7daisysp3Svf4InitEf
_ZN7daisysp3Svf8SetDriveEf
pm1amp
samplerate
_ZN5daisy9DaisySeed6GetPinEh
_ZN5daisy16AdcChannelConfig10InitSingleE12dsy_gpio_pin
_ZN5daisy16AdcChannelConfig7InitMuxE12dsy_gpio_pinjS1_S1_S1_
_ZNK5daisy9DaisySeed17AudioCallbackRateEv
_ZN5daisy6Switch4InitE12dsy_gpio_pinf
_ZN5daisy7Encoder4InitE12dsy_gpio_pinS1_S1_f
_ZNK5daisy9AdcHandle9GetMuxPtrEhh
_ZN5daisy13AnalogControl4InitEPtfbbf
_ZNK5daisy9AdcHandle6GetPtrEh
_ZN5daisy9Parameter4InitENS_13AnalogControlEffNS0_5CurveE
_ZN5daisy9I2CHandle18WriteDataAtAddressEtttPhtm
_ZN5daisy6System5DelayEm
voicehist
voicenote
filtenv_trig
powf
_ZN7daisysp4Adsr9RetriggerEb
octave
octaveindex
pbend
memcpy
_ZN5daisy9I2CHandle4InitERKNS0_6ConfigE
_ZN5daisy9AdcHandle4InitEPNS_16AdcChannelConfigEjNS0_12OverSamplingE
_ZN5daisy9DaisySeed4InitEb
_ZN5daisy9DaisySeed17SetAudioBlockSizeEj
_ZN5daisy9DaisySeed15AudioSampleRateEv
_ZN5daisy9DaisySeed10StartAudioEPFvPKfPfjE
_ZN5daisy11UartHandler4InitERKNS0_6ConfigE
_ZN5daisy11UartHandler7StartRxEv
_ZN5daisy11UartHandler5PopRxEv
_ZN5daisy11UartHandler8ReadableEv
_Z17HandleMidiMessageN5daisy9MidiEventE
_Z9calibratev
__aeabi_atexit
__dso_handle
