ARM GAS  /tmp/ccxnfbgf.s 			page 1


   1              		.cpu cortex-m7
   2              		.arch armv7e-m
   3              		.fpu fpv5-d16
   4              		.eabi_attribute 28, 1
   5              		.eabi_attribute 20, 1
   6              		.eabi_attribute 21, 1
   7              		.eabi_attribute 23, 3
   8              		.eabi_attribute 24, 1
   9              		.eabi_attribute 25, 1
  10              		.eabi_attribute 26, 1
  11              		.eabi_attribute 30, 2
  12              		.eabi_attribute 34, 1
  13              		.eabi_attribute 18, 4
  14              		.file	"fjol.cpp"
  15              		.text
  16              	.Ltext0:
  17              		.cfi_sections	.debug_frame
  18              		.section	.text._ZN5daisy6SwitchD2Ev,"axG",%progbits,_ZN5daisy6SwitchD5Ev,comdat
  19              		.align	1
  20              		.p2align 2,,3
  21              		.weak	_ZN5daisy6SwitchD2Ev
  22              		.syntax unified
  23              		.thumb
  24              		.thumb_func
  26              	_ZN5daisy6SwitchD2Ev:
  27              	.LVL0:
  28              	.LFB3867:
  29              		.file 1 "libDaisy/src/hid/switch.h"
   1:libDaisy/src/hid/switch.h **** #pragma once
   2:libDaisy/src/hid/switch.h **** #ifndef DSY_SWITCH_H
   3:libDaisy/src/hid/switch.h **** #define DSY_SWITCH_H
   4:libDaisy/src/hid/switch.h **** #include "daisy_core.h"
   5:libDaisy/src/hid/switch.h **** #include "per/gpio.h"
   6:libDaisy/src/hid/switch.h **** #include "sys/system.h"
   7:libDaisy/src/hid/switch.h **** 
   8:libDaisy/src/hid/switch.h **** namespace daisy
   9:libDaisy/src/hid/switch.h **** {
  10:libDaisy/src/hid/switch.h **** /** 
  11:libDaisy/src/hid/switch.h ****     Generic Class for handling momentary/latching switches \n 
  12:libDaisy/src/hid/switch.h ****     Inspired/influenced by Mutable Instruments (pichenettes) Switch classes
  13:libDaisy/src/hid/switch.h ****     @author Stephen Hensley
  14:libDaisy/src/hid/switch.h ****     @date December 2019
  15:libDaisy/src/hid/switch.h ****     @ingroup controls
  16:libDaisy/src/hid/switch.h **** */
  17:libDaisy/src/hid/switch.h **** class Switch
  18:libDaisy/src/hid/switch.h **** {
  19:libDaisy/src/hid/switch.h ****   public:
  20:libDaisy/src/hid/switch.h ****     /** Specifies the expected behavior of the switch */
  21:libDaisy/src/hid/switch.h ****     enum Type
  22:libDaisy/src/hid/switch.h ****     {
  23:libDaisy/src/hid/switch.h ****         TYPE_TOGGLE,    /**< & */
  24:libDaisy/src/hid/switch.h ****         TYPE_MOMENTARY, /**< & */
  25:libDaisy/src/hid/switch.h ****     };
  26:libDaisy/src/hid/switch.h ****     /** Specifies whether the pressed is HIGH or LOW. */
  27:libDaisy/src/hid/switch.h ****     enum Polarity
  28:libDaisy/src/hid/switch.h ****     {
  29:libDaisy/src/hid/switch.h ****         POLARITY_NORMAL,   /**< & */
ARM GAS  /tmp/ccxnfbgf.s 			page 2


  30:libDaisy/src/hid/switch.h ****         POLARITY_INVERTED, /**< & */
  31:libDaisy/src/hid/switch.h ****     };
  32:libDaisy/src/hid/switch.h **** 
  33:libDaisy/src/hid/switch.h ****     /** Specifies whether to use built-in Pull Up/Down resistors to hold button at a given state wh
  34:libDaisy/src/hid/switch.h ****     enum Pull
  35:libDaisy/src/hid/switch.h ****     {
  36:libDaisy/src/hid/switch.h ****         PULL_UP,   /**< & */
  37:libDaisy/src/hid/switch.h ****         PULL_DOWN, /**< & */
  38:libDaisy/src/hid/switch.h ****         PULL_NONE, /**< & */
  39:libDaisy/src/hid/switch.h ****     };
  40:libDaisy/src/hid/switch.h **** 
  41:libDaisy/src/hid/switch.h ****     Switch() {}
  42:libDaisy/src/hid/switch.h ****     ~Switch() {}
  30              		.loc 1 42 5 view -0
  31              		.cfi_startproc
  32              		@ args = 0, pretend = 0, frame = 0
  33              		@ frame_needed = 0, uses_anonymous_args = 0
  34              		@ link register save eliminated.
  35              		.loc 1 42 16 is_stmt 0 view .LVU1
  36 0000 7047     		bx	lr
  37              		.cfi_endproc
  38              	.LFE3867:
  40              		.weak	_ZN5daisy6SwitchD1Ev
  41              		.thumb_set _ZN5daisy6SwitchD1Ev,_ZN5daisy6SwitchD2Ev
  42 0002 00BF     		.section	.text._ZN5daisy9DaisySeedD2Ev,"axG",%progbits,_ZN5daisy9DaisySeedD5Ev,comdat
  43              		.align	1
  44              		.p2align 2,,3
  45              		.weak	_ZN5daisy9DaisySeedD2Ev
  46              		.syntax unified
  47              		.thumb
  48              		.thumb_func
  50              	_ZN5daisy9DaisySeedD2Ev:
  51              	.LVL1:
  52              	.LFB4784:
  53              		.file 2 "libDaisy/src/daisy_seed.h"
   1:libDaisy/src/daisy_seed.h **** #pragma once
   2:libDaisy/src/daisy_seed.h **** #ifndef DSY_SEED_H
   3:libDaisy/src/daisy_seed.h **** #define DSY_SEED_H
   4:libDaisy/src/daisy_seed.h **** 
   5:libDaisy/src/daisy_seed.h **** #include "daisy.h"
   6:libDaisy/src/daisy_seed.h **** 
   7:libDaisy/src/daisy_seed.h **** //Uncomment this out if you're still using the rev2 hardware
   8:libDaisy/src/daisy_seed.h **** //#define SEED_REV2
   9:libDaisy/src/daisy_seed.h **** 
  10:libDaisy/src/daisy_seed.h **** namespace daisy
  11:libDaisy/src/daisy_seed.h **** {
  12:libDaisy/src/daisy_seed.h **** /**
  13:libDaisy/src/daisy_seed.h ****    @brief This is the higher-level interface for the Daisy board. \n 
  14:libDaisy/src/daisy_seed.h ****     All basic peripheral configuration/initialization is setup here. \n
  15:libDaisy/src/daisy_seed.h **** 
  16:libDaisy/src/daisy_seed.h ****    @ingroup boards
  17:libDaisy/src/daisy_seed.h **** */
  18:libDaisy/src/daisy_seed.h **** class DaisySeed
  19:libDaisy/src/daisy_seed.h **** {
  20:libDaisy/src/daisy_seed.h ****   public:
  21:libDaisy/src/daisy_seed.h ****     DaisySeed() {}
  22:libDaisy/src/daisy_seed.h ****     ~DaisySeed() {}
ARM GAS  /tmp/ccxnfbgf.s 			page 3


  54              		.loc 2 22 5 is_stmt 1 view -0
  55              		.cfi_startproc
  56              		@ args = 0, pretend = 0, frame = 0
  57              		@ frame_needed = 0, uses_anonymous_args = 0
  58              		@ link register save eliminated.
  59              	.LBB549:
  60              	.LBI549:
  61              		.file 3 "libDaisy/src/sys/system.h"
   1:libDaisy/src/sys/system.h **** #ifndef DSY_SYSTEM_H
   2:libDaisy/src/sys/system.h **** #define DSY_SYSTEM_H
   3:libDaisy/src/sys/system.h **** 
   4:libDaisy/src/sys/system.h **** #ifndef UNIT_TEST // for unit tests, a dummy implementation is provided below
   5:libDaisy/src/sys/system.h **** 
   6:libDaisy/src/sys/system.h **** #include <cstdint>
   7:libDaisy/src/sys/system.h **** #include "per/tim.h"
   8:libDaisy/src/sys/system.h **** 
   9:libDaisy/src/sys/system.h **** namespace daisy
  10:libDaisy/src/sys/system.h **** {
  11:libDaisy/src/sys/system.h **** /** A handle for interacting with the Core System. 
  12:libDaisy/src/sys/system.h ****  ** This includes the Clock tree, MPU, global DMA initialization,
  13:libDaisy/src/sys/system.h ****  ** cache handling, and any other necessary global initiailzation
  14:libDaisy/src/sys/system.h ****  **
  15:libDaisy/src/sys/system.h ****  ** @author shensley
  16:libDaisy/src/sys/system.h ****  ** @ingroup system
  17:libDaisy/src/sys/system.h ****  */
  18:libDaisy/src/sys/system.h **** class System
  19:libDaisy/src/sys/system.h **** {
  20:libDaisy/src/sys/system.h ****   public:
  21:libDaisy/src/sys/system.h ****     /** Contains settings for initializing the System */
  22:libDaisy/src/sys/system.h ****     struct Config
  23:libDaisy/src/sys/system.h ****     {
  24:libDaisy/src/sys/system.h ****         /** Specifies the system clock frequency that feeds APB/AHB clocks, etc. */
  25:libDaisy/src/sys/system.h ****         enum class SysClkFreq
  26:libDaisy/src/sys/system.h ****         {
  27:libDaisy/src/sys/system.h ****             FREQ_400MHZ,
  28:libDaisy/src/sys/system.h ****             FREQ_480MHZ,
  29:libDaisy/src/sys/system.h ****         };
  30:libDaisy/src/sys/system.h **** 
  31:libDaisy/src/sys/system.h ****         /** Method to call on the struct to set to defaults
  32:libDaisy/src/sys/system.h ****          ** CPU Freq set to 400MHz
  33:libDaisy/src/sys/system.h ****          ** Cache Enabled 
  34:libDaisy/src/sys/system.h ****          ** */
  35:libDaisy/src/sys/system.h ****         void Defaults()
  36:libDaisy/src/sys/system.h ****         {
  37:libDaisy/src/sys/system.h ****             cpu_freq    = SysClkFreq::FREQ_400MHZ;
  38:libDaisy/src/sys/system.h ****             use_dcache  = true;
  39:libDaisy/src/sys/system.h ****             use_icache  = true;
  40:libDaisy/src/sys/system.h ****             skip_clocks = false;
  41:libDaisy/src/sys/system.h ****         }
  42:libDaisy/src/sys/system.h **** 
  43:libDaisy/src/sys/system.h ****         /** Method to call on the struct to set to boost mode:
  44:libDaisy/src/sys/system.h ****          ** CPU Freq set to 480MHz
  45:libDaisy/src/sys/system.h ****          ** Cache Enabled 
  46:libDaisy/src/sys/system.h ****          ** */
  47:libDaisy/src/sys/system.h ****         void Boost()
  48:libDaisy/src/sys/system.h ****         {
  49:libDaisy/src/sys/system.h ****             cpu_freq    = SysClkFreq::FREQ_480MHZ;
ARM GAS  /tmp/ccxnfbgf.s 			page 4


  50:libDaisy/src/sys/system.h ****             use_dcache  = true;
  51:libDaisy/src/sys/system.h ****             use_icache  = true;
  52:libDaisy/src/sys/system.h ****             skip_clocks = false;
  53:libDaisy/src/sys/system.h ****         }
  54:libDaisy/src/sys/system.h **** 
  55:libDaisy/src/sys/system.h ****         SysClkFreq cpu_freq;
  56:libDaisy/src/sys/system.h ****         bool       use_dcache;
  57:libDaisy/src/sys/system.h ****         bool       use_icache;
  58:libDaisy/src/sys/system.h ****         bool       skip_clocks;
  59:libDaisy/src/sys/system.h ****     };
  60:libDaisy/src/sys/system.h **** 
  61:libDaisy/src/sys/system.h ****     /** Describes the different regions of memory available to the Daisy
  62:libDaisy/src/sys/system.h ****      * 
  63:libDaisy/src/sys/system.h ****      */
  64:libDaisy/src/sys/system.h ****     enum MemoryRegion
  65:libDaisy/src/sys/system.h ****     {
  66:libDaisy/src/sys/system.h ****         INTERNAL_FLASH = 0,
  67:libDaisy/src/sys/system.h ****         ITCMRAM,
  68:libDaisy/src/sys/system.h ****         DTCMRAM,
  69:libDaisy/src/sys/system.h ****         SRAM_D1,
  70:libDaisy/src/sys/system.h ****         SRAM_D2,
  71:libDaisy/src/sys/system.h ****         SRAM_D3,
  72:libDaisy/src/sys/system.h ****         SDRAM,
  73:libDaisy/src/sys/system.h ****         QSPI,
  74:libDaisy/src/sys/system.h ****         INVALID_ADDRESS,
  75:libDaisy/src/sys/system.h ****     };
  76:libDaisy/src/sys/system.h **** 
  77:libDaisy/src/sys/system.h ****     System() {}
  78:libDaisy/src/sys/system.h ****     ~System() {}
  62              		.loc 3 78 5 view .LVU3
  63              		.loc 3 78 5 is_stmt 0 view .LVU4
  64              	.LBE549:
  65              	.LBB550:
  66              	.LBI550:
  67              		.file 4 "libDaisy/src/hid/usb.h"
   1:libDaisy/src/hid/usb.h **** #pragma once
   2:libDaisy/src/hid/usb.h **** #ifndef DSY_HID_USB_H
   3:libDaisy/src/hid/usb.h **** #define DSY_HID_USB_H
   4:libDaisy/src/hid/usb.h **** #include <stdint.h>
   5:libDaisy/src/hid/usb.h **** #include <stdlib.h>
   6:libDaisy/src/hid/usb.h **** 
   7:libDaisy/src/hid/usb.h **** namespace daisy
   8:libDaisy/src/hid/usb.h **** /** @addtogroup human_interface
   9:libDaisy/src/hid/usb.h ****     @{
  10:libDaisy/src/hid/usb.h **** */
  11:libDaisy/src/hid/usb.h **** 
  12:libDaisy/src/hid/usb.h **** {
  13:libDaisy/src/hid/usb.h **** /** 
  14:libDaisy/src/hid/usb.h ****     @brief Interface for initializing and using the USB Peripherals on the daisy
  15:libDaisy/src/hid/usb.h ****     @author Stephen Hensley
  16:libDaisy/src/hid/usb.h ****     @date December 2019
  17:libDaisy/src/hid/usb.h **** */
  18:libDaisy/src/hid/usb.h **** class UsbHandle
  19:libDaisy/src/hid/usb.h **** {
  20:libDaisy/src/hid/usb.h ****   public:
  21:libDaisy/src/hid/usb.h ****     /** Return values for USBHandle Functions */
  22:libDaisy/src/hid/usb.h ****     enum class Result
ARM GAS  /tmp/ccxnfbgf.s 			page 5


  23:libDaisy/src/hid/usb.h ****     {
  24:libDaisy/src/hid/usb.h ****         OK,
  25:libDaisy/src/hid/usb.h ****         ERR,
  26:libDaisy/src/hid/usb.h ****     };
  27:libDaisy/src/hid/usb.h **** 
  28:libDaisy/src/hid/usb.h ****     /** Specified which of the two USB Peripherals to initialize. */
  29:libDaisy/src/hid/usb.h ****     enum UsbPeriph
  30:libDaisy/src/hid/usb.h ****     {
  31:libDaisy/src/hid/usb.h ****         FS_INTERNAL, /**< Internal pin */
  32:libDaisy/src/hid/usb.h ****         FS_EXTERNAL, /**< FS External D+ pin is Pin 38 (GPIO32). FS External D- pin is Pin 37 (GPIO
  33:libDaisy/src/hid/usb.h ****         FS_BOTH,     /**< Both */
  34:libDaisy/src/hid/usb.h ****     };
  35:libDaisy/src/hid/usb.h **** 
  36:libDaisy/src/hid/usb.h **** 
  37:libDaisy/src/hid/usb.h ****     /** Function called upon reception of a buffer */
  38:libDaisy/src/hid/usb.h ****     typedef void (*ReceiveCallback)(uint8_t* buff, uint32_t* len);
  39:libDaisy/src/hid/usb.h **** 
  40:libDaisy/src/hid/usb.h ****     UsbHandle() {}
  41:libDaisy/src/hid/usb.h **** 
  42:libDaisy/src/hid/usb.h ****     ~UsbHandle() {}
  68              		.loc 4 42 5 is_stmt 1 view .LVU5
  69              		.loc 4 42 5 is_stmt 0 view .LVU6
  70              	.LBE550:
  71              	.LBB551:
  72              	.LBI551:
  73              		.file 5 "libDaisy/src/per/adc.h"
   1:libDaisy/src/per/adc.h **** #pragma once
   2:libDaisy/src/per/adc.h **** #ifndef DSY_ADC_H
   3:libDaisy/src/per/adc.h **** #define DSY_ADC_H /**< Macro */
   4:libDaisy/src/per/adc.h **** #include <stdint.h>
   5:libDaisy/src/per/adc.h **** #include <stdlib.h>
   6:libDaisy/src/per/adc.h **** #include "daisy_core.h"
   7:libDaisy/src/per/adc.h **** #include "per/gpio.h"
   8:libDaisy/src/per/adc.h **** 
   9:libDaisy/src/per/adc.h **** #define DSY_ADC_MAX_CHANNELS 16 /**< Maximum number of ADC channels */
  10:libDaisy/src/per/adc.h **** 
  11:libDaisy/src/per/adc.h **** namespace daisy
  12:libDaisy/src/per/adc.h **** {
  13:libDaisy/src/per/adc.h **** /** @addtogroup per_analog
  14:libDaisy/src/per/adc.h ****     @{
  15:libDaisy/src/per/adc.h **** */
  16:libDaisy/src/per/adc.h **** 
  17:libDaisy/src/per/adc.h **** /* While there may not be many configuration options here,
  18:libDaisy/src/per/adc.h **** using a struct like this allows us to add more configuration
  19:libDaisy/src/per/adc.h **** later without breaking existing functionality.
  20:libDaisy/src/per/adc.h **** */
  21:libDaisy/src/per/adc.h **** 
  22:libDaisy/src/per/adc.h **** /** @brief   Configuration Structure for an ADC Channel 
  23:libDaisy/src/per/adc.h ****  *  @details This can be used to configure a a single input, 
  24:libDaisy/src/per/adc.h ****  *           or a multiplexed input, allowing up to 8 inputs on 
  25:libDaisy/src/per/adc.h ****  *           one channel.
  26:libDaisy/src/per/adc.h ****  *  @note    Sharing data lines to multiple muxes _is_ possible, but
  27:libDaisy/src/per/adc.h ****  *           each channel sharing data lines must be set to the maximum
  28:libDaisy/src/per/adc.h ****  *           number of channels, even if some multiplexers have fewer
  29:libDaisy/src/per/adc.h ****  *           inputs connected.
  30:libDaisy/src/per/adc.h **** */
  31:libDaisy/src/per/adc.h **** struct AdcChannelConfig
ARM GAS  /tmp/ccxnfbgf.s 			page 6


  32:libDaisy/src/per/adc.h **** {
  33:libDaisy/src/per/adc.h ****     /** Which pin to use for multiplexing */
  34:libDaisy/src/per/adc.h ****     enum MuxPin
  35:libDaisy/src/per/adc.h ****     {
  36:libDaisy/src/per/adc.h ****         MUX_SEL_0,    /**< & */
  37:libDaisy/src/per/adc.h ****         MUX_SEL_1,    /**< & */
  38:libDaisy/src/per/adc.h ****         MUX_SEL_2,    /**< & */
  39:libDaisy/src/per/adc.h ****         MUX_SEL_LAST, /**< & */
  40:libDaisy/src/per/adc.h ****     };
  41:libDaisy/src/per/adc.h **** 
  42:libDaisy/src/per/adc.h ****     /** Initializes a single ADC pin as an ADC. 
  43:libDaisy/src/per/adc.h ****     \param pin Pin to init.
  44:libDaisy/src/per/adc.h ****      */
  45:libDaisy/src/per/adc.h ****     void InitSingle(dsy_gpio_pin pin);
  46:libDaisy/src/per/adc.h **** 
  47:libDaisy/src/per/adc.h ****     /** 
  48:libDaisy/src/per/adc.h ****     Initializes a single ADC pin as a Multiplexed ADC.
  49:libDaisy/src/per/adc.h ****     Requires a CD405X Multiplexer connected to the pin.
  50:libDaisy/src/per/adc.h ****     You only need to supply the mux pins that are required,
  51:libDaisy/src/per/adc.h ****     e.g. a 4052 mux would only require mux_0 and mux_1.
  52:libDaisy/src/per/adc.h ****     Internal Callbacks handle the pin addressing.
  53:libDaisy/src/per/adc.h ****     \param mux_channels must be 1-8
  54:libDaisy/src/per/adc.h ****     \param mux_0 First mux pin
  55:libDaisy/src/per/adc.h ****     \param mux_1 Second mux pin
  56:libDaisy/src/per/adc.h ****     \param mux_2 Third mux pin
  57:libDaisy/src/per/adc.h ****     \param adc_pin &
  58:libDaisy/src/per/adc.h ****     */
  59:libDaisy/src/per/adc.h ****     void InitMux(dsy_gpio_pin adc_pin,
  60:libDaisy/src/per/adc.h ****                  size_t       mux_channels,
  61:libDaisy/src/per/adc.h ****                  dsy_gpio_pin mux_0,
  62:libDaisy/src/per/adc.h ****                  dsy_gpio_pin mux_1 = {DSY_GPIOX, 0},
  63:libDaisy/src/per/adc.h ****                  dsy_gpio_pin mux_2 = {DSY_GPIOX, 0});
  64:libDaisy/src/per/adc.h **** 
  65:libDaisy/src/per/adc.h ****     dsy_gpio pin_;                   /**< & */
  66:libDaisy/src/per/adc.h ****     dsy_gpio mux_pin_[MUX_SEL_LAST]; /**< & */
  67:libDaisy/src/per/adc.h ****     uint8_t  mux_channels_;          /**< & */
  68:libDaisy/src/per/adc.h **** };
  69:libDaisy/src/per/adc.h **** 
  70:libDaisy/src/per/adc.h **** /**
  71:libDaisy/src/per/adc.h ****    @brief Handler for analog to digital conversion
  72:libDaisy/src/per/adc.h **** */
  73:libDaisy/src/per/adc.h **** class AdcHandle
  74:libDaisy/src/per/adc.h **** {
  75:libDaisy/src/per/adc.h ****   public:
  76:libDaisy/src/per/adc.h ****     /** Supported oversampling amounts */
  77:libDaisy/src/per/adc.h ****     enum OverSampling
  78:libDaisy/src/per/adc.h ****     {
  79:libDaisy/src/per/adc.h ****         OVS_NONE, /**< & */
  80:libDaisy/src/per/adc.h ****         OVS_4,    /**< & */
  81:libDaisy/src/per/adc.h ****         OVS_8,    /**< & */
  82:libDaisy/src/per/adc.h ****         OVS_16,   /**< & */
  83:libDaisy/src/per/adc.h ****         OVS_32,   /**< & */
  84:libDaisy/src/per/adc.h ****         OVS_64,   /**< & */
  85:libDaisy/src/per/adc.h ****         OVS_128,  /**< & */
  86:libDaisy/src/per/adc.h ****         OVS_256,  /**< & */
  87:libDaisy/src/per/adc.h ****         OVS_512,  /**< & */
  88:libDaisy/src/per/adc.h ****         OVS_1024, /**< & */
ARM GAS  /tmp/ccxnfbgf.s 			page 7


  89:libDaisy/src/per/adc.h ****         OVS_LAST, /**< & */
  90:libDaisy/src/per/adc.h ****     };
  91:libDaisy/src/per/adc.h **** 
  92:libDaisy/src/per/adc.h ****     AdcHandle() {}
  93:libDaisy/src/per/adc.h ****     ~AdcHandle() {}
  74              		.loc 5 93 5 is_stmt 1 view .LVU7
  75              		.loc 5 93 5 is_stmt 0 view .LVU8
  76              	.LBE551:
  77              	.LBB552:
  78              	.LBI552:
  79              		.file 6 "libDaisy/src/hid/audio.h"
   1:libDaisy/src/hid/audio.h **** #ifndef DSY_AUDIO_H
   2:libDaisy/src/hid/audio.h **** #define DSY_AUDIO_H /**< & */
   3:libDaisy/src/hid/audio.h **** 
   4:libDaisy/src/hid/audio.h **** #include "per/sai.h"
   5:libDaisy/src/hid/audio.h **** 
   6:libDaisy/src/hid/audio.h **** namespace daisy
   7:libDaisy/src/hid/audio.h **** {
   8:libDaisy/src/hid/audio.h **** /** @brief Audio Engine Handle
   9:libDaisy/src/hid/audio.h ****  *  @ingroup audio 
  10:libDaisy/src/hid/audio.h ****  *  @details This class allows for higher level access to an audio engine.
  11:libDaisy/src/hid/audio.h ****  *           If you're using a SOM like the DaisySeed or DaisyPatchSM (or any 
  12:libDaisy/src/hid/audio.h ****  *            board that includes one of those objects) then the intialization
  13:libDaisy/src/hid/audio.h ****  *            is already taken  care of.
  14:libDaisy/src/hid/audio.h ****  *           If you're setting up your own custom hardware, or need to make changes
  15:libDaisy/src/hid/audio.h ****  *           you will have to take the following steps:
  16:libDaisy/src/hid/audio.h ****  *             1. Create and Initialize an SaiHandle or two depending on your requirements
  17:libDaisy/src/hid/audio.h ****  *             2. Initialize the Audio Handle with the desired settings and the Initialized SaiHand
  18:libDaisy/src/hid/audio.h ****  *             3. If the connected codec requires special configuration or initialization, do so
  19:libDaisy/src/hid/audio.h ****  *             4. Write a callback method using either the AudioCallback or the InterleavingAudioCa
  20:libDaisy/src/hid/audio.h ****  *             5. Start the Audio using one of the StartAudio function
  21:libDaisy/src/hid/audio.h ****  */
  22:libDaisy/src/hid/audio.h **** class AudioHandle
  23:libDaisy/src/hid/audio.h **** {
  24:libDaisy/src/hid/audio.h ****   public:
  25:libDaisy/src/hid/audio.h ****     /** Manually configurable details about the Audio Engine */
  26:libDaisy/src/hid/audio.h ****     /** TODO: Figure out how to get samplerate in here. */
  27:libDaisy/src/hid/audio.h ****     struct Config
  28:libDaisy/src/hid/audio.h ****     {
  29:libDaisy/src/hid/audio.h ****         /** number of samples to process per callback */
  30:libDaisy/src/hid/audio.h ****         size_t blocksize;
  31:libDaisy/src/hid/audio.h **** 
  32:libDaisy/src/hid/audio.h ****         /**< Sample rate of audio */
  33:libDaisy/src/hid/audio.h ****         SaiHandle::Config::SampleRate samplerate;
  34:libDaisy/src/hid/audio.h **** 
  35:libDaisy/src/hid/audio.h ****         /** factor for adjustment before and after callback for hardware that may have extra headro
  36:libDaisy/src/hid/audio.h ****         float postgain;
  37:libDaisy/src/hid/audio.h **** 
  38:libDaisy/src/hid/audio.h ****         /** factor for additional one-sided compensation to audio path for hardware that may
  39:libDaisy/src/hid/audio.h ****          *  have unequal input/output ranges
  40:libDaisy/src/hid/audio.h ****          */
  41:libDaisy/src/hid/audio.h ****         float output_compensation;
  42:libDaisy/src/hid/audio.h **** 
  43:libDaisy/src/hid/audio.h ****         /** Sets default values for config struct */
  44:libDaisy/src/hid/audio.h ****         Config()
  45:libDaisy/src/hid/audio.h ****         : blocksize(48),
  46:libDaisy/src/hid/audio.h ****           samplerate(SaiHandle::Config::SampleRate::SAI_48KHZ),
ARM GAS  /tmp/ccxnfbgf.s 			page 8


  47:libDaisy/src/hid/audio.h ****           postgain(1.f),
  48:libDaisy/src/hid/audio.h ****           output_compensation(1.f)
  49:libDaisy/src/hid/audio.h ****         {
  50:libDaisy/src/hid/audio.h ****         }
  51:libDaisy/src/hid/audio.h ****     };
  52:libDaisy/src/hid/audio.h **** 
  53:libDaisy/src/hid/audio.h ****     enum class Result
  54:libDaisy/src/hid/audio.h ****     {
  55:libDaisy/src/hid/audio.h ****         OK,
  56:libDaisy/src/hid/audio.h ****         ERR,
  57:libDaisy/src/hid/audio.h ****     };
  58:libDaisy/src/hid/audio.h **** 
  59:libDaisy/src/hid/audio.h ****     /** Non-Interleaving input buffer
  60:libDaisy/src/hid/audio.h ****      * Buffer arranged by float[chn][sample] 
  61:libDaisy/src/hid/audio.h ****      * const so that the user can't modify the input
  62:libDaisy/src/hid/audio.h ****      */
  63:libDaisy/src/hid/audio.h ****     typedef const float* const* InputBuffer;
  64:libDaisy/src/hid/audio.h **** 
  65:libDaisy/src/hid/audio.h ****     /** Non-Interleaving output buffer
  66:libDaisy/src/hid/audio.h ****      * Arranged by float[chn][sample] 
  67:libDaisy/src/hid/audio.h ****      */
  68:libDaisy/src/hid/audio.h ****     typedef float** OutputBuffer;
  69:libDaisy/src/hid/audio.h **** 
  70:libDaisy/src/hid/audio.h ****     /** Type for a Non-Interleaving audio callback 
  71:libDaisy/src/hid/audio.h ****      * Non-Interleaving audio callbacks in daisy will be of this type
  72:libDaisy/src/hid/audio.h ****      */
  73:libDaisy/src/hid/audio.h ****     typedef void (*AudioCallback)(InputBuffer  in,
  74:libDaisy/src/hid/audio.h ****                                   OutputBuffer out,
  75:libDaisy/src/hid/audio.h ****                                   size_t       size);
  76:libDaisy/src/hid/audio.h **** 
  77:libDaisy/src/hid/audio.h ****     /** Interleaving Input buffer
  78:libDaisy/src/hid/audio.h ****      ** audio is prepared as { L0, R0, L1, R1, . . . LN, RN }]
  79:libDaisy/src/hid/audio.h ****      ** this is const, as the user shouldn't modify it
  80:libDaisy/src/hid/audio.h ****     */
  81:libDaisy/src/hid/audio.h ****     typedef const float* InterleavingInputBuffer;
  82:libDaisy/src/hid/audio.h **** 
  83:libDaisy/src/hid/audio.h ****     /** Interleaving Output buffer 
  84:libDaisy/src/hid/audio.h ****      ** audio is prepared as { L0, R0, L1, R1, . . . LN, RN }
  85:libDaisy/src/hid/audio.h ****     */
  86:libDaisy/src/hid/audio.h ****     typedef float* InterleavingOutputBuffer;
  87:libDaisy/src/hid/audio.h **** 
  88:libDaisy/src/hid/audio.h ****     /** Interleaving Audio Callback 
  89:libDaisy/src/hid/audio.h ****      * Interleaving audio callbacks in daisy must be of this type
  90:libDaisy/src/hid/audio.h ****      */
  91:libDaisy/src/hid/audio.h ****     typedef void (*InterleavingAudioCallback)(InterleavingInputBuffer  in,
  92:libDaisy/src/hid/audio.h ****                                               InterleavingOutputBuffer out,
  93:libDaisy/src/hid/audio.h ****                                               size_t                   size);
  94:libDaisy/src/hid/audio.h **** 
  95:libDaisy/src/hid/audio.h ****     AudioHandle() : pimpl_(nullptr) {}
  96:libDaisy/src/hid/audio.h ****     ~AudioHandle() {}
  80              		.loc 6 96 5 is_stmt 1 view .LVU9
  81              		.loc 6 96 5 is_stmt 0 view .LVU10
  82              	.LBE552:
  83              		.loc 2 22 19 view .LVU11
  84 0000 7047     		bx	lr
  85              		.cfi_endproc
  86              	.LFE4784:
ARM GAS  /tmp/ccxnfbgf.s 			page 9


  88              		.weak	_ZN5daisy9DaisySeedD1Ev
  89              		.thumb_set _ZN5daisy9DaisySeedD1Ev,_ZN5daisy9DaisySeedD2Ev
  90 0002 00BF     		.section	.text.__tcf_0,"ax",%progbits
  91              		.align	1
  92              		.p2align 2,,3
  93              		.syntax unified
  94              		.thumb
  95              		.thumb_func
  97              	__tcf_0:
  98              	.LFB5422:
  99              		.file 7 "fjol.cpp"
   1:fjol.cpp      **** #include "daisysp.h"
   2:fjol.cpp      **** #include "daisy_seed.h"
   3:fjol.cpp      **** #include "settings.h"
   4:fjol.cpp      **** #include "variables.h"
   5:fjol.cpp      **** using namespace daisysp;
   6:fjol.cpp      **** using namespace daisy;
   7:fjol.cpp      **** 
   8:fjol.cpp      **** static DaisySeed  hw;
   9:fjol.cpp      **** I2CHandle i2c;
  10:fjol.cpp      **** //struct for saving and loading data between restarts
  11:fjol.cpp      **** struct data
  12:fjol.cpp      ****   {
  13:fjol.cpp      ****     float d_param[8] = {0,0,0,0,0,0,0,0};
  14:fjol.cpp      ****     //ctl1dest,ctl1cvdest,ctl2dest,ctl2cvdest,algorithm,midi_channel
  15:fjol.cpp      ****     uint8_t d_states[6] = {0,0,4,4,0,1}; //
  16:fjol.cpp      ****   };
  17:fjol.cpp      **** PersistentStorage<data> storage(hw.qspi);
  18:fjol.cpp      **** 
  19:fjol.cpp      **** static constexpr I2CHandle::Config i2c_config
  20:fjol.cpp      ****     = {I2CHandle::Config::Peripheral::I2C_1,
  21:fjol.cpp      ****        {{DSY_GPIOB, 8}, {DSY_GPIOB, 9}},
  22:fjol.cpp      ****        I2CHandle::Config::Speed::I2C_1MHZ};
  23:fjol.cpp      **** 
  24:fjol.cpp      **** MidiUartHandler midi; //initialize midi object
  25:fjol.cpp      **** //ADC configuration object
  26:fjol.cpp      **** AdcChannelConfig adcConfig;
  27:fjol.cpp      **** 
  28:fjol.cpp      **** struct envStruc //amplitude envelope
  29:fjol.cpp      **** {
  30:fjol.cpp      ****   Adsr env;
  31:fjol.cpp      ****   float attack;
  32:fjol.cpp      ****   float release;
  33:fjol.cpp      ****   float envSig;
  34:fjol.cpp      ****   bool gate;
  35:fjol.cpp      **** };
  36:fjol.cpp      **** 
  37:fjol.cpp      **** struct ADStruc //for filter envelope
  38:fjol.cpp      **** {
  39:fjol.cpp      ****   AdEnv env;
  40:fjol.cpp      ****   float attack;
  41:fjol.cpp      ****   float release;
  42:fjol.cpp      ****   float envSig;
  43:fjol.cpp      **** };
  44:fjol.cpp      **** 
  45:fjol.cpp      **** struct op
  46:fjol.cpp      **** {
ARM GAS  /tmp/ccxnfbgf.s 			page 10


  47:fjol.cpp      ****   Oscillator op1;
  48:fjol.cpp      ****   Oscillator op2;
  49:fjol.cpp      ****   Oscillator op3;
  50:fjol.cpp      ****   
  51:fjol.cpp      ****   //pan of voice
  52:fjol.cpp      ****   float panL = 0; 
  53:fjol.cpp      ****   float panR = 0;
  54:fjol.cpp      ****   //operator routing
  55:fjol.cpp      ****   bool op32; //op3 to op2
  56:fjol.cpp      ****   bool op31; //op3 to op1
  57:fjol.cpp      ****   bool op21; //op2 to op1 
  58:fjol.cpp      ****   bool op2out; //op2 to audio output
  59:fjol.cpp      ****   //amplitude of operators
  60:fjol.cpp      ****   float op1amp = 0.75;
  61:fjol.cpp      ****   float op2amp;
  62:fjol.cpp      ****   float op3amp;
  63:fjol.cpp      ****   //ratio of operators
  64:fjol.cpp      ****   float ratio2;
  65:fjol.cpp      ****   float ratio3;
  66:fjol.cpp      ****   //detune of operator2 and 3
  67:fjol.cpp      ****   float op2_detune;
  68:fjol.cpp      ****   float op3_detune;
  69:fjol.cpp      **** };
  70:fjol.cpp      **** 
  71:fjol.cpp      **** struct filter_
  72:fjol.cpp      **** {
  73:fjol.cpp      ****   Svf filter;
  74:fjol.cpp      ****   float freq;
  75:fjol.cpp      ****   float res;
  76:fjol.cpp      ****   float drive = 0;
  77:fjol.cpp      **** };
  78:fjol.cpp      **** 
  79:fjol.cpp      **** struct gate_i
  80:fjol.cpp      **** {
  81:fjol.cpp      ****   GateIn gate;
  82:fjol.cpp      **** };
  83:fjol.cpp      **** 
  84:fjol.cpp      **** struct knob
  85:fjol.cpp      **** {
  86:fjol.cpp      ****   AnalogControl input;
  87:fjol.cpp      ****   Parameter param;
  88:fjol.cpp      ****   float value;
  89:fjol.cpp      **** };
  90:fjol.cpp      **** 
  91:fjol.cpp      **** struct rotary
  92:fjol.cpp      **** {
  93:fjol.cpp      ****     Encoder enc;
  94:fjol.cpp      ****     uint8_t ctldest = 0;
  95:fjol.cpp      ****     uint8_t ctlcvdest = 0;
  96:fjol.cpp      **** };
  97:fjol.cpp      **** 
  98:fjol.cpp      **** op voice[voicecount]; 
 100              		.loc 7 98 4 is_stmt 1 view -0
 101              		.cfi_startproc
 102              		@ args = 0, pretend = 0, frame = 0
 103              		@ frame_needed = 0, uses_anonymous_args = 0
 104              		@ link register save eliminated.
ARM GAS  /tmp/ccxnfbgf.s 			page 11


 105              		.loc 7 98 4 is_stmt 0 view .LVU13
 106 0000 7047     		bx	lr
 107              		.cfi_endproc
 108              	.LFE5422:
 110 0002 00BF     		.section	.text._ZN7ADStrucD2Ev,"axG",%progbits,_ZN7ADStrucD5Ev,comdat
 111              		.align	1
 112              		.p2align 2,,3
 113              		.weak	_ZN7ADStrucD2Ev
 114              		.syntax unified
 115              		.thumb
 116              		.thumb_func
 118              	_ZN7ADStrucD2Ev:
 119              	.LVL2:
 120              	.LFB5428:
  37:fjol.cpp      **** {
 121              		.loc 7 37 8 is_stmt 1 view -0
 122              		.cfi_startproc
 123              		@ args = 0, pretend = 0, frame = 0
 124              		@ frame_needed = 0, uses_anonymous_args = 0
 125              		@ link register save eliminated.
 126              	.LBB553:
 127              	.LBI553:
 128              		.file 8 "DaisySP/Source/Control/adenv.h"
   1:DaisySP/Source/Control/adenv.h **** #pragma once
   2:DaisySP/Source/Control/adenv.h **** #ifndef ADENV_H
   3:DaisySP/Source/Control/adenv.h **** #define ADENV_H
   4:DaisySP/Source/Control/adenv.h **** #include <stdint.h>
   5:DaisySP/Source/Control/adenv.h **** #ifdef __cplusplus
   6:DaisySP/Source/Control/adenv.h **** 
   7:DaisySP/Source/Control/adenv.h **** namespace daisysp
   8:DaisySP/Source/Control/adenv.h **** {
   9:DaisySP/Source/Control/adenv.h **** /** Distinct stages that the phase of the envelope can be located in.
  10:DaisySP/Source/Control/adenv.h ****     @see AdEnv
  11:DaisySP/Source/Control/adenv.h **** */
  12:DaisySP/Source/Control/adenv.h **** enum AdEnvSegment
  13:DaisySP/Source/Control/adenv.h **** {
  14:DaisySP/Source/Control/adenv.h ****     /** located at phase location 0, and not currently running */
  15:DaisySP/Source/Control/adenv.h ****     ADENV_SEG_IDLE,
  16:DaisySP/Source/Control/adenv.h ****     /** First segment of envelope where phase moves from MIN value to MAX value */
  17:DaisySP/Source/Control/adenv.h ****     ADENV_SEG_ATTACK,
  18:DaisySP/Source/Control/adenv.h ****     /** Second segment of envelope where phase moves from MAX to MIN value */
  19:DaisySP/Source/Control/adenv.h ****     ADENV_SEG_DECAY,
  20:DaisySP/Source/Control/adenv.h ****     /** The final segment of the envelope (currently decay) */
  21:DaisySP/Source/Control/adenv.h ****     ADENV_SEG_LAST,
  22:DaisySP/Source/Control/adenv.h **** };
  23:DaisySP/Source/Control/adenv.h **** 
  24:DaisySP/Source/Control/adenv.h **** /** Trigger-able envelope with adjustable min/max, and independent per-segment time control.
  25:DaisySP/Source/Control/adenv.h **** 
  26:DaisySP/Source/Control/adenv.h ****     \author shensley
  27:DaisySP/Source/Control/adenv.h ****     \todo - Add Cycling
  28:DaisySP/Source/Control/adenv.h ****     \todo - Implement Curve (its only linear for now).
  29:DaisySP/Source/Control/adenv.h ****     \todo - Maybe make this an ADsr_ that has AD/AR/Asr_ modes.
  30:DaisySP/Source/Control/adenv.h ****  */
  31:DaisySP/Source/Control/adenv.h **** class AdEnv
  32:DaisySP/Source/Control/adenv.h **** {
  33:DaisySP/Source/Control/adenv.h ****   public:
  34:DaisySP/Source/Control/adenv.h ****     AdEnv() {}
ARM GAS  /tmp/ccxnfbgf.s 			page 12


  35:DaisySP/Source/Control/adenv.h ****     ~AdEnv() {}
 129              		.loc 8 35 5 view .LVU15
 130              		.loc 8 35 5 is_stmt 0 view .LVU16
 131              	.LBE553:
  37:fjol.cpp      **** {
 132              		.loc 7 37 8 view .LVU17
 133 0000 7047     		bx	lr
 134              		.cfi_endproc
 135              	.LFE5428:
 137              		.weak	_ZN7ADStrucD1Ev
 138              		.thumb_set _ZN7ADStrucD1Ev,_ZN7ADStrucD2Ev
 139 0002 00BF     		.section	.text._ZN5daisy11MidiHandlerINS_17MidiUartTransportEED2Ev,"axG",%progbits,_ZN5daisy11Midi
 140              		.align	1
 141              		.p2align 2,,3
 142              		.weak	_ZN5daisy11MidiHandlerINS_17MidiUartTransportEED2Ev
 143              		.syntax unified
 144              		.thumb
 145              		.thumb_func
 147              	_ZN5daisy11MidiHandlerINS_17MidiUartTransportEED2Ev:
 148              	.LVL3:
 149              	.LFB5449:
 150              		.file 9 "libDaisy/src/hid/midi.h"
   1:libDaisy/src/hid/midi.h **** #pragma once
   2:libDaisy/src/hid/midi.h **** #ifndef DSY_MIDI_H
   3:libDaisy/src/hid/midi.h **** #define DSY_MIDI_H
   4:libDaisy/src/hid/midi.h **** 
   5:libDaisy/src/hid/midi.h **** // TODO: make this adjustable
   6:libDaisy/src/hid/midi.h **** #define SYSEX_BUFFER_LEN 128
   7:libDaisy/src/hid/midi.h **** 
   8:libDaisy/src/hid/midi.h **** #include <stdint.h>
   9:libDaisy/src/hid/midi.h **** #include <stdlib.h>
  10:libDaisy/src/hid/midi.h **** #include "per/uart.h"
  11:libDaisy/src/hid/midi.h **** #include "util/ringbuffer.h"
  12:libDaisy/src/hid/midi.h **** #include "hid/MidiEvent.h"
  13:libDaisy/src/hid/midi.h **** #include "hid/usb_midi.h"
  14:libDaisy/src/hid/midi.h **** #include "sys/system.h"
  15:libDaisy/src/hid/midi.h **** 
  16:libDaisy/src/hid/midi.h **** namespace daisy
  17:libDaisy/src/hid/midi.h **** {
  18:libDaisy/src/hid/midi.h **** /** @brief   Transport layer for sending and receiving MIDI data over UART 
  19:libDaisy/src/hid/midi.h ****  *  @details This is the mode of communication used for TRS and DIN MIDI
  20:libDaisy/src/hid/midi.h ****  *  @ingroup midi
  21:libDaisy/src/hid/midi.h **** */
  22:libDaisy/src/hid/midi.h **** class MidiUartTransport
  23:libDaisy/src/hid/midi.h **** {
  24:libDaisy/src/hid/midi.h ****   public:
  25:libDaisy/src/hid/midi.h ****     MidiUartTransport() {}
  26:libDaisy/src/hid/midi.h ****     ~MidiUartTransport() {}
  27:libDaisy/src/hid/midi.h **** 
  28:libDaisy/src/hid/midi.h ****     struct Config
  29:libDaisy/src/hid/midi.h ****     {
  30:libDaisy/src/hid/midi.h ****         UartHandler::Config::Peripheral periph;
  31:libDaisy/src/hid/midi.h ****         dsy_gpio_pin                    rx;
  32:libDaisy/src/hid/midi.h ****         dsy_gpio_pin                    tx;
  33:libDaisy/src/hid/midi.h **** 
  34:libDaisy/src/hid/midi.h ****         Config()
  35:libDaisy/src/hid/midi.h ****         {
ARM GAS  /tmp/ccxnfbgf.s 			page 13


  36:libDaisy/src/hid/midi.h ****             periph = UartHandler::Config::Peripheral::USART_1;
  37:libDaisy/src/hid/midi.h ****             rx     = {DSY_GPIOB, 7};
  38:libDaisy/src/hid/midi.h ****             tx     = {DSY_GPIOB, 6};
  39:libDaisy/src/hid/midi.h ****         }
  40:libDaisy/src/hid/midi.h ****     };
  41:libDaisy/src/hid/midi.h **** 
  42:libDaisy/src/hid/midi.h ****     inline void Init(Config config)
  43:libDaisy/src/hid/midi.h ****     {
  44:libDaisy/src/hid/midi.h ****         UartHandler::Config uart_config;
  45:libDaisy/src/hid/midi.h **** 
  46:libDaisy/src/hid/midi.h ****         //defaults
  47:libDaisy/src/hid/midi.h ****         uart_config.baudrate   = 31250;
  48:libDaisy/src/hid/midi.h ****         uart_config.stopbits   = UartHandler::Config::StopBits::BITS_1;
  49:libDaisy/src/hid/midi.h ****         uart_config.parity     = UartHandler::Config::Parity::NONE;
  50:libDaisy/src/hid/midi.h ****         uart_config.mode       = UartHandler::Config::Mode::TX_RX;
  51:libDaisy/src/hid/midi.h ****         uart_config.wordlength = UartHandler::Config::WordLength::BITS_8;
  52:libDaisy/src/hid/midi.h **** 
  53:libDaisy/src/hid/midi.h ****         //user settings
  54:libDaisy/src/hid/midi.h ****         uart_config.periph        = config.periph;
  55:libDaisy/src/hid/midi.h ****         uart_config.pin_config.rx = config.rx;
  56:libDaisy/src/hid/midi.h ****         uart_config.pin_config.tx = config.tx;
  57:libDaisy/src/hid/midi.h **** 
  58:libDaisy/src/hid/midi.h ****         uart_.Init(uart_config);
  59:libDaisy/src/hid/midi.h ****     }
  60:libDaisy/src/hid/midi.h **** 
  61:libDaisy/src/hid/midi.h ****     inline void    StartRx() { uart_.StartRx(); }
  62:libDaisy/src/hid/midi.h ****     inline size_t  Readable() { return uart_.Readable(); }
  63:libDaisy/src/hid/midi.h ****     inline uint8_t Rx() { return uart_.PopRx(); }
  64:libDaisy/src/hid/midi.h ****     inline bool    RxActive() { return uart_.RxActive(); }
  65:libDaisy/src/hid/midi.h ****     inline void    FlushRx() { uart_.FlushRx(); }
  66:libDaisy/src/hid/midi.h ****     inline void    Tx(uint8_t* buff, size_t size) { uart_.PollTx(buff, size); }
  67:libDaisy/src/hid/midi.h **** 
  68:libDaisy/src/hid/midi.h ****   private:
  69:libDaisy/src/hid/midi.h ****     UartHandler uart_;
  70:libDaisy/src/hid/midi.h **** };
  71:libDaisy/src/hid/midi.h **** 
  72:libDaisy/src/hid/midi.h **** /** 
  73:libDaisy/src/hid/midi.h ****     @brief Simple MIDI Handler \n 
  74:libDaisy/src/hid/midi.h ****     Parses bytes from an input into valid MidiEvents. \n 
  75:libDaisy/src/hid/midi.h ****     The MidiEvents fill a FIFO queue that the user can pop messages from.
  76:libDaisy/src/hid/midi.h ****     @author shensley
  77:libDaisy/src/hid/midi.h ****     @date March 2020
  78:libDaisy/src/hid/midi.h ****     @ingroup midi
  79:libDaisy/src/hid/midi.h **** */
  80:libDaisy/src/hid/midi.h **** template <typename Transport>
  81:libDaisy/src/hid/midi.h **** class MidiHandler
  82:libDaisy/src/hid/midi.h **** {
  83:libDaisy/src/hid/midi.h ****   public:
  84:libDaisy/src/hid/midi.h ****     MidiHandler() {}
  85:libDaisy/src/hid/midi.h ****     ~MidiHandler() {}
 151              		.loc 9 85 5 is_stmt 1 view -0
 152              		.cfi_startproc
 153              		@ args = 0, pretend = 0, frame = 0
 154              		@ frame_needed = 0, uses_anonymous_args = 0
 155              		@ link register save eliminated.
 156              	.LBB554:
 157              	.LBI554:
ARM GAS  /tmp/ccxnfbgf.s 			page 14


  26:libDaisy/src/hid/midi.h **** 
 158              		.loc 9 26 5 view .LVU19
  26:libDaisy/src/hid/midi.h **** 
 159              		.loc 9 26 5 is_stmt 0 view .LVU20
 160              	.LBE554:
 161              		.loc 9 85 21 view .LVU21
 162 0000 7047     		bx	lr
 163              		.cfi_endproc
 164              	.LFE5449:
 166              		.weak	_ZN5daisy11MidiHandlerINS_17MidiUartTransportEED1Ev
 167              		.thumb_set _ZN5daisy11MidiHandlerINS_17MidiUartTransportEED1Ev,_ZN5daisy11MidiHandlerINS_17MidiUar
 168 0002 00BF     		.section	.text._ZL13AudioCallbackPKfPfj,"ax",%progbits
 169              		.align	1
 170              		.p2align 2,,3
 171              		.syntax unified
 172              		.thumb
 173              		.thumb_func
 175              	_ZL13AudioCallbackPKfPfj:
 176              	.LVL4:
 177              	.LFB4810:
  99:fjol.cpp      **** envStruc envelope[voicecount];
 100:fjol.cpp      **** ADStruc filtenvelope; //stereo
 101:fjol.cpp      **** filter_ stfilter[2]; //stereo
 102:fjol.cpp      **** 
 103:fjol.cpp      **** Switch shift_sw;
 104:fjol.cpp      **** Switch algo_sw;
 105:fjol.cpp      **** Switch midi_sw;
 106:fjol.cpp      **** gate_i gate[4];
 107:fjol.cpp      **** knob voct[4];
 108:fjol.cpp      **** knob controls[8]; //8 knobs
 109:fjol.cpp      **** knob cv[2]; //2 cv ins for ctl1 and ctl2
 110:fjol.cpp      **** rotary enc[2];
 111:fjol.cpp      **** 
 112:fjol.cpp      **** //debug variables
 113:fjol.cpp      **** bool debug_pots = 1;
 114:fjol.cpp      **** bool debug_midi = 0;
 115:fjol.cpp      **** 
 116:fjol.cpp      **** 
 117:fjol.cpp      **** static void AudioCallback(AudioHandle::InterleavingInputBuffer  in,
 118:fjol.cpp      ****                           AudioHandle::InterleavingOutputBuffer out,
 119:fjol.cpp      ****                           size_t                                size)
 120:fjol.cpp      **** {
 178              		.loc 7 120 1 is_stmt 1 view -0
 179              		.cfi_startproc
 180              		@ args = 0, pretend = 0, frame = 0
 181              		@ frame_needed = 0, uses_anonymous_args = 0
 121:fjol.cpp      ****     for(int i = 0; i < voicecount;i++)
 182              		.loc 7 121 5 view .LVU23
 183              	.LBB555:
 184              		.loc 7 121 22 view .LVU24
 185              	.LBE555:
 120:fjol.cpp      ****     for(int i = 0; i < voicecount;i++)
 186              		.loc 7 120 1 is_stmt 0 view .LVU25
 187 0000 2DE9F047 		push	{r4, r5, r6, r7, r8, r9, r10, lr}
 188              		.cfi_def_cfa_offset 32
 189              		.cfi_offset 4, -32
 190              		.cfi_offset 5, -28
ARM GAS  /tmp/ccxnfbgf.s 			page 15


 191              		.cfi_offset 6, -24
 192              		.cfi_offset 7, -20
 193              		.cfi_offset 8, -16
 194              		.cfi_offset 9, -12
 195              		.cfi_offset 10, -8
 196              		.cfi_offset 14, -4
 197 0004 DFF8CCA1 		ldr	r10, .L13+44
 198 0008 9146     		mov	r9, r2
 199 000a 694C     		ldr	r4, .L13+8
 200 000c 0AF11008 		add	r8, r10, #16
 201 0010 684F     		ldr	r7, .L13+12
 202 0012 2546     		mov	r5, r4
 203 0014 684E     		ldr	r6, .L13+16
 204 0016 2DED048B 		vpush.64	{d8, d9}
 205              		.cfi_def_cfa_offset 48
 206              		.cfi_offset 80, -48
 207              		.cfi_offset 81, -44
 208              		.cfi_offset 82, -40
 209              		.cfi_offset 83, -36
 210              	.LVL5:
 211              	.L8:
 212              	.LBB574:
 122:fjol.cpp      ****     {
 123:fjol.cpp      ****       voice[i].op1.SetFreq(voicefreq[i]);
 213              		.loc 7 123 7 is_stmt 1 discriminator 2 view .LVU26
 214              		.loc 7 123 27 is_stmt 0 discriminator 2 view .LVU27
 215 001a 9AED000A 		vldr.32	s0, [r10]
 216              	.LVL6:
 217              	.LBB556:
 218              	.LBI556:
 219              		.file 10 "DaisySP/Source/Synthesis/oscillator.h"
   1:DaisySP/Source/Synthesis/oscillator.h **** #pragma once
   2:DaisySP/Source/Synthesis/oscillator.h **** #ifndef DSY_OSCILLATOR_H
   3:DaisySP/Source/Synthesis/oscillator.h **** #define DSY_OSCILLATOR_H
   4:DaisySP/Source/Synthesis/oscillator.h **** #include <stdint.h>
   5:DaisySP/Source/Synthesis/oscillator.h **** #include "Utility/dsp.h"
   6:DaisySP/Source/Synthesis/oscillator.h **** #ifdef __cplusplus
   7:DaisySP/Source/Synthesis/oscillator.h **** 
   8:DaisySP/Source/Synthesis/oscillator.h **** namespace daisysp
   9:DaisySP/Source/Synthesis/oscillator.h **** {
  10:DaisySP/Source/Synthesis/oscillator.h **** /** Synthesis of several waveforms, including polyBLEP bandlimited waveforms.
  11:DaisySP/Source/Synthesis/oscillator.h **** */
  12:DaisySP/Source/Synthesis/oscillator.h **** class Oscillator
  13:DaisySP/Source/Synthesis/oscillator.h **** {
  14:DaisySP/Source/Synthesis/oscillator.h ****   public:
  15:DaisySP/Source/Synthesis/oscillator.h ****     Oscillator() {}
  16:DaisySP/Source/Synthesis/oscillator.h ****     ~Oscillator() {}
  17:DaisySP/Source/Synthesis/oscillator.h ****     /** Choices for output waveforms, POLYBLEP are appropriately labeled. Others are naive forms.
  18:DaisySP/Source/Synthesis/oscillator.h ****     */
  19:DaisySP/Source/Synthesis/oscillator.h ****     enum
  20:DaisySP/Source/Synthesis/oscillator.h ****     {
  21:DaisySP/Source/Synthesis/oscillator.h ****         WAVE_SIN,
  22:DaisySP/Source/Synthesis/oscillator.h ****         WAVE_TRI,
  23:DaisySP/Source/Synthesis/oscillator.h ****         WAVE_SAW,
  24:DaisySP/Source/Synthesis/oscillator.h ****         WAVE_RAMP,
  25:DaisySP/Source/Synthesis/oscillator.h ****         WAVE_SQUARE,
  26:DaisySP/Source/Synthesis/oscillator.h ****         WAVE_POLYBLEP_TRI,
ARM GAS  /tmp/ccxnfbgf.s 			page 16


  27:DaisySP/Source/Synthesis/oscillator.h ****         WAVE_POLYBLEP_SAW,
  28:DaisySP/Source/Synthesis/oscillator.h ****         WAVE_POLYBLEP_SQUARE,
  29:DaisySP/Source/Synthesis/oscillator.h ****         WAVE_LAST,
  30:DaisySP/Source/Synthesis/oscillator.h ****     };
  31:DaisySP/Source/Synthesis/oscillator.h **** 
  32:DaisySP/Source/Synthesis/oscillator.h **** 
  33:DaisySP/Source/Synthesis/oscillator.h ****     /** Initializes the Oscillator
  34:DaisySP/Source/Synthesis/oscillator.h **** 
  35:DaisySP/Source/Synthesis/oscillator.h ****         \param sample_rate - sample rate of the audio engine being run, and the frequency that the 
  36:DaisySP/Source/Synthesis/oscillator.h **** 
  37:DaisySP/Source/Synthesis/oscillator.h ****         Defaults:
  38:DaisySP/Source/Synthesis/oscillator.h ****         - freq_ = 100 Hz
  39:DaisySP/Source/Synthesis/oscillator.h ****         - amp_ = 0.5
  40:DaisySP/Source/Synthesis/oscillator.h ****         - waveform_ = sine wave.
  41:DaisySP/Source/Synthesis/oscillator.h ****     */
  42:DaisySP/Source/Synthesis/oscillator.h ****     void Init(float sample_rate)
  43:DaisySP/Source/Synthesis/oscillator.h ****     {
  44:DaisySP/Source/Synthesis/oscillator.h ****         sr_        = sample_rate;
  45:DaisySP/Source/Synthesis/oscillator.h ****         sr_recip_  = 1.0f / sample_rate;
  46:DaisySP/Source/Synthesis/oscillator.h ****         freq_      = 100.0f;
  47:DaisySP/Source/Synthesis/oscillator.h ****         amp_       = 0.5f;
  48:DaisySP/Source/Synthesis/oscillator.h ****         pw_        = 0.5f;
  49:DaisySP/Source/Synthesis/oscillator.h ****         pw_rad_    = pw_ * TWOPI_F;
  50:DaisySP/Source/Synthesis/oscillator.h ****         phase_     = 0.0f;
  51:DaisySP/Source/Synthesis/oscillator.h ****         phase_inc_ = CalcPhaseInc(freq_);
  52:DaisySP/Source/Synthesis/oscillator.h ****         waveform_  = WAVE_SIN;
  53:DaisySP/Source/Synthesis/oscillator.h ****         eoc_       = true;
  54:DaisySP/Source/Synthesis/oscillator.h ****         eor_       = true;
  55:DaisySP/Source/Synthesis/oscillator.h ****     }
  56:DaisySP/Source/Synthesis/oscillator.h **** 
  57:DaisySP/Source/Synthesis/oscillator.h **** 
  58:DaisySP/Source/Synthesis/oscillator.h ****     /** Changes the frequency of the Oscillator, and recalculates phase increment.
  59:DaisySP/Source/Synthesis/oscillator.h ****     */
  60:DaisySP/Source/Synthesis/oscillator.h ****     inline void SetFreq(const float f)
 220              		.loc 10 60 17 is_stmt 1 discriminator 2 view .LVU28
 221              	.LBB557:
  61:DaisySP/Source/Synthesis/oscillator.h ****     {
  62:DaisySP/Source/Synthesis/oscillator.h ****         freq_      = f;
 222              		.loc 10 62 9 discriminator 2 view .LVU29
  63:DaisySP/Source/Synthesis/oscillator.h ****         phase_inc_ = CalcPhaseInc(f);
 223              		.loc 10 63 34 is_stmt 0 discriminator 2 view .LVU30
 224 001e 2846     		mov	r0, r5
 225              	.LBE557:
 226              	.LBE556:
 124:fjol.cpp      ****       voice[i].op2.SetFreq(voicefreq[i]*ratioindex[(int)knob_value[1]]*(1+voice[i].op2_detune*0.2))
 227              		.loc 7 124 74 discriminator 2 view .LVU31
 228 0020 B7EE008B 		vmov.f64	d8, #1.0e+0
 229              	.LBB560:
 230              	.LBB558:
  62:DaisySP/Source/Synthesis/oscillator.h ****         phase_inc_ = CalcPhaseInc(f);
 231              		.loc 10 62 20 discriminator 2 view .LVU32
 232 0024 85ED020A 		vstr.32	s0, [r5, #8]
 233              		.loc 10 63 9 is_stmt 1 discriminator 2 view .LVU33
 234              		.loc 10 63 34 is_stmt 0 discriminator 2 view .LVU34
 235 0028 FFF7FEFF 		bl	_ZN7daisysp10Oscillator12CalcPhaseIncEf
 236              	.LVL7:
 237              		.loc 10 63 34 discriminator 2 view .LVU35
ARM GAS  /tmp/ccxnfbgf.s 			page 17


 238              	.LBE558:
 239              	.LBE560:
 240              		.loc 7 124 52 discriminator 2 view .LVU36
 241 002c D6ED017A 		vldr.32	s15, [r6, #4]
 242              		.loc 7 124 84 discriminator 2 view .LVU37
 243 0030 95ED2C6A 		vldr.32	s12, [r5, #176]
 244              	.LBB561:
 245              	.LBB562:
 246              		.loc 10 63 34 discriminator 2 view .LVU38
 247 0034 05F13000 		add	r0, r5, #48
 248              	.LBE562:
 249              	.LBE561:
 250              		.loc 7 124 52 discriminator 2 view .LVU39
 251 0038 FDEEE77A 		vcvt.s32.f32	s15, s15
 252              		.loc 7 124 40 discriminator 2 view .LVU40
 253 003c FAEC015A 		vldmia.32	r10!, {s11}
 254              		.loc 7 124 84 discriminator 2 view .LVU41
 255 0040 B7EEC66A 		vcvt.f64.f32	d6, s12
 256              	.LBB565:
 257              	.LBB559:
 258              		.loc 10 63 20 discriminator 2 view .LVU42
 259 0044 85ED080A 		vstr.32	s0, [r5, #32]
 260              	.LVL8:
 261              		.loc 10 63 20 discriminator 2 view .LVU43
 262              	.LBE559:
 263              	.LBE565:
 264              		.loc 7 124 7 is_stmt 1 discriminator 2 view .LVU44
 265              		.loc 7 124 74 is_stmt 0 discriminator 2 view .LVU45
 266 0048 9FED579B 		vldr.64	d9, .L13
 267              		.loc 7 124 52 discriminator 2 view .LVU46
 268 004c 17EE903A 		vmov	r3, s15	@ int
 269              		.loc 7 124 74 discriminator 2 view .LVU47
 270 0050 B0EE487B 		vmov.f64	d7, d8
 271              		.loc 7 124 70 discriminator 2 view .LVU48
 272 0054 07EB8303 		add	r3, r7, r3, lsl #2
 273              		.loc 7 124 74 discriminator 2 view .LVU49
 274 0058 A6EE097B 		vfma.f64	d7, d6, d9
 275              		.loc 7 124 40 discriminator 2 view .LVU50
 276 005c 93ED000A 		vldr.32	s0, [r3]
 277 0060 20EE250A 		vmul.f32	s0, s0, s11
 278 0064 B7EEC00A 		vcvt.f64.f32	d0, s0
 279              		.loc 7 124 71 discriminator 2 view .LVU51
 280 0068 20EE070B 		vmul.f64	d0, d0, d7
 281              		.loc 7 124 27 discriminator 2 view .LVU52
 282 006c B7EEC00B 		vcvt.f32.f64	s0, d0
 283              	.LVL9:
 284              	.LBB566:
 285              	.LBI561:
  60:DaisySP/Source/Synthesis/oscillator.h ****     {
 286              		.loc 10 60 17 is_stmt 1 discriminator 2 view .LVU53
 287              	.LBB563:
  62:DaisySP/Source/Synthesis/oscillator.h ****         phase_inc_ = CalcPhaseInc(f);
 288              		.loc 10 62 9 discriminator 2 view .LVU54
  62:DaisySP/Source/Synthesis/oscillator.h ****         phase_inc_ = CalcPhaseInc(f);
 289              		.loc 10 62 20 is_stmt 0 discriminator 2 view .LVU55
 290 0070 85ED0E0A 		vstr.32	s0, [r5, #56]
 291              		.loc 10 63 9 is_stmt 1 discriminator 2 view .LVU56
ARM GAS  /tmp/ccxnfbgf.s 			page 18


 292              		.loc 10 63 34 is_stmt 0 discriminator 2 view .LVU57
 293 0074 FFF7FEFF 		bl	_ZN7daisysp10Oscillator12CalcPhaseIncEf
 294              	.LVL10:
 295              		.loc 10 63 34 discriminator 2 view .LVU58
 296              	.LBE563:
 297              	.LBE566:
 125:fjol.cpp      ****       voice[i].op3.SetFreq(voicefreq[i]*ratioindex[(int)knob_value[3]]*(1+voice[i].op3_detune*0.2))
 298              		.loc 7 125 52 discriminator 2 view .LVU59
 299 0078 D6ED037A 		vldr.32	s15, [r6, #12]
 300              		.loc 7 125 84 discriminator 2 view .LVU60
 301 007c 95ED2D6A 		vldr.32	s12, [r5, #180]
 302              	.LBB567:
 303              	.LBB568:
 304              		.loc 10 63 34 discriminator 2 view .LVU61
 305 0080 05F16000 		add	r0, r5, #96
 306              	.LBE568:
 307              	.LBE567:
 308              		.loc 7 125 52 discriminator 2 view .LVU62
 309 0084 FDEEE77A 		vcvt.s32.f32	s15, s15
 310              	.LBB571:
 311              	.LBB564:
 312              		.loc 10 63 20 discriminator 2 view .LVU63
 313 0088 85ED140A 		vstr.32	s0, [r5, #80]
 314              	.LVL11:
 315              		.loc 10 63 20 discriminator 2 view .LVU64
 316              	.LBE564:
 317              	.LBE571:
 318              		.loc 7 125 7 is_stmt 1 discriminator 2 view .LVU65
 319              		.loc 7 125 84 is_stmt 0 discriminator 2 view .LVU66
 320 008c B7EEC66A 		vcvt.f64.f32	d6, s12
 321              		.loc 7 125 40 discriminator 2 view .LVU67
 322 0090 1AED017A 		vldr.32	s14, [r10, #-4]
 121:fjol.cpp      ****     {
 323              		.loc 7 121 22 discriminator 2 view .LVU68
 324 0094 B835     		adds	r5, r5, #184
 325              		.loc 7 125 52 discriminator 2 view .LVU69
 326 0096 17EE903A 		vmov	r3, s15	@ int
 327              		.loc 7 125 74 discriminator 2 view .LVU70
 328 009a A6EE098B 		vfma.f64	d8, d6, d9
 329              		.loc 7 125 70 discriminator 2 view .LVU71
 330 009e 07EB8303 		add	r3, r7, r3, lsl #2
 331              		.loc 7 125 40 discriminator 2 view .LVU72
 332 00a2 93ED000A 		vldr.32	s0, [r3]
 333 00a6 20EE070A 		vmul.f32	s0, s0, s14
 334 00aa B7EEC00A 		vcvt.f64.f32	d0, s0
 335              		.loc 7 125 71 discriminator 2 view .LVU73
 336 00ae 20EE080B 		vmul.f64	d0, d0, d8
 337              		.loc 7 125 27 discriminator 2 view .LVU74
 338 00b2 B7EEC00B 		vcvt.f32.f64	s0, d0
 339              	.LVL12:
 340              	.LBB572:
 341              	.LBI567:
  60:DaisySP/Source/Synthesis/oscillator.h ****     {
 342              		.loc 10 60 17 is_stmt 1 discriminator 2 view .LVU75
 343              	.LBB569:
  62:DaisySP/Source/Synthesis/oscillator.h ****         phase_inc_ = CalcPhaseInc(f);
 344              		.loc 10 62 9 discriminator 2 view .LVU76
ARM GAS  /tmp/ccxnfbgf.s 			page 19


  62:DaisySP/Source/Synthesis/oscillator.h ****         phase_inc_ = CalcPhaseInc(f);
 345              		.loc 10 62 20 is_stmt 0 discriminator 2 view .LVU77
 346 00b6 05ED140A 		vstr.32	s0, [r5, #-80]
 347              		.loc 10 63 9 is_stmt 1 discriminator 2 view .LVU78
 348              		.loc 10 63 34 is_stmt 0 discriminator 2 view .LVU79
 349 00ba FFF7FEFF 		bl	_ZN7daisysp10Oscillator12CalcPhaseIncEf
 350              	.LVL13:
 351              		.loc 10 63 34 discriminator 2 view .LVU80
 352              	.LBE569:
 353              	.LBE572:
 121:fjol.cpp      ****     {
 354              		.loc 7 121 22 discriminator 2 view .LVU81
 355 00be C245     		cmp	r10, r8
 356              	.LBB573:
 357              	.LBB570:
 358              		.loc 10 63 20 discriminator 2 view .LVU82
 359 00c0 05ED0E0A 		vstr.32	s0, [r5, #-56]
 360              		.loc 10 63 20 discriminator 2 view .LVU83
 361              	.LBE570:
 362              	.LBE573:
 121:fjol.cpp      ****     {
 363              		.loc 7 121 5 is_stmt 1 discriminator 2 view .LVU84
 121:fjol.cpp      ****     {
 364              		.loc 7 121 22 discriminator 2 view .LVU85
 365 00c4 A9D1     		bne	.L8
 366              	.LBE574:
 126:fjol.cpp      ****     }
 127:fjol.cpp      **** 
 128:fjol.cpp      ****     float left,right,temp1,temp2,temp3;
 367              		.loc 7 128 5 discriminator 1 view .LVU86
 129:fjol.cpp      **** 
 130:fjol.cpp      ****     for(size_t i = 0; i < size; i += 2)
 368              		.loc 7 130 5 discriminator 1 view .LVU87
 369              	.LVL14:
 370              	.LBB575:
 371              		.loc 7 130 25 discriminator 1 view .LVU88
 372 00c6 B9F1000F 		cmp	r9, #0
 373 00ca 68D0     		beq	.L7
 374 00cc DFF80881 		ldr	r8, .L13+48
 375 00d0 3A4F     		ldr	r7, .L13+20
 376 00d2 3B4E     		ldr	r6, .L13+24
 377 00d4 3B4D     		ldr	r5, .L13+28
 378              	.LVL15:
 379              	.L10:
 380              	.LBB576:
 381              	.LBB577:
 131:fjol.cpp      ****     {
 132:fjol.cpp      ****       for(int k = 0; k < voicecount;i++)
 382              		.loc 7 132 24 discriminator 3 view .LVU89
 133:fjol.cpp      ****       {
 134:fjol.cpp      ****         envelope[k].envSig = envelope[k].env.Process(voicetrig[k]);
 383              		.loc 7 134 9 discriminator 3 view .LVU90
 384              		.loc 7 134 53 is_stmt 0 discriminator 3 view .LVU91
 385 00d6 98F80010 		ldrb	r1, [r8]	@ zero_extendqisi2
 386 00da 3848     		ldr	r0, .L13+20
 387 00dc FFF7FEFF 		bl	_ZN7daisysp4Adsr7ProcessEb
 388              	.LVL16:
ARM GAS  /tmp/ccxnfbgf.s 			page 20


 135:fjol.cpp      **** 
 136:fjol.cpp      ****         voice[k].op1.SetAmp(envelope[k].envSig);
 137:fjol.cpp      ****         voice[k].op2.SetAmp(envelope[k].envSig*controls[0].value);
 389              		.loc 7 137 28 discriminator 3 view .LVU92
 390 00e0 96ED167A 		vldr.32	s14, [r6, #88]
 138:fjol.cpp      ****         voice[k].op3.SetAmp(envelope[k].envSig*controls[1].value);
 391              		.loc 7 138 28 discriminator 3 view .LVU93
 392 00e4 D6ED2D7A 		vldr.32	s15, [r6, #180]
 137:fjol.cpp      ****         voice[k].op3.SetAmp(envelope[k].envSig*controls[1].value);
 393              		.loc 7 137 28 discriminator 3 view .LVU94
 394 00e8 27EE007A 		vmul.f32	s14, s14, s0
 139:fjol.cpp      **** 
 140:fjol.cpp      ****         //operator 3 processing
 141:fjol.cpp      ****         temp1 = voice[k].op3.Process();
 395              		.loc 7 141 37 discriminator 3 view .LVU95
 396 00ec 3648     		ldr	r0, .L13+32
 138:fjol.cpp      **** 
 397              		.loc 7 138 28 discriminator 3 view .LVU96
 398 00ee 67EE807A 		vmul.f32	s15, s15, s0
 134:fjol.cpp      **** 
 399              		.loc 7 134 28 discriminator 3 view .LVU97
 400 00f2 87ED0E0A 		vstr.32	s0, [r7, #56]
 136:fjol.cpp      ****         voice[k].op2.SetAmp(envelope[k].envSig*controls[0].value);
 401              		.loc 7 136 9 is_stmt 1 discriminator 3 view .LVU98
 402              	.LVL17:
 403              	.LBB578:
 404              	.LBI578:
  64:DaisySP/Source/Synthesis/oscillator.h ****     }
  65:DaisySP/Source/Synthesis/oscillator.h **** 
  66:DaisySP/Source/Synthesis/oscillator.h **** 
  67:DaisySP/Source/Synthesis/oscillator.h ****     /** Sets the amplitude of the waveform.
  68:DaisySP/Source/Synthesis/oscillator.h ****     */
  69:DaisySP/Source/Synthesis/oscillator.h ****     inline void SetAmp(const float a) { amp_ = a; }
 405              		.loc 10 69 17 discriminator 3 view .LVU99
 406              	.LBB579:
 407              		.loc 10 69 41 discriminator 3 view .LVU100
 408              		.loc 10 69 46 is_stmt 0 discriminator 3 view .LVU101
 409 00f6 84ED010A 		vstr.32	s0, [r4, #4]
 410              	.LVL18:
 411              		.loc 10 69 46 discriminator 3 view .LVU102
 412              	.LBE579:
 413              	.LBE578:
 137:fjol.cpp      ****         voice[k].op3.SetAmp(envelope[k].envSig*controls[1].value);
 414              		.loc 7 137 9 is_stmt 1 discriminator 3 view .LVU103
 415              	.LBB580:
 416              	.LBI580:
 417              		.loc 10 69 17 discriminator 3 view .LVU104
 418              	.LBB581:
 419              		.loc 10 69 41 discriminator 3 view .LVU105
 420              		.loc 10 69 46 is_stmt 0 discriminator 3 view .LVU106
 421 00fa 84ED0D7A 		vstr.32	s14, [r4, #52]
 422              	.LVL19:
 423              		.loc 10 69 46 discriminator 3 view .LVU107
 424              	.LBE581:
 425              	.LBE580:
 138:fjol.cpp      **** 
 426              		.loc 7 138 9 is_stmt 1 discriminator 3 view .LVU108
ARM GAS  /tmp/ccxnfbgf.s 			page 21


 427              	.LBB582:
 428              	.LBI582:
 429              		.loc 10 69 17 discriminator 3 view .LVU109
 430              	.LBB583:
 431              		.loc 10 69 41 discriminator 3 view .LVU110
 432              		.loc 10 69 46 is_stmt 0 discriminator 3 view .LVU111
 433 00fe C4ED197A 		vstr.32	s15, [r4, #100]
 434              	.LVL20:
 435              		.loc 10 69 46 discriminator 3 view .LVU112
 436              	.LBE583:
 437              	.LBE582:
 438              		.loc 7 141 9 is_stmt 1 discriminator 3 view .LVU113
 439              		.loc 7 141 37 is_stmt 0 discriminator 3 view .LVU114
 440 0102 FFF7FEFF 		bl	_ZN7daisysp10Oscillator7ProcessEv
 441              	.LVL21:
 142:fjol.cpp      ****         //operator 2 processing
 143:fjol.cpp      ****         voice[k].op2.PhaseAdd(temp1*voice[k].op32);
 442              		.loc 7 143 46 discriminator 3 view .LVU115
 443 0106 94F89830 		ldrb	r3, [r4, #152]	@ zero_extendqisi2
 141:fjol.cpp      ****         //operator 2 processing
 444              		.loc 7 141 37 discriminator 3 view .LVU116
 445 010a F0EE408A 		vmov.f32	s17, s0
 446              	.LVL22:
 447              		.loc 7 143 9 is_stmt 1 discriminator 3 view .LVU117
 448              	.LBB584:
 449              	.LBI584:
  70:DaisySP/Source/Synthesis/oscillator.h ****     /** Sets the waveform to be synthesized by the Process() function.
  71:DaisySP/Source/Synthesis/oscillator.h ****     */
  72:DaisySP/Source/Synthesis/oscillator.h ****     inline void SetWaveform(const uint8_t wf)
  73:DaisySP/Source/Synthesis/oscillator.h ****     {
  74:DaisySP/Source/Synthesis/oscillator.h ****         waveform_ = wf < WAVE_LAST ? wf : WAVE_SIN;
  75:DaisySP/Source/Synthesis/oscillator.h ****     }
  76:DaisySP/Source/Synthesis/oscillator.h ****     /** Sets the pulse width for WAVE_SQUARE and WAVE_POLYBLEP_SQUARE (range 0 - 1)
  77:DaisySP/Source/Synthesis/oscillator.h ****      */
  78:DaisySP/Source/Synthesis/oscillator.h ****     inline void SetPw(const float pw)
  79:DaisySP/Source/Synthesis/oscillator.h ****     {
  80:DaisySP/Source/Synthesis/oscillator.h ****         pw_     = fclamp(pw, 0.0f, 1.0f);
  81:DaisySP/Source/Synthesis/oscillator.h ****         pw_rad_ = pw_ * TWOPI_F;
  82:DaisySP/Source/Synthesis/oscillator.h ****     }
  83:DaisySP/Source/Synthesis/oscillator.h **** 
  84:DaisySP/Source/Synthesis/oscillator.h ****     /** Returns true if cycle is at end of rise. Set during call to Process.
  85:DaisySP/Source/Synthesis/oscillator.h ****     */
  86:DaisySP/Source/Synthesis/oscillator.h ****     inline bool IsEOR() { return eor_; }
  87:DaisySP/Source/Synthesis/oscillator.h **** 
  88:DaisySP/Source/Synthesis/oscillator.h ****     /** Returns true if cycle is at end of cycle. Set during call to Process.
  89:DaisySP/Source/Synthesis/oscillator.h ****     */
  90:DaisySP/Source/Synthesis/oscillator.h ****     inline bool IsEOC() { return eoc_; }
  91:DaisySP/Source/Synthesis/oscillator.h **** 
  92:DaisySP/Source/Synthesis/oscillator.h ****     /** Returns true if cycle rising.
  93:DaisySP/Source/Synthesis/oscillator.h ****     */
  94:DaisySP/Source/Synthesis/oscillator.h ****     inline bool IsRising() { return phase_ < PI_F; }
  95:DaisySP/Source/Synthesis/oscillator.h **** 
  96:DaisySP/Source/Synthesis/oscillator.h ****     /** Returns true if cycle falling.
  97:DaisySP/Source/Synthesis/oscillator.h ****     */
  98:DaisySP/Source/Synthesis/oscillator.h ****     inline bool IsFalling() { return phase_ >= PI_F; }
  99:DaisySP/Source/Synthesis/oscillator.h **** 
 100:DaisySP/Source/Synthesis/oscillator.h ****     /** Processes the waveform to be generated, returning one sample. This should be called once pe
ARM GAS  /tmp/ccxnfbgf.s 			page 22


 101:DaisySP/Source/Synthesis/oscillator.h ****     */
 102:DaisySP/Source/Synthesis/oscillator.h ****     float Process();
 103:DaisySP/Source/Synthesis/oscillator.h **** 
 104:DaisySP/Source/Synthesis/oscillator.h **** 
 105:DaisySP/Source/Synthesis/oscillator.h ****     /** Adds a value 0.0-1.0 (mapped to 0.0-TWO_PI) to the current phase. Useful for PM and "FM" sy
 106:DaisySP/Source/Synthesis/oscillator.h ****     */
 107:DaisySP/Source/Synthesis/oscillator.h ****     void PhaseAdd(float _phase) { phase_ += (_phase * TWOPI_F); }
 450              		.loc 10 107 10 discriminator 3 view .LVU118
 451              	.LBB585:
 452              		.loc 10 107 35 discriminator 3 view .LVU119
 453              		.loc 10 107 42 is_stmt 0 discriminator 3 view .LVU120
 454 010e 9FED2F8A 		vldr.32	s16, .L13+36
 455              	.LBE585:
 456              	.LBE584:
 457              		.loc 7 143 46 discriminator 3 view .LVU121
 458 0112 07EE903A 		vmov	s15, r3	@ int
 459              	.LBB588:
 460              	.LBB586:
 461              		.loc 10 107 42 discriminator 3 view .LVU122
 462 0116 94ED137A 		vldr.32	s14, [r4, #76]
 463              	.LBE586:
 464              	.LBE588:
 144:fjol.cpp      ****         temp2 = voice[k].op2.Process();
 465              		.loc 7 144 37 discriminator 3 view .LVU123
 466 011a 2D48     		ldr	r0, .L13+40
 143:fjol.cpp      ****         temp2 = voice[k].op2.Process();
 467              		.loc 7 143 30 discriminator 3 view .LVU124
 468 011c F8EEE77A 		vcvt.f32.s32	s15, s15
 469 0120 67EE807A 		vmul.f32	s15, s15, s0
 470              	.LVL23:
 471              	.LBB589:
 472              	.LBB587:
 473              		.loc 10 107 42 discriminator 3 view .LVU125
 474 0124 A7EE887A 		vfma.f32	s14, s15, s16
 475 0128 84ED137A 		vstr.32	s14, [r4, #76]
 476              	.LVL24:
 477              		.loc 10 107 42 discriminator 3 view .LVU126
 478              	.LBE587:
 479              	.LBE589:
 480              		.loc 7 144 9 is_stmt 1 discriminator 3 view .LVU127
 481              		.loc 7 144 37 is_stmt 0 discriminator 3 view .LVU128
 482 012c FFF7FEFF 		bl	_ZN7daisysp10Oscillator7ProcessEv
 483              	.LVL25:
 145:fjol.cpp      ****         voice[k].op2.PhaseAdd(param[7]*temp2); //operator 2 feedback
 484              		.loc 7 145 9 is_stmt 1 discriminator 3 view .LVU129
 485              	.LBB590:
 486              	.LBI590:
 487              		.loc 10 107 10 discriminator 3 view .LVU130
 488              	.LBB591:
 489              		.loc 10 107 35 discriminator 3 view .LVU131
 490              	.LBE591:
 491              	.LBE590:
 492              		.loc 7 145 30 is_stmt 0 discriminator 3 view .LVU132
 493 0130 95ED077A 		vldr.32	s14, [r5, #28]
 494              	.LBB594:
 495              	.LBB592:
 496              		.loc 10 107 42 discriminator 3 view .LVU133
ARM GAS  /tmp/ccxnfbgf.s 			page 23


 497 0134 D4ED137A 		vldr.32	s15, [r4, #76]
 498              	.LBE592:
 499              	.LBE594:
 500              		.loc 7 145 30 discriminator 3 view .LVU134
 501 0138 20EE070A 		vmul.f32	s0, s0, s14
 502              	.LVL26:
 146:fjol.cpp      ****         temp2 = voice[k].op2.Process(); 
 503              		.loc 7 146 37 discriminator 3 view .LVU135
 504 013c 2448     		ldr	r0, .L13+40
 505              	.LBB595:
 506              	.LBB593:
 507              		.loc 10 107 42 discriminator 3 view .LVU136
 508 013e E0EE087A 		vfma.f32	s15, s0, s16
 509 0142 C4ED137A 		vstr.32	s15, [r4, #76]
 510              	.LVL27:
 511              		.loc 10 107 42 discriminator 3 view .LVU137
 512              	.LBE593:
 513              	.LBE595:
 514              		.loc 7 146 9 is_stmt 1 discriminator 3 view .LVU138
 515              		.loc 7 146 37 is_stmt 0 discriminator 3 view .LVU139
 516 0146 FFF7FEFF 		bl	_ZN7daisysp10Oscillator7ProcessEv
 517              	.LVL28:
 147:fjol.cpp      ****         //operator 1 processing
 148:fjol.cpp      ****         voice[k].op1.PhaseAdd(temp1*voice[k].op31 + temp2*voice[k].op21);
 518              		.loc 7 148 9 is_stmt 1 discriminator 3 view .LVU140
 519              		.loc 7 148 68 is_stmt 0 discriminator 3 view .LVU141
 520 014a 94F89A30 		ldrb	r3, [r4, #154]	@ zero_extendqisi2
 521              	.LBB596:
 522              	.LBB597:
 523              		.loc 10 107 42 discriminator 3 view .LVU142
 524 014e 94ED077A 		vldr.32	s14, [r4, #28]
 525              	.LBE597:
 526              	.LBE596:
 527              		.loc 7 148 68 discriminator 3 view .LVU143
 528 0152 07EE903A 		vmov	s15, r3	@ int
 529              		.loc 7 148 46 discriminator 3 view .LVU144
 530 0156 94F89930 		ldrb	r3, [r4, #153]	@ zero_extendqisi2
 149:fjol.cpp      ****         temp3 = voice[k].op1.Process();
 531              		.loc 7 149 37 discriminator 3 view .LVU145
 532 015a 1548     		ldr	r0, .L13+8
 148:fjol.cpp      ****         temp3 = voice[k].op1.Process();
 533              		.loc 7 148 58 discriminator 3 view .LVU146
 534 015c F8EEE77A 		vcvt.f32.s32	s15, s15
 148:fjol.cpp      ****         temp3 = voice[k].op1.Process();
 535              		.loc 7 148 46 discriminator 3 view .LVU147
 536 0160 06EE903A 		vmov	s13, r3	@ int
 148:fjol.cpp      ****         temp3 = voice[k].op1.Process();
 537              		.loc 7 148 36 discriminator 3 view .LVU148
 538 0164 F8EEE66A 		vcvt.f32.s32	s13, s13
 148:fjol.cpp      ****         temp3 = voice[k].op1.Process();
 539              		.loc 7 148 58 discriminator 3 view .LVU149
 540 0168 67EE807A 		vmul.f32	s15, s15, s0
 148:fjol.cpp      ****         temp3 = voice[k].op1.Process();
 541              		.loc 7 148 30 discriminator 3 view .LVU150
 542 016c E6EEA87A 		vfma.f32	s15, s13, s17
 543              	.LVL29:
 544              	.LBB599:
ARM GAS  /tmp/ccxnfbgf.s 			page 24


 545              	.LBI596:
 546              		.loc 10 107 10 is_stmt 1 discriminator 3 view .LVU151
 547              	.LBB598:
 548              		.loc 10 107 35 discriminator 3 view .LVU152
 549              		.loc 10 107 42 is_stmt 0 discriminator 3 view .LVU153
 550 0170 A7EE887A 		vfma.f32	s14, s15, s16
 551 0174 84ED077A 		vstr.32	s14, [r4, #28]
 552              	.LVL30:
 553              		.loc 10 107 42 discriminator 3 view .LVU154
 554              	.LBE598:
 555              	.LBE599:
 556              		.loc 7 149 9 is_stmt 1 discriminator 3 view .LVU155
 557              		.loc 7 149 37 is_stmt 0 discriminator 3 view .LVU156
 558 0178 FFF7FEFF 		bl	_ZN7daisysp10Oscillator7ProcessEv
 559              	.LVL31:
 150:fjol.cpp      ****         voice[k].op1.PhaseAdd(temp3*param[6]); //operator 1 feedback
 560              		.loc 7 150 9 is_stmt 1 discriminator 3 view .LVU157
 561              	.LBB600:
 562              	.LBI600:
 563              		.loc 10 107 10 discriminator 3 view .LVU158
 564              	.LBB601:
 565              		.loc 10 107 35 discriminator 3 view .LVU159
 566              	.LBE601:
 567              	.LBE600:
 568              		.loc 7 150 30 is_stmt 0 discriminator 3 view .LVU160
 569 017c 95ED067A 		vldr.32	s14, [r5, #24]
 570              	.LBB604:
 571              	.LBB602:
 572              		.loc 10 107 42 discriminator 3 view .LVU161
 573 0180 D4ED077A 		vldr.32	s15, [r4, #28]
 574              	.LBE602:
 575              	.LBE604:
 576              		.loc 7 150 30 discriminator 3 view .LVU162
 577 0184 20EE070A 		vmul.f32	s0, s0, s14
 578              	.LVL32:
 151:fjol.cpp      **** 
 152:fjol.cpp      ****         //stereo mix
 153:fjol.cpp      ****         left+=voice[k].op1.Process()*voice[k].panL;
 579              		.loc 7 153 35 discriminator 3 view .LVU163
 580 0188 0948     		ldr	r0, .L13+8
 581              	.LBB605:
 582              	.LBB603:
 583              		.loc 10 107 42 discriminator 3 view .LVU164
 584 018a E0EE087A 		vfma.f32	s15, s0, s16
 585 018e C4ED077A 		vstr.32	s15, [r4, #28]
 586              	.LVL33:
 587              		.loc 10 107 42 discriminator 3 view .LVU165
 588              	.LBE603:
 589              	.LBE605:
 590              		.loc 7 153 9 is_stmt 1 discriminator 3 view .LVU166
 591              		.loc 7 153 35 is_stmt 0 discriminator 3 view .LVU167
 592 0192 FFF7FEFF 		bl	_ZN7daisysp10Oscillator7ProcessEv
 593              	.LVL34:
 154:fjol.cpp      ****         left+=(temp2*voice[k].op2out*voice[k].panL)*pm1amp;
 594              		.loc 7 154 9 is_stmt 1 discriminator 3 view .LVU168
 155:fjol.cpp      ****         right+=voice[k].op1.Process()*voice[k].panR;
 595              		.loc 7 155 9 discriminator 3 view .LVU169
ARM GAS  /tmp/ccxnfbgf.s 			page 25


 596              		.loc 7 155 36 is_stmt 0 discriminator 3 view .LVU170
 597 0196 0648     		ldr	r0, .L13+8
 598 0198 FFF7FEFF 		bl	_ZN7daisysp10Oscillator7ProcessEv
 599              	.LVL35:
 156:fjol.cpp      ****         right+=(temp2*voice[k].op2out*voice[k].panR)*pm1amp;
 600              		.loc 7 156 9 is_stmt 1 discriminator 3 view .LVU171
 132:fjol.cpp      ****       {
 601              		.loc 7 132 7 discriminator 3 view .LVU172
 602 019c 9BE7     		b	.L10
 603              	.LVL36:
 604              	.L7:
 132:fjol.cpp      ****       {
 605              		.loc 7 132 7 is_stmt 0 discriminator 3 view .LVU173
 606              	.LBE577:
 607              	.LBE576:
 608              	.LBE575:
 157:fjol.cpp      **** 
 158:fjol.cpp      ****       }
 159:fjol.cpp      **** 
 160:fjol.cpp      ****       //stereo filter with envelope
 161:fjol.cpp      ****       if(filtenv_trig){filtenvelope.env.Trigger();}
 162:fjol.cpp      ****       filtenvelope.envSig = filtenvelope.env.Process();
 163:fjol.cpp      ****       float sum = (filtenvelope.envSig*20000) + controls[6].value;
 164:fjol.cpp      ****       sum = DSY_CLAMP(sum,20,20000);
 165:fjol.cpp      ****       
 166:fjol.cpp      ****       for(int j = 0; i<2;i++)
 167:fjol.cpp      ****       {
 168:fjol.cpp      ****         stfilter[j].filter.SetFreq(sum);
 169:fjol.cpp      ****         stfilter[j].filter.SetFreq(param[1]);
 170:fjol.cpp      ****       }
 171:fjol.cpp      ****       stfilter[0].filter.Process(left);
 172:fjol.cpp      ****       stfilter[0].filter.Process(right);
 173:fjol.cpp      **** 
 174:fjol.cpp      ****       //main out
 175:fjol.cpp      ****       // left out
 176:fjol.cpp      ****       out[i] = stfilter[0].filter.Low();
 177:fjol.cpp      ****       // right out
 178:fjol.cpp      ****       out[i + 1] = stfilter[1].filter.Low();
 179:fjol.cpp      ****     }
 180:fjol.cpp      **** }
 609              		.loc 7 180 1 view .LVU174
 610 019e BDEC048B 		vldm	sp!, {d8-d9}
 611              		.cfi_restore 82
 612              		.cfi_restore 83
 613              		.cfi_restore 80
 614              		.cfi_restore 81
 615              		.cfi_def_cfa_offset 32
 616 01a2 BDE8F087 		pop	{r4, r5, r6, r7, r8, r9, r10, pc}
 617              	.LVL37:
 618              	.L14:
 619              		.loc 7 180 1 view .LVU175
 620 01a6 00BF     		.align	3
 621              	.L13:
 622 01a8 9A999999 		.word	-1717986918
 623 01ac 9999C93F 		.word	1070176665
 624 01b0 00000000 		.word	.LANCHOR0
 625 01b4 00000000 		.word	ratioindex
ARM GAS  /tmp/ccxnfbgf.s 			page 26


 626 01b8 00000000 		.word	knob_value
 627 01bc 00000000 		.word	.LANCHOR1
 628 01c0 00000000 		.word	.LANCHOR2
 629 01c4 00000000 		.word	param
 630 01c8 60000000 		.word	.LANCHOR0+96
 631 01cc DB0FC940 		.word	1086918619
 632 01d0 30000000 		.word	.LANCHOR0+48
 633 01d4 00000000 		.word	voicefreq
 634 01d8 00000000 		.word	voicetrig
 635              		.cfi_endproc
 636              	.LFE4810:
 638              		.section	.text._Z8glidevalv.part.0,"ax",%progbits
 639              		.align	1
 640              		.p2align 2,,3
 641              		.syntax unified
 642              		.thumb
 643              		.thumb_func
 645              	_Z8glidevalv.part.0:
 646              	.LFB5454:
 181:fjol.cpp      **** 
 182:fjol.cpp      **** 
 183:fjol.cpp      **** int main(void)
 184:fjol.cpp      **** {
 185:fjol.cpp      ****   hw.PrintLine("Initialize started");
 186:fjol.cpp      **** 
 187:fjol.cpp      ****   i2c.Init(i2c_config);
 188:fjol.cpp      **** 
 189:fjol.cpp      ****   initializeadc();
 190:fjol.cpp      ****   //Initialize the adc with the config we just made
 191:fjol.cpp      ****   hw.adc.Init(&adcConfig, 1);
 192:fjol.cpp      **** 
 193:fjol.cpp      ****   hw.Init();
 194:fjol.cpp      ****   hw.SetAudioBlockSize(2);
 195:fjol.cpp      ****   initializecontrols();
 196:fjol.cpp      **** 
 197:fjol.cpp      ****   shift_sw.Debounce();
 198:fjol.cpp      ****   if(shift_sw.Pressed())
 199:fjol.cpp      ****   {
 200:fjol.cpp      ****     calibrate();
 201:fjol.cpp      ****   }
 202:fjol.cpp      ****   
 203:fjol.cpp      ****   updatecontrols();
 204:fjol.cpp      **** 
 205:fjol.cpp      ****   //getorsetsettings(load); //get settings from EEPROM
 206:fjol.cpp      **** 
 207:fjol.cpp      ****   samplerate = hw.AudioSampleRate();
 208:fjol.cpp      ****   initializeaudio();
 209:fjol.cpp      ****   hw.StartAudio(AudioCallback);
 210:fjol.cpp      **** 
 211:fjol.cpp      ****   startPCA9622();
 212:fjol.cpp      **** 
 213:fjol.cpp      ****   for(int i = 0; i<15;i++)
 214:fjol.cpp      ****   {
 215:fjol.cpp      ****     setpwm(i,128);
 216:fjol.cpp      ****     System::Delay(25);
 217:fjol.cpp      ****     setpwm(i,0);
 218:fjol.cpp      ****     System::Delay(25);
ARM GAS  /tmp/ccxnfbgf.s 			page 27


 219:fjol.cpp      ****   }
 220:fjol.cpp      ****   led_update(8);
 221:fjol.cpp      ****   MidiUartHandler::Config midi_config;
 222:fjol.cpp      ****   midi.Init(midi_config);
 223:fjol.cpp      ****   midi.StartReceive();
 224:fjol.cpp      ****   while(1)
 225:fjol.cpp      ****   {
 226:fjol.cpp      ****     updatecontrols();
 227:fjol.cpp      ****     /** Listen to MIDI for new changes */
 228:fjol.cpp      ****     midi.Listen();
 229:fjol.cpp      ****     // Handle MIDI Events
 230:fjol.cpp      ****     while(midi.HasEvents())
 231:fjol.cpp      ****     {
 232:fjol.cpp      ****       HandleMidiMessage(midi.PopEvent());
 233:fjol.cpp      ****     }
 234:fjol.cpp      ****     if(led_takeover == 0)
 235:fjol.cpp      ****     {
 236:fjol.cpp      ****       for(int i = 0;i<8;i++)
 237:fjol.cpp      ****       {
 238:fjol.cpp      ****         if(params_changed[i] == 1 && !(midi_sw.Pressed()) && !(algo_sw.Pressed()) && !(shift_sw.Pre
 239:fjol.cpp      ****         {
 240:fjol.cpp      ****           led_update(i);
 241:fjol.cpp      ****           params_changed[i] = 0; 
 242:fjol.cpp      ****         }
 243:fjol.cpp      ****       } //for ends
 244:fjol.cpp      ****     } //if led takeover ends
 245:fjol.cpp      ****         
 246:fjol.cpp      ****     //if any other UI feature has taken over the LED's then count up to 2 seconds and go back to th
 247:fjol.cpp      ****     if( led_takeover == 1 && ((System::GetNow()- ledlastmillis) >= 500) )
 248:fjol.cpp      ****     {
 249:fjol.cpp      ****        led_takeover = 0;
 250:fjol.cpp      ****       //Serial.println(led_takeover);
 251:fjol.cpp      ****        led_update(8); //update all leds
 252:fjol.cpp      ****     } 
 253:fjol.cpp      ****     
 254:fjol.cpp      ****       //---------glide-------
 255:fjol.cpp      ****     if ((System::GetNow() - lastMillis) >= glidetime)
 256:fjol.cpp      ****     {
 257:fjol.cpp      ****       lastMillis = System::GetNow(); //get ready for the next iteration
 258:fjol.cpp      ****       glideval();
 259:fjol.cpp      ****     }
 260:fjol.cpp      ****   } //while ends
 261:fjol.cpp      ****  hw.PrintLine("OH SHIT, WHILE ENDED!!");
 262:fjol.cpp      **** } //main ends
 263:fjol.cpp      **** 
 264:fjol.cpp      **** 
 265:fjol.cpp      **** float calcright(float theta) //calculate -4.5dB pan law
 266:fjol.cpp      **** {
 267:fjol.cpp      **** 
 268:fjol.cpp      ****   float right = sqrt((theta) * (2 / PI) * sin(theta));
 269:fjol.cpp      ****   //Serial.println(String("Right:") + right);
 270:fjol.cpp      ****   return right;
 271:fjol.cpp      **** }
 272:fjol.cpp      **** 
 273:fjol.cpp      **** float calcleft(float theta) //calculate -4.5dB pan law
 274:fjol.cpp      **** {
 275:fjol.cpp      ****   float left = sqrt((PI / 2 - (theta)) * (2 / PI) * cos(theta));
ARM GAS  /tmp/ccxnfbgf.s 			page 28


 276:fjol.cpp      ****   //Serial.println(String("Left:") + left);
 277:fjol.cpp      ****   return left;
 278:fjol.cpp      **** }
 279:fjol.cpp      **** 
 280:fjol.cpp      **** void updatespread()
 281:fjol.cpp      **** {
 282:fjol.cpp      ****    //spread algorithm starts
 283:fjol.cpp      ****   float righttemp = calcright( ((param[0]/2)+0.5)*PI/2 );
 284:fjol.cpp      ****   float lefttemp = calcleft( ((param[0]/2)+0.5)*PI/2 );
 285:fjol.cpp      ****   voice[0].panL = lefttemp;
 286:fjol.cpp      ****   voice[0].panR = righttemp;
 287:fjol.cpp      ****   voice[3].panL = lefttemp;
 288:fjol.cpp      ****   voice[3].panR = righttemp;
 289:fjol.cpp      **** 
 290:fjol.cpp      ****   righttemp = calcright( (( (1-param[0])/400 ) +0.25)*PI/2 );
 291:fjol.cpp      ****   lefttemp = calcleft( (( (1-param[0])/400 )+0.25)*PI/2 );
 292:fjol.cpp      ****   voice[1].panL = lefttemp;
 293:fjol.cpp      ****   voice[1].panR = righttemp;
 294:fjol.cpp      ****   voice[2].panL = lefttemp;
 295:fjol.cpp      ****   voice[2].panR = righttemp;
 296:fjol.cpp      **** }
 297:fjol.cpp      **** 
 298:fjol.cpp      **** void getorsetsettings(bool getorset)
 299:fjol.cpp      **** {
 300:fjol.cpp      ****   uint8_t eeaddress = 0;
 301:fjol.cpp      **** 
 302:fjol.cpp      ****   data qspidata;
 303:fjol.cpp      ****   if (getorset == load)
 304:fjol.cpp      ****   {
 305:fjol.cpp      ****    
 306:fjol.cpp      ****     for(int i = 0; i<8; i++)
 307:fjol.cpp      ****     {
 308:fjol.cpp      ****       param[i] = qspidata.d_param[i];
 309:fjol.cpp      ****     }
 310:fjol.cpp      ****     enc[0].ctldest = qspidata.d_states[0];
 311:fjol.cpp      ****     enc[0].ctlcvdest = qspidata.d_states[1];
 312:fjol.cpp      ****     enc[1].ctldest = qspidata.d_states[2];
 313:fjol.cpp      ****     enc[1].ctlcvdest = qspidata.d_states[3];
 314:fjol.cpp      ****     algo_select = qspidata.d_states[4];
 315:fjol.cpp      ****     midichannel = qspidata.d_states[5];
 316:fjol.cpp      ****     return;
 317:fjol.cpp      ****   }
 318:fjol.cpp      ****   else if (getorset == save)
 319:fjol.cpp      ****   {
 320:fjol.cpp      ****     // Serial.println(String("saved data to point:")+ eeaddress);
 321:fjol.cpp      ****     // EEPROM.put(0, midichannel);
 322:fjol.cpp      ****     for(int i = 0; i<8; i++)
 323:fjol.cpp      ****     {
 324:fjol.cpp      ****        qspidata.d_param[i] = param[i];
 325:fjol.cpp      ****     }
 326:fjol.cpp      ****     qspidata.d_states[0] = enc[0].ctldest;
 327:fjol.cpp      ****     qspidata.d_states[1] = enc[0].ctlcvdest;
 328:fjol.cpp      ****     qspidata.d_states[2]= enc[1].ctldest;
 329:fjol.cpp      ****     qspidata.d_states[3] = enc[1].ctlcvdest;
 330:fjol.cpp      ****     qspidata.d_states[4] = algo_select;
 331:fjol.cpp      ****     qspidata.d_states[5] = midichannel;
 332:fjol.cpp      ****     //** Erase qspi and then write our new data
ARM GAS  /tmp/ccxnfbgf.s 			page 29


 333:fjol.cpp      ****     // for(int i = 0; i<8;i++)
 334:fjol.cpp      ****     // {
 335:fjol.cpp      ****     //   hw.qspi.Erase(eeaddress, eeaddress);
 336:fjol.cpp      ****     //   hw.qspi.Write(eeaddress, sizeof(qspidata.d_param[i]), qspidata.d_param[i]);
 337:fjol.cpp      ****     //   eeaddress += sizeof(qspidata.d_param[i]);
 338:fjol.cpp      ****     //   System::Delay(1);
 339:fjol.cpp      ****     // }
 340:fjol.cpp      ****     // for(int i = 0; i<6;i++)
 341:fjol.cpp      ****     // {
 342:fjol.cpp      ****     //   hw.qspi.Erase(eeaddress, eeaddress);
 343:fjol.cpp      ****     //   hw.qspi.Write(eeaddress, sizeof(qspidata.d_param[i]), qspidata.d_states[i]);
 344:fjol.cpp      ****     //   eeaddress += sizeof(qspidata.d_param[i]);
 345:fjol.cpp      ****     // }
 346:fjol.cpp      ****     return;
 347:fjol.cpp      ****   }
 348:fjol.cpp      **** } //get or set ends
 349:fjol.cpp      **** 
 350:fjol.cpp      **** void glideval()
 647              		.loc 7 350 6 is_stmt 1 view -0
 648              		.cfi_startproc
 649              		@ args = 0, pretend = 0, frame = 0
 650              		@ frame_needed = 0, uses_anonymous_args = 0
 651              		@ link register save eliminated.
 652              	.LVL38:
 653              	.LBB606:
 351:fjol.cpp      **** {
 352:fjol.cpp      ****   int voicenumb = 4;
 353:fjol.cpp      ****   if (glidetime > 0)
 354:fjol.cpp      ****   {
 355:fjol.cpp      **** 
 356:fjol.cpp      ****     for (int i = 0; i < voicenumb; i++)
 654              		.loc 7 356 23 view .LVU177
 357:fjol.cpp      ****     {
 358:fjol.cpp      ****       if (voicefreqtarget[i] > int(voicefreq[i]))
 359:fjol.cpp      ****       {
 360:fjol.cpp      ****         voicefreq[i] = voicefreq[i] + glide;
 361:fjol.cpp      ****         if (int(voicefreq[i]) > voicefreqtarget[i])
 362:fjol.cpp      ****           voicefreq[i] = voicefreqtarget[i];
 363:fjol.cpp      ****       }
 364:fjol.cpp      ****       else if (voicefreqtarget[i] < int(voicefreq[i]))
 365:fjol.cpp      ****       {
 366:fjol.cpp      ****         voicefreq[i] = voicefreq[i] - glide;
 655              		.loc 7 366 37 is_stmt 0 view .LVU178
 656 0000 1B49     		ldr	r1, .L31
 657 0002 1C4B     		ldr	r3, .L31+4
 658 0004 91ED006A 		vldr.32	s12, [r1]	@ int
 659 0008 1B4A     		ldr	r2, .L31+8
 660 000a 03F11001 		add	r1, r3, #16
 661              	.LVL39:
 662              	.L24:
 358:fjol.cpp      ****       {
 663              		.loc 7 358 7 is_stmt 1 view .LVU179
 360:fjol.cpp      ****         if (int(voicefreq[i]) > voicefreqtarget[i])
 664              		.loc 7 360 9 view .LVU180
 364:fjol.cpp      ****       {
 665              		.loc 7 364 12 view .LVU181
 358:fjol.cpp      ****       {
ARM GAS  /tmp/ccxnfbgf.s 			page 30


 666              		.loc 7 358 47 is_stmt 0 view .LVU182
 667 000e F2EC016A 		vldmia.32	r2!, {s13}
 358:fjol.cpp      ****       {
 668              		.loc 7 358 28 view .LVU183
 669 0012 B3EC017A 		vldmia.32	r3!, {s14}
 358:fjol.cpp      ****       {
 670              		.loc 7 358 32 view .LVU184
 671 0016 FDEEE67A 		vcvt.s32.f32	s15, s13
 358:fjol.cpp      ****       {
 672              		.loc 7 358 30 view .LVU185
 673 001a F8EEE77A 		vcvt.f32.s32	s15, s15
 358:fjol.cpp      ****       {
 674              		.loc 7 358 7 view .LVU186
 675 001e B4EEE77A 		vcmpe.f32	s14, s15
 676 0022 F1EE10FA 		vmrs	APSR_nzcv, FPSCR
 677 0026 11DD     		ble	.L28
 362:fjol.cpp      ****       }
 678              		.loc 7 362 11 is_stmt 1 view .LVU187
 360:fjol.cpp      ****         if (int(voicefreq[i]) > voicefreqtarget[i])
 679              		.loc 7 360 37 is_stmt 0 view .LVU188
 680 0028 F8EEC67A 		vcvt.f32.s32	s15, s12
 681 002c 77EEA66A 		vadd.f32	s13, s15, s13
 361:fjol.cpp      ****           voicefreq[i] = voicefreqtarget[i];
 682              		.loc 7 361 9 is_stmt 1 view .LVU189
 361:fjol.cpp      ****           voicefreq[i] = voicefreqtarget[i];
 683              		.loc 7 361 13 is_stmt 0 view .LVU190
 684 0030 FDEEE67A 		vcvt.s32.f32	s15, s13
 361:fjol.cpp      ****           voicefreq[i] = voicefreqtarget[i];
 685              		.loc 7 361 31 view .LVU191
 686 0034 F8EEE77A 		vcvt.f32.s32	s15, s15
 361:fjol.cpp      ****           voicefreq[i] = voicefreqtarget[i];
 687              		.loc 7 361 9 view .LVU192
 688 0038 B4EEE77A 		vcmpe.f32	s14, s15
 689 003c F1EE10FA 		vmrs	APSR_nzcv, FPSCR
 690 0040 12D4     		bmi	.L29
 691              	.L30:
 692              		.loc 7 366 22 view .LVU193
 693 0042 42ED016A 		vstr.32	s13, [r2, #-4]
 694              	.L19:
 356:fjol.cpp      ****     {
 695              		.loc 7 356 5 is_stmt 1 view .LVU194
 356:fjol.cpp      ****     {
 696              		.loc 7 356 23 view .LVU195
 697 0046 8B42     		cmp	r3, r1
 698 0048 E1D1     		bne	.L24
 699              	.LBE606:
 367:fjol.cpp      ****         if (int(voicefreq[i]) < voicefreqtarget[i])
 368:fjol.cpp      ****           voicefreq[i] = voicefreqtarget[i];
 369:fjol.cpp      ****       }
 370:fjol.cpp      ****       else
 371:fjol.cpp      ****       {
 372:fjol.cpp      ****         voicefreq[i] = voicefreqtarget[i];
 373:fjol.cpp      ****       }
 374:fjol.cpp      ****     }
 375:fjol.cpp      ****   } //if glidetime > 0 ends
 376:fjol.cpp      ****   else if (glidetime == 0)
 377:fjol.cpp      ****   {
ARM GAS  /tmp/ccxnfbgf.s 			page 31


 378:fjol.cpp      ****     for (int i = 0; i < voicenumb; i++)
 379:fjol.cpp      ****     {
 380:fjol.cpp      ****       voicefreq[i] = voicefreqtarget[i];
 381:fjol.cpp      ****     }
 382:fjol.cpp      ****   }
 383:fjol.cpp      **** } //glideval() ends
 700              		.loc 7 383 1 is_stmt 0 view .LVU196
 701 004a 7047     		bx	lr
 702              	.L28:
 703              	.LBB607:
 366:fjol.cpp      ****         if (int(voicefreq[i]) < voicefreqtarget[i])
 704              		.loc 7 366 9 is_stmt 1 view .LVU197
 372:fjol.cpp      ****       }
 705              		.loc 7 372 9 view .LVU198
 364:fjol.cpp      ****       {
 706              		.loc 7 364 12 is_stmt 0 view .LVU199
 707 004c 0CD5     		bpl	.L29
 368:fjol.cpp      ****       }
 708              		.loc 7 368 11 is_stmt 1 view .LVU200
 366:fjol.cpp      ****         if (int(voicefreq[i]) < voicefreqtarget[i])
 709              		.loc 7 366 37 is_stmt 0 view .LVU201
 710 004e F8EEC67A 		vcvt.f32.s32	s15, s12
 711 0052 76EEE76A 		vsub.f32	s13, s13, s15
 367:fjol.cpp      ****           voicefreq[i] = voicefreqtarget[i];
 712              		.loc 7 367 9 is_stmt 1 view .LVU202
 367:fjol.cpp      ****           voicefreq[i] = voicefreqtarget[i];
 713              		.loc 7 367 13 is_stmt 0 view .LVU203
 714 0056 FDEEE67A 		vcvt.s32.f32	s15, s13
 367:fjol.cpp      ****           voicefreq[i] = voicefreqtarget[i];
 715              		.loc 7 367 31 view .LVU204
 716 005a F8EEE77A 		vcvt.f32.s32	s15, s15
 367:fjol.cpp      ****           voicefreq[i] = voicefreqtarget[i];
 717              		.loc 7 367 9 view .LVU205
 718 005e B4EEE77A 		vcmpe.f32	s14, s15
 719 0062 F1EE10FA 		vmrs	APSR_nzcv, FPSCR
 720 0066 ECDD     		ble	.L30
 721              	.L29:
 372:fjol.cpp      ****       }
 722              		.loc 7 372 22 view .LVU206
 723 0068 02ED017A 		vstr.32	s14, [r2, #-4]
 724 006c EBE7     		b	.L19
 725              	.L32:
 726 006e 00BF     		.align	2
 727              	.L31:
 728 0070 00000000 		.word	glide
 729 0074 00000000 		.word	voicefreqtarget
 730 0078 00000000 		.word	voicefreq
 731              	.LBE607:
 732              		.cfi_endproc
 733              	.LFE5454:
 735              		.section	.text.__tcf_6,"ax",%progbits
 736              		.align	1
 737              		.p2align 2,,3
 738              		.syntax unified
 739              		.thumb
 740              		.thumb_func
 742              	__tcf_6:
ARM GAS  /tmp/ccxnfbgf.s 			page 32


 743              	.LFB5466:
 744              		.cfi_startproc
 745              		@ args = 0, pretend = 0, frame = 0
 746              		@ frame_needed = 0, uses_anonymous_args = 0
 747              		@ link register save eliminated.
 748 0000 7047     		bx	lr
 749              		.cfi_endproc
 750              	.LFE5466:
 752 0002 00BF     		.section	.text.__tcf_7,"ax",%progbits
 753              		.align	1
 754              		.p2align 2,,3
 755              		.syntax unified
 756              		.thumb
 757              		.thumb_func
 759              	__tcf_7:
 760              	.LFB5468:
 761              		.cfi_startproc
 762              		@ args = 0, pretend = 0, frame = 0
 763              		@ frame_needed = 0, uses_anonymous_args = 0
 764              		@ link register save eliminated.
 765 0000 7047     		bx	lr
 766              		.cfi_endproc
 767              	.LFE5468:
 769 0002 00BF     		.section	.text.__tcf_1,"ax",%progbits
 770              		.align	1
 771              		.p2align 2,,3
 772              		.syntax unified
 773              		.thumb
 774              		.thumb_func
 776              	__tcf_1:
 777              	.LFB5456:
 778              		.cfi_startproc
 779              		@ args = 0, pretend = 0, frame = 0
 780              		@ frame_needed = 0, uses_anonymous_args = 0
 781              		@ link register save eliminated.
 782 0000 7047     		bx	lr
 783              		.cfi_endproc
 784              	.LFE5456:
 786 0002 00BF     		.section	.text.__tcf_2,"ax",%progbits
 787              		.align	1
 788              		.p2align 2,,3
 789              		.syntax unified
 790              		.thumb
 791              		.thumb_func
 793              	__tcf_2:
 794              	.LFB5458:
 795              		.cfi_startproc
 796              		@ args = 0, pretend = 0, frame = 0
 797              		@ frame_needed = 0, uses_anonymous_args = 0
 798              		@ link register save eliminated.
 799 0000 7047     		bx	lr
 800              		.cfi_endproc
 801              	.LFE5458:
 803 0002 00BF     		.section	.text.__tcf_3,"ax",%progbits
 804              		.align	1
 805              		.p2align 2,,3
 806              		.syntax unified
ARM GAS  /tmp/ccxnfbgf.s 			page 33


 807              		.thumb
 808              		.thumb_func
 810              	__tcf_3:
 811              	.LFB5460:
 812              		.cfi_startproc
 813              		@ args = 0, pretend = 0, frame = 0
 814              		@ frame_needed = 0, uses_anonymous_args = 0
 815              		@ link register save eliminated.
 816 0000 7047     		bx	lr
 817              		.cfi_endproc
 818              	.LFE5460:
 820 0002 00BF     		.section	.text.__tcf_4,"ax",%progbits
 821              		.align	1
 822              		.p2align 2,,3
 823              		.syntax unified
 824              		.thumb
 825              		.thumb_func
 827              	__tcf_4:
 828              	.LFB5462:
 829              		.cfi_startproc
 830              		@ args = 0, pretend = 0, frame = 0
 831              		@ frame_needed = 0, uses_anonymous_args = 0
 832              		@ link register save eliminated.
 833 0000 7047     		bx	lr
 834              		.cfi_endproc
 835              	.LFE5462:
 837 0002 00BF     		.section	.text.__tcf_5,"ax",%progbits
 838              		.align	1
 839              		.p2align 2,,3
 840              		.syntax unified
 841              		.thumb
 842              		.thumb_func
 844              	__tcf_5:
 845              	.LFB5464:
 846              		.cfi_startproc
 847              		@ args = 0, pretend = 0, frame = 0
 848              		@ frame_needed = 0, uses_anonymous_args = 0
 849              		@ link register save eliminated.
 850 0000 7047     		bx	lr
 851              		.cfi_endproc
 852              	.LFE5464:
 854 0002 00BF     		.section	.text._Z9calcrightf,"ax",%progbits
 855              		.align	1
 856              		.p2align 2,,3
 857              		.global	_Z9calcrightf
 858              		.syntax unified
 859              		.thumb
 860              		.thumb_func
 862              	_Z9calcrightf:
 863              	.LVL40:
 864              	.LFB4815:
 266:fjol.cpp      **** 
 865              		.loc 7 266 1 is_stmt 1 view -0
 866              		.cfi_startproc
 867              		@ args = 0, pretend = 0, frame = 0
 868              		@ frame_needed = 0, uses_anonymous_args = 0
 268:fjol.cpp      ****   //Serial.println(String("Right:") + right);
ARM GAS  /tmp/ccxnfbgf.s 			page 34


 869              		.loc 7 268 3 view .LVU208
 266:fjol.cpp      **** 
 870              		.loc 7 266 1 is_stmt 0 view .LVU209
 871 0000 08B5     		push	{r3, lr}
 872              		.cfi_def_cfa_offset 8
 873              		.cfi_offset 3, -8
 874              		.cfi_offset 14, -4
 875 0002 2DED028B 		vpush.64	{d8}
 876              		.cfi_def_cfa_offset 16
 877              		.cfi_offset 80, -16
 878              		.cfi_offset 81, -12
 266:fjol.cpp      **** 
 879              		.loc 7 266 1 view .LVU210
 880 0006 B0EE408A 		vmov.f32	s16, s0
 881              	.LVL41:
 882              	.LBB610:
 883              	.LBI610:
 884              		.file 11 "/home/hallmar/Developer/gcc-arm-none-eabi-10.3-2021.10/arm-none-eabi/include/c++/10.3.1/
   1:/home/hallmar/Developer/gcc-arm-none-eabi-10.3-2021.10/arm-none-eabi/include/c++/10.3.1/cmath **** // -*- C++ -*- C forwarding header.
   2:/home/hallmar/Developer/gcc-arm-none-eabi-10.3-2021.10/arm-none-eabi/include/c++/10.3.1/cmath **** 
   3:/home/hallmar/Developer/gcc-arm-none-eabi-10.3-2021.10/arm-none-eabi/include/c++/10.3.1/cmath **** // Copyright (C) 1997-2020 Free Software Foundation, Inc.
   4:/home/hallmar/Developer/gcc-arm-none-eabi-10.3-2021.10/arm-none-eabi/include/c++/10.3.1/cmath **** //
   5:/home/hallmar/Developer/gcc-arm-none-eabi-10.3-2021.10/arm-none-eabi/include/c++/10.3.1/cmath **** // This file is part of the GNU ISO C++ Library.  This library is free
   6:/home/hallmar/Developer/gcc-arm-none-eabi-10.3-2021.10/arm-none-eabi/include/c++/10.3.1/cmath **** // software; you can redistribute it and/or modify it under the
   7:/home/hallmar/Developer/gcc-arm-none-eabi-10.3-2021.10/arm-none-eabi/include/c++/10.3.1/cmath **** // terms of the GNU General Public License as published by the
   8:/home/hallmar/Developer/gcc-arm-none-eabi-10.3-2021.10/arm-none-eabi/include/c++/10.3.1/cmath **** // Free Software Foundation; either version 3, or (at your option)
   9:/home/hallmar/Developer/gcc-arm-none-eabi-10.3-2021.10/arm-none-eabi/include/c++/10.3.1/cmath **** // any later version.
  10:/home/hallmar/Developer/gcc-arm-none-eabi-10.3-2021.10/arm-none-eabi/include/c++/10.3.1/cmath **** 
  11:/home/hallmar/Developer/gcc-arm-none-eabi-10.3-2021.10/arm-none-eabi/include/c++/10.3.1/cmath **** // This library is distributed in the hope that it will be useful,
  12:/home/hallmar/Developer/gcc-arm-none-eabi-10.3-2021.10/arm-none-eabi/include/c++/10.3.1/cmath **** // but WITHOUT ANY WARRANTY; without even the implied warranty of
  13:/home/hallmar/Developer/gcc-arm-none-eabi-10.3-2021.10/arm-none-eabi/include/c++/10.3.1/cmath **** // MERCHANTABILITY or FITNESS FOR A PARTICULAR PURPOSE.  See the
  14:/home/hallmar/Developer/gcc-arm-none-eabi-10.3-2021.10/arm-none-eabi/include/c++/10.3.1/cmath **** // GNU General Public License for more details.
  15:/home/hallmar/Developer/gcc-arm-none-eabi-10.3-2021.10/arm-none-eabi/include/c++/10.3.1/cmath **** 
  16:/home/hallmar/Developer/gcc-arm-none-eabi-10.3-2021.10/arm-none-eabi/include/c++/10.3.1/cmath **** // Under Section 7 of GPL version 3, you are granted additional
  17:/home/hallmar/Developer/gcc-arm-none-eabi-10.3-2021.10/arm-none-eabi/include/c++/10.3.1/cmath **** // permissions described in the GCC Runtime Library Exception, version
  18:/home/hallmar/Developer/gcc-arm-none-eabi-10.3-2021.10/arm-none-eabi/include/c++/10.3.1/cmath **** // 3.1, as published by the Free Software Foundation.
  19:/home/hallmar/Developer/gcc-arm-none-eabi-10.3-2021.10/arm-none-eabi/include/c++/10.3.1/cmath **** 
  20:/home/hallmar/Developer/gcc-arm-none-eabi-10.3-2021.10/arm-none-eabi/include/c++/10.3.1/cmath **** // You should have received a copy of the GNU General Public License and
  21:/home/hallmar/Developer/gcc-arm-none-eabi-10.3-2021.10/arm-none-eabi/include/c++/10.3.1/cmath **** // a copy of the GCC Runtime Library Exception along with this program;
  22:/home/hallmar/Developer/gcc-arm-none-eabi-10.3-2021.10/arm-none-eabi/include/c++/10.3.1/cmath **** // see the files COPYING3 and COPYING.RUNTIME respectively.  If not, see
  23:/home/hallmar/Developer/gcc-arm-none-eabi-10.3-2021.10/arm-none-eabi/include/c++/10.3.1/cmath **** // <http://www.gnu.org/licenses/>.
  24:/home/hallmar/Developer/gcc-arm-none-eabi-10.3-2021.10/arm-none-eabi/include/c++/10.3.1/cmath **** 
  25:/home/hallmar/Developer/gcc-arm-none-eabi-10.3-2021.10/arm-none-eabi/include/c++/10.3.1/cmath **** /** @file include/cmath
  26:/home/hallmar/Developer/gcc-arm-none-eabi-10.3-2021.10/arm-none-eabi/include/c++/10.3.1/cmath ****  *  This is a Standard C++ Library file.  You should @c \#include this file
  27:/home/hallmar/Developer/gcc-arm-none-eabi-10.3-2021.10/arm-none-eabi/include/c++/10.3.1/cmath ****  *  in your programs, rather than any of the @a *.h implementation files.
  28:/home/hallmar/Developer/gcc-arm-none-eabi-10.3-2021.10/arm-none-eabi/include/c++/10.3.1/cmath ****  *
  29:/home/hallmar/Developer/gcc-arm-none-eabi-10.3-2021.10/arm-none-eabi/include/c++/10.3.1/cmath ****  *  This is the C++ version of the Standard C Library header @c math.h,
  30:/home/hallmar/Developer/gcc-arm-none-eabi-10.3-2021.10/arm-none-eabi/include/c++/10.3.1/cmath ****  *  and its contents are (mostly) the same as that header, but are all
  31:/home/hallmar/Developer/gcc-arm-none-eabi-10.3-2021.10/arm-none-eabi/include/c++/10.3.1/cmath ****  *  contained in the namespace @c std (except for names which are defined
  32:/home/hallmar/Developer/gcc-arm-none-eabi-10.3-2021.10/arm-none-eabi/include/c++/10.3.1/cmath ****  *  as macros in C).
  33:/home/hallmar/Developer/gcc-arm-none-eabi-10.3-2021.10/arm-none-eabi/include/c++/10.3.1/cmath ****  */
  34:/home/hallmar/Developer/gcc-arm-none-eabi-10.3-2021.10/arm-none-eabi/include/c++/10.3.1/cmath **** 
  35:/home/hallmar/Developer/gcc-arm-none-eabi-10.3-2021.10/arm-none-eabi/include/c++/10.3.1/cmath **** //
  36:/home/hallmar/Developer/gcc-arm-none-eabi-10.3-2021.10/arm-none-eabi/include/c++/10.3.1/cmath **** // ISO C++ 14882: 26.5  C library
  37:/home/hallmar/Developer/gcc-arm-none-eabi-10.3-2021.10/arm-none-eabi/include/c++/10.3.1/cmath **** //
  38:/home/hallmar/Developer/gcc-arm-none-eabi-10.3-2021.10/arm-none-eabi/include/c++/10.3.1/cmath **** 
  39:/home/hallmar/Developer/gcc-arm-none-eabi-10.3-2021.10/arm-none-eabi/include/c++/10.3.1/cmath **** #pragma GCC system_header
ARM GAS  /tmp/ccxnfbgf.s 			page 35


  40:/home/hallmar/Developer/gcc-arm-none-eabi-10.3-2021.10/arm-none-eabi/include/c++/10.3.1/cmath **** 
  41:/home/hallmar/Developer/gcc-arm-none-eabi-10.3-2021.10/arm-none-eabi/include/c++/10.3.1/cmath **** #include <bits/c++config.h>
  42:/home/hallmar/Developer/gcc-arm-none-eabi-10.3-2021.10/arm-none-eabi/include/c++/10.3.1/cmath **** #include <bits/cpp_type_traits.h>
  43:/home/hallmar/Developer/gcc-arm-none-eabi-10.3-2021.10/arm-none-eabi/include/c++/10.3.1/cmath **** #include <ext/type_traits.h>
  44:/home/hallmar/Developer/gcc-arm-none-eabi-10.3-2021.10/arm-none-eabi/include/c++/10.3.1/cmath **** #define _GLIBCXX_INCLUDE_NEXT_C_HEADERS
  45:/home/hallmar/Developer/gcc-arm-none-eabi-10.3-2021.10/arm-none-eabi/include/c++/10.3.1/cmath **** #include_next <math.h>
  46:/home/hallmar/Developer/gcc-arm-none-eabi-10.3-2021.10/arm-none-eabi/include/c++/10.3.1/cmath **** #undef _GLIBCXX_INCLUDE_NEXT_C_HEADERS
  47:/home/hallmar/Developer/gcc-arm-none-eabi-10.3-2021.10/arm-none-eabi/include/c++/10.3.1/cmath **** #include <bits/std_abs.h>
  48:/home/hallmar/Developer/gcc-arm-none-eabi-10.3-2021.10/arm-none-eabi/include/c++/10.3.1/cmath **** 
  49:/home/hallmar/Developer/gcc-arm-none-eabi-10.3-2021.10/arm-none-eabi/include/c++/10.3.1/cmath **** #ifndef _GLIBCXX_CMATH
  50:/home/hallmar/Developer/gcc-arm-none-eabi-10.3-2021.10/arm-none-eabi/include/c++/10.3.1/cmath **** #define _GLIBCXX_CMATH 1
  51:/home/hallmar/Developer/gcc-arm-none-eabi-10.3-2021.10/arm-none-eabi/include/c++/10.3.1/cmath **** 
  52:/home/hallmar/Developer/gcc-arm-none-eabi-10.3-2021.10/arm-none-eabi/include/c++/10.3.1/cmath **** // Get rid of those macros defined in <math.h> in lieu of real functions.
  53:/home/hallmar/Developer/gcc-arm-none-eabi-10.3-2021.10/arm-none-eabi/include/c++/10.3.1/cmath **** #undef div
  54:/home/hallmar/Developer/gcc-arm-none-eabi-10.3-2021.10/arm-none-eabi/include/c++/10.3.1/cmath **** #undef acos
  55:/home/hallmar/Developer/gcc-arm-none-eabi-10.3-2021.10/arm-none-eabi/include/c++/10.3.1/cmath **** #undef asin
  56:/home/hallmar/Developer/gcc-arm-none-eabi-10.3-2021.10/arm-none-eabi/include/c++/10.3.1/cmath **** #undef atan
  57:/home/hallmar/Developer/gcc-arm-none-eabi-10.3-2021.10/arm-none-eabi/include/c++/10.3.1/cmath **** #undef atan2
  58:/home/hallmar/Developer/gcc-arm-none-eabi-10.3-2021.10/arm-none-eabi/include/c++/10.3.1/cmath **** #undef ceil
  59:/home/hallmar/Developer/gcc-arm-none-eabi-10.3-2021.10/arm-none-eabi/include/c++/10.3.1/cmath **** #undef cos
  60:/home/hallmar/Developer/gcc-arm-none-eabi-10.3-2021.10/arm-none-eabi/include/c++/10.3.1/cmath **** #undef cosh
  61:/home/hallmar/Developer/gcc-arm-none-eabi-10.3-2021.10/arm-none-eabi/include/c++/10.3.1/cmath **** #undef exp
  62:/home/hallmar/Developer/gcc-arm-none-eabi-10.3-2021.10/arm-none-eabi/include/c++/10.3.1/cmath **** #undef fabs
  63:/home/hallmar/Developer/gcc-arm-none-eabi-10.3-2021.10/arm-none-eabi/include/c++/10.3.1/cmath **** #undef floor
  64:/home/hallmar/Developer/gcc-arm-none-eabi-10.3-2021.10/arm-none-eabi/include/c++/10.3.1/cmath **** #undef fmod
  65:/home/hallmar/Developer/gcc-arm-none-eabi-10.3-2021.10/arm-none-eabi/include/c++/10.3.1/cmath **** #undef frexp
  66:/home/hallmar/Developer/gcc-arm-none-eabi-10.3-2021.10/arm-none-eabi/include/c++/10.3.1/cmath **** #undef ldexp
  67:/home/hallmar/Developer/gcc-arm-none-eabi-10.3-2021.10/arm-none-eabi/include/c++/10.3.1/cmath **** #undef log
  68:/home/hallmar/Developer/gcc-arm-none-eabi-10.3-2021.10/arm-none-eabi/include/c++/10.3.1/cmath **** #undef log10
  69:/home/hallmar/Developer/gcc-arm-none-eabi-10.3-2021.10/arm-none-eabi/include/c++/10.3.1/cmath **** #undef modf
  70:/home/hallmar/Developer/gcc-arm-none-eabi-10.3-2021.10/arm-none-eabi/include/c++/10.3.1/cmath **** #undef pow
  71:/home/hallmar/Developer/gcc-arm-none-eabi-10.3-2021.10/arm-none-eabi/include/c++/10.3.1/cmath **** #undef sin
  72:/home/hallmar/Developer/gcc-arm-none-eabi-10.3-2021.10/arm-none-eabi/include/c++/10.3.1/cmath **** #undef sinh
  73:/home/hallmar/Developer/gcc-arm-none-eabi-10.3-2021.10/arm-none-eabi/include/c++/10.3.1/cmath **** #undef sqrt
  74:/home/hallmar/Developer/gcc-arm-none-eabi-10.3-2021.10/arm-none-eabi/include/c++/10.3.1/cmath **** #undef tan
  75:/home/hallmar/Developer/gcc-arm-none-eabi-10.3-2021.10/arm-none-eabi/include/c++/10.3.1/cmath **** #undef tanh
  76:/home/hallmar/Developer/gcc-arm-none-eabi-10.3-2021.10/arm-none-eabi/include/c++/10.3.1/cmath **** 
  77:/home/hallmar/Developer/gcc-arm-none-eabi-10.3-2021.10/arm-none-eabi/include/c++/10.3.1/cmath **** extern "C++"
  78:/home/hallmar/Developer/gcc-arm-none-eabi-10.3-2021.10/arm-none-eabi/include/c++/10.3.1/cmath **** {
  79:/home/hallmar/Developer/gcc-arm-none-eabi-10.3-2021.10/arm-none-eabi/include/c++/10.3.1/cmath **** namespace std _GLIBCXX_VISIBILITY(default)
  80:/home/hallmar/Developer/gcc-arm-none-eabi-10.3-2021.10/arm-none-eabi/include/c++/10.3.1/cmath **** {
  81:/home/hallmar/Developer/gcc-arm-none-eabi-10.3-2021.10/arm-none-eabi/include/c++/10.3.1/cmath **** _GLIBCXX_BEGIN_NAMESPACE_VERSION
  82:/home/hallmar/Developer/gcc-arm-none-eabi-10.3-2021.10/arm-none-eabi/include/c++/10.3.1/cmath **** 
  83:/home/hallmar/Developer/gcc-arm-none-eabi-10.3-2021.10/arm-none-eabi/include/c++/10.3.1/cmath ****   using ::acos;
  84:/home/hallmar/Developer/gcc-arm-none-eabi-10.3-2021.10/arm-none-eabi/include/c++/10.3.1/cmath **** 
  85:/home/hallmar/Developer/gcc-arm-none-eabi-10.3-2021.10/arm-none-eabi/include/c++/10.3.1/cmath **** #ifndef __CORRECT_ISO_CPP_MATH_H_PROTO
  86:/home/hallmar/Developer/gcc-arm-none-eabi-10.3-2021.10/arm-none-eabi/include/c++/10.3.1/cmath ****   inline _GLIBCXX_CONSTEXPR float
  87:/home/hallmar/Developer/gcc-arm-none-eabi-10.3-2021.10/arm-none-eabi/include/c++/10.3.1/cmath ****   acos(float __x)
  88:/home/hallmar/Developer/gcc-arm-none-eabi-10.3-2021.10/arm-none-eabi/include/c++/10.3.1/cmath ****   { return __builtin_acosf(__x); }
  89:/home/hallmar/Developer/gcc-arm-none-eabi-10.3-2021.10/arm-none-eabi/include/c++/10.3.1/cmath **** 
  90:/home/hallmar/Developer/gcc-arm-none-eabi-10.3-2021.10/arm-none-eabi/include/c++/10.3.1/cmath ****   inline _GLIBCXX_CONSTEXPR long double
  91:/home/hallmar/Developer/gcc-arm-none-eabi-10.3-2021.10/arm-none-eabi/include/c++/10.3.1/cmath ****   acos(long double __x)
  92:/home/hallmar/Developer/gcc-arm-none-eabi-10.3-2021.10/arm-none-eabi/include/c++/10.3.1/cmath ****   { return __builtin_acosl(__x); }
  93:/home/hallmar/Developer/gcc-arm-none-eabi-10.3-2021.10/arm-none-eabi/include/c++/10.3.1/cmath **** #endif
  94:/home/hallmar/Developer/gcc-arm-none-eabi-10.3-2021.10/arm-none-eabi/include/c++/10.3.1/cmath **** 
  95:/home/hallmar/Developer/gcc-arm-none-eabi-10.3-2021.10/arm-none-eabi/include/c++/10.3.1/cmath ****   template<typename _Tp>
  96:/home/hallmar/Developer/gcc-arm-none-eabi-10.3-2021.10/arm-none-eabi/include/c++/10.3.1/cmath ****     inline _GLIBCXX_CONSTEXPR
ARM GAS  /tmp/ccxnfbgf.s 			page 36


  97:/home/hallmar/Developer/gcc-arm-none-eabi-10.3-2021.10/arm-none-eabi/include/c++/10.3.1/cmath ****     typename __gnu_cxx::__enable_if<__is_integer<_Tp>::__value, 
  98:/home/hallmar/Developer/gcc-arm-none-eabi-10.3-2021.10/arm-none-eabi/include/c++/10.3.1/cmath ****                                     double>::__type
  99:/home/hallmar/Developer/gcc-arm-none-eabi-10.3-2021.10/arm-none-eabi/include/c++/10.3.1/cmath ****     acos(_Tp __x)
 100:/home/hallmar/Developer/gcc-arm-none-eabi-10.3-2021.10/arm-none-eabi/include/c++/10.3.1/cmath ****     { return __builtin_acos(__x); }
 101:/home/hallmar/Developer/gcc-arm-none-eabi-10.3-2021.10/arm-none-eabi/include/c++/10.3.1/cmath **** 
 102:/home/hallmar/Developer/gcc-arm-none-eabi-10.3-2021.10/arm-none-eabi/include/c++/10.3.1/cmath ****   using ::asin;
 103:/home/hallmar/Developer/gcc-arm-none-eabi-10.3-2021.10/arm-none-eabi/include/c++/10.3.1/cmath **** 
 104:/home/hallmar/Developer/gcc-arm-none-eabi-10.3-2021.10/arm-none-eabi/include/c++/10.3.1/cmath **** #ifndef __CORRECT_ISO_CPP_MATH_H_PROTO
 105:/home/hallmar/Developer/gcc-arm-none-eabi-10.3-2021.10/arm-none-eabi/include/c++/10.3.1/cmath ****   inline _GLIBCXX_CONSTEXPR float
 106:/home/hallmar/Developer/gcc-arm-none-eabi-10.3-2021.10/arm-none-eabi/include/c++/10.3.1/cmath ****   asin(float __x)
 107:/home/hallmar/Developer/gcc-arm-none-eabi-10.3-2021.10/arm-none-eabi/include/c++/10.3.1/cmath ****   { return __builtin_asinf(__x); }
 108:/home/hallmar/Developer/gcc-arm-none-eabi-10.3-2021.10/arm-none-eabi/include/c++/10.3.1/cmath **** 
 109:/home/hallmar/Developer/gcc-arm-none-eabi-10.3-2021.10/arm-none-eabi/include/c++/10.3.1/cmath ****   inline _GLIBCXX_CONSTEXPR long double
 110:/home/hallmar/Developer/gcc-arm-none-eabi-10.3-2021.10/arm-none-eabi/include/c++/10.3.1/cmath ****   asin(long double __x)
 111:/home/hallmar/Developer/gcc-arm-none-eabi-10.3-2021.10/arm-none-eabi/include/c++/10.3.1/cmath ****   { return __builtin_asinl(__x); }
 112:/home/hallmar/Developer/gcc-arm-none-eabi-10.3-2021.10/arm-none-eabi/include/c++/10.3.1/cmath **** #endif
 113:/home/hallmar/Developer/gcc-arm-none-eabi-10.3-2021.10/arm-none-eabi/include/c++/10.3.1/cmath **** 
 114:/home/hallmar/Developer/gcc-arm-none-eabi-10.3-2021.10/arm-none-eabi/include/c++/10.3.1/cmath ****   template<typename _Tp>
 115:/home/hallmar/Developer/gcc-arm-none-eabi-10.3-2021.10/arm-none-eabi/include/c++/10.3.1/cmath ****     inline _GLIBCXX_CONSTEXPR
 116:/home/hallmar/Developer/gcc-arm-none-eabi-10.3-2021.10/arm-none-eabi/include/c++/10.3.1/cmath ****     typename __gnu_cxx::__enable_if<__is_integer<_Tp>::__value,
 117:/home/hallmar/Developer/gcc-arm-none-eabi-10.3-2021.10/arm-none-eabi/include/c++/10.3.1/cmath ****                                     double>::__type
 118:/home/hallmar/Developer/gcc-arm-none-eabi-10.3-2021.10/arm-none-eabi/include/c++/10.3.1/cmath ****     asin(_Tp __x)
 119:/home/hallmar/Developer/gcc-arm-none-eabi-10.3-2021.10/arm-none-eabi/include/c++/10.3.1/cmath ****     { return __builtin_asin(__x); }
 120:/home/hallmar/Developer/gcc-arm-none-eabi-10.3-2021.10/arm-none-eabi/include/c++/10.3.1/cmath **** 
 121:/home/hallmar/Developer/gcc-arm-none-eabi-10.3-2021.10/arm-none-eabi/include/c++/10.3.1/cmath ****   using ::atan;
 122:/home/hallmar/Developer/gcc-arm-none-eabi-10.3-2021.10/arm-none-eabi/include/c++/10.3.1/cmath **** 
 123:/home/hallmar/Developer/gcc-arm-none-eabi-10.3-2021.10/arm-none-eabi/include/c++/10.3.1/cmath **** #ifndef __CORRECT_ISO_CPP_MATH_H_PROTO
 124:/home/hallmar/Developer/gcc-arm-none-eabi-10.3-2021.10/arm-none-eabi/include/c++/10.3.1/cmath ****   inline _GLIBCXX_CONSTEXPR float
 125:/home/hallmar/Developer/gcc-arm-none-eabi-10.3-2021.10/arm-none-eabi/include/c++/10.3.1/cmath ****   atan(float __x)
 126:/home/hallmar/Developer/gcc-arm-none-eabi-10.3-2021.10/arm-none-eabi/include/c++/10.3.1/cmath ****   { return __builtin_atanf(__x); }
 127:/home/hallmar/Developer/gcc-arm-none-eabi-10.3-2021.10/arm-none-eabi/include/c++/10.3.1/cmath **** 
 128:/home/hallmar/Developer/gcc-arm-none-eabi-10.3-2021.10/arm-none-eabi/include/c++/10.3.1/cmath ****   inline _GLIBCXX_CONSTEXPR long double
 129:/home/hallmar/Developer/gcc-arm-none-eabi-10.3-2021.10/arm-none-eabi/include/c++/10.3.1/cmath ****   atan(long double __x)
 130:/home/hallmar/Developer/gcc-arm-none-eabi-10.3-2021.10/arm-none-eabi/include/c++/10.3.1/cmath ****   { return __builtin_atanl(__x); }
 131:/home/hallmar/Developer/gcc-arm-none-eabi-10.3-2021.10/arm-none-eabi/include/c++/10.3.1/cmath **** #endif
 132:/home/hallmar/Developer/gcc-arm-none-eabi-10.3-2021.10/arm-none-eabi/include/c++/10.3.1/cmath **** 
 133:/home/hallmar/Developer/gcc-arm-none-eabi-10.3-2021.10/arm-none-eabi/include/c++/10.3.1/cmath ****   template<typename _Tp>
 134:/home/hallmar/Developer/gcc-arm-none-eabi-10.3-2021.10/arm-none-eabi/include/c++/10.3.1/cmath ****     inline _GLIBCXX_CONSTEXPR
 135:/home/hallmar/Developer/gcc-arm-none-eabi-10.3-2021.10/arm-none-eabi/include/c++/10.3.1/cmath ****     typename __gnu_cxx::__enable_if<__is_integer<_Tp>::__value,
 136:/home/hallmar/Developer/gcc-arm-none-eabi-10.3-2021.10/arm-none-eabi/include/c++/10.3.1/cmath ****                                     double>::__type
 137:/home/hallmar/Developer/gcc-arm-none-eabi-10.3-2021.10/arm-none-eabi/include/c++/10.3.1/cmath ****     atan(_Tp __x)
 138:/home/hallmar/Developer/gcc-arm-none-eabi-10.3-2021.10/arm-none-eabi/include/c++/10.3.1/cmath ****     { return __builtin_atan(__x); }
 139:/home/hallmar/Developer/gcc-arm-none-eabi-10.3-2021.10/arm-none-eabi/include/c++/10.3.1/cmath **** 
 140:/home/hallmar/Developer/gcc-arm-none-eabi-10.3-2021.10/arm-none-eabi/include/c++/10.3.1/cmath ****   using ::atan2;
 141:/home/hallmar/Developer/gcc-arm-none-eabi-10.3-2021.10/arm-none-eabi/include/c++/10.3.1/cmath **** 
 142:/home/hallmar/Developer/gcc-arm-none-eabi-10.3-2021.10/arm-none-eabi/include/c++/10.3.1/cmath **** #ifndef __CORRECT_ISO_CPP_MATH_H_PROTO
 143:/home/hallmar/Developer/gcc-arm-none-eabi-10.3-2021.10/arm-none-eabi/include/c++/10.3.1/cmath ****   inline _GLIBCXX_CONSTEXPR float
 144:/home/hallmar/Developer/gcc-arm-none-eabi-10.3-2021.10/arm-none-eabi/include/c++/10.3.1/cmath ****   atan2(float __y, float __x)
 145:/home/hallmar/Developer/gcc-arm-none-eabi-10.3-2021.10/arm-none-eabi/include/c++/10.3.1/cmath ****   { return __builtin_atan2f(__y, __x); }
 146:/home/hallmar/Developer/gcc-arm-none-eabi-10.3-2021.10/arm-none-eabi/include/c++/10.3.1/cmath **** 
 147:/home/hallmar/Developer/gcc-arm-none-eabi-10.3-2021.10/arm-none-eabi/include/c++/10.3.1/cmath ****   inline _GLIBCXX_CONSTEXPR long double
 148:/home/hallmar/Developer/gcc-arm-none-eabi-10.3-2021.10/arm-none-eabi/include/c++/10.3.1/cmath ****   atan2(long double __y, long double __x)
 149:/home/hallmar/Developer/gcc-arm-none-eabi-10.3-2021.10/arm-none-eabi/include/c++/10.3.1/cmath ****   { return __builtin_atan2l(__y, __x); }
 150:/home/hallmar/Developer/gcc-arm-none-eabi-10.3-2021.10/arm-none-eabi/include/c++/10.3.1/cmath **** #endif
 151:/home/hallmar/Developer/gcc-arm-none-eabi-10.3-2021.10/arm-none-eabi/include/c++/10.3.1/cmath **** 
 152:/home/hallmar/Developer/gcc-arm-none-eabi-10.3-2021.10/arm-none-eabi/include/c++/10.3.1/cmath ****   template<typename _Tp, typename _Up>
 153:/home/hallmar/Developer/gcc-arm-none-eabi-10.3-2021.10/arm-none-eabi/include/c++/10.3.1/cmath ****     inline _GLIBCXX_CONSTEXPR
ARM GAS  /tmp/ccxnfbgf.s 			page 37


 154:/home/hallmar/Developer/gcc-arm-none-eabi-10.3-2021.10/arm-none-eabi/include/c++/10.3.1/cmath ****     typename __gnu_cxx::__promote_2<_Tp, _Up>::__type
 155:/home/hallmar/Developer/gcc-arm-none-eabi-10.3-2021.10/arm-none-eabi/include/c++/10.3.1/cmath ****     atan2(_Tp __y, _Up __x)
 156:/home/hallmar/Developer/gcc-arm-none-eabi-10.3-2021.10/arm-none-eabi/include/c++/10.3.1/cmath ****     {
 157:/home/hallmar/Developer/gcc-arm-none-eabi-10.3-2021.10/arm-none-eabi/include/c++/10.3.1/cmath ****       typedef typename __gnu_cxx::__promote_2<_Tp, _Up>::__type __type;
 158:/home/hallmar/Developer/gcc-arm-none-eabi-10.3-2021.10/arm-none-eabi/include/c++/10.3.1/cmath ****       return atan2(__type(__y), __type(__x));
 159:/home/hallmar/Developer/gcc-arm-none-eabi-10.3-2021.10/arm-none-eabi/include/c++/10.3.1/cmath ****     }
 160:/home/hallmar/Developer/gcc-arm-none-eabi-10.3-2021.10/arm-none-eabi/include/c++/10.3.1/cmath **** 
 161:/home/hallmar/Developer/gcc-arm-none-eabi-10.3-2021.10/arm-none-eabi/include/c++/10.3.1/cmath ****   using ::ceil;
 162:/home/hallmar/Developer/gcc-arm-none-eabi-10.3-2021.10/arm-none-eabi/include/c++/10.3.1/cmath **** 
 163:/home/hallmar/Developer/gcc-arm-none-eabi-10.3-2021.10/arm-none-eabi/include/c++/10.3.1/cmath **** #ifndef __CORRECT_ISO_CPP_MATH_H_PROTO
 164:/home/hallmar/Developer/gcc-arm-none-eabi-10.3-2021.10/arm-none-eabi/include/c++/10.3.1/cmath ****   inline _GLIBCXX_CONSTEXPR float
 165:/home/hallmar/Developer/gcc-arm-none-eabi-10.3-2021.10/arm-none-eabi/include/c++/10.3.1/cmath ****   ceil(float __x)
 166:/home/hallmar/Developer/gcc-arm-none-eabi-10.3-2021.10/arm-none-eabi/include/c++/10.3.1/cmath ****   { return __builtin_ceilf(__x); }
 167:/home/hallmar/Developer/gcc-arm-none-eabi-10.3-2021.10/arm-none-eabi/include/c++/10.3.1/cmath **** 
 168:/home/hallmar/Developer/gcc-arm-none-eabi-10.3-2021.10/arm-none-eabi/include/c++/10.3.1/cmath ****   inline _GLIBCXX_CONSTEXPR long double
 169:/home/hallmar/Developer/gcc-arm-none-eabi-10.3-2021.10/arm-none-eabi/include/c++/10.3.1/cmath ****   ceil(long double __x)
 170:/home/hallmar/Developer/gcc-arm-none-eabi-10.3-2021.10/arm-none-eabi/include/c++/10.3.1/cmath ****   { return __builtin_ceill(__x); }
 171:/home/hallmar/Developer/gcc-arm-none-eabi-10.3-2021.10/arm-none-eabi/include/c++/10.3.1/cmath **** #endif
 172:/home/hallmar/Developer/gcc-arm-none-eabi-10.3-2021.10/arm-none-eabi/include/c++/10.3.1/cmath **** 
 173:/home/hallmar/Developer/gcc-arm-none-eabi-10.3-2021.10/arm-none-eabi/include/c++/10.3.1/cmath ****   template<typename _Tp>
 174:/home/hallmar/Developer/gcc-arm-none-eabi-10.3-2021.10/arm-none-eabi/include/c++/10.3.1/cmath ****     inline _GLIBCXX_CONSTEXPR
 175:/home/hallmar/Developer/gcc-arm-none-eabi-10.3-2021.10/arm-none-eabi/include/c++/10.3.1/cmath ****     typename __gnu_cxx::__enable_if<__is_integer<_Tp>::__value, 
 176:/home/hallmar/Developer/gcc-arm-none-eabi-10.3-2021.10/arm-none-eabi/include/c++/10.3.1/cmath ****                                     double>::__type
 177:/home/hallmar/Developer/gcc-arm-none-eabi-10.3-2021.10/arm-none-eabi/include/c++/10.3.1/cmath ****     ceil(_Tp __x)
 178:/home/hallmar/Developer/gcc-arm-none-eabi-10.3-2021.10/arm-none-eabi/include/c++/10.3.1/cmath ****     { return __builtin_ceil(__x); }
 179:/home/hallmar/Developer/gcc-arm-none-eabi-10.3-2021.10/arm-none-eabi/include/c++/10.3.1/cmath **** 
 180:/home/hallmar/Developer/gcc-arm-none-eabi-10.3-2021.10/arm-none-eabi/include/c++/10.3.1/cmath ****   using ::cos;
 181:/home/hallmar/Developer/gcc-arm-none-eabi-10.3-2021.10/arm-none-eabi/include/c++/10.3.1/cmath **** 
 182:/home/hallmar/Developer/gcc-arm-none-eabi-10.3-2021.10/arm-none-eabi/include/c++/10.3.1/cmath **** #ifndef __CORRECT_ISO_CPP_MATH_H_PROTO
 183:/home/hallmar/Developer/gcc-arm-none-eabi-10.3-2021.10/arm-none-eabi/include/c++/10.3.1/cmath ****   inline _GLIBCXX_CONSTEXPR float
 184:/home/hallmar/Developer/gcc-arm-none-eabi-10.3-2021.10/arm-none-eabi/include/c++/10.3.1/cmath ****   cos(float __x)
 185:/home/hallmar/Developer/gcc-arm-none-eabi-10.3-2021.10/arm-none-eabi/include/c++/10.3.1/cmath ****   { return __builtin_cosf(__x); }
 186:/home/hallmar/Developer/gcc-arm-none-eabi-10.3-2021.10/arm-none-eabi/include/c++/10.3.1/cmath **** 
 187:/home/hallmar/Developer/gcc-arm-none-eabi-10.3-2021.10/arm-none-eabi/include/c++/10.3.1/cmath ****   inline _GLIBCXX_CONSTEXPR long double
 188:/home/hallmar/Developer/gcc-arm-none-eabi-10.3-2021.10/arm-none-eabi/include/c++/10.3.1/cmath ****   cos(long double __x)
 189:/home/hallmar/Developer/gcc-arm-none-eabi-10.3-2021.10/arm-none-eabi/include/c++/10.3.1/cmath ****   { return __builtin_cosl(__x); }
 190:/home/hallmar/Developer/gcc-arm-none-eabi-10.3-2021.10/arm-none-eabi/include/c++/10.3.1/cmath **** #endif
 191:/home/hallmar/Developer/gcc-arm-none-eabi-10.3-2021.10/arm-none-eabi/include/c++/10.3.1/cmath **** 
 192:/home/hallmar/Developer/gcc-arm-none-eabi-10.3-2021.10/arm-none-eabi/include/c++/10.3.1/cmath ****   template<typename _Tp>
 193:/home/hallmar/Developer/gcc-arm-none-eabi-10.3-2021.10/arm-none-eabi/include/c++/10.3.1/cmath ****     inline _GLIBCXX_CONSTEXPR
 194:/home/hallmar/Developer/gcc-arm-none-eabi-10.3-2021.10/arm-none-eabi/include/c++/10.3.1/cmath ****     typename __gnu_cxx::__enable_if<__is_integer<_Tp>::__value,
 195:/home/hallmar/Developer/gcc-arm-none-eabi-10.3-2021.10/arm-none-eabi/include/c++/10.3.1/cmath ****                                     double>::__type
 196:/home/hallmar/Developer/gcc-arm-none-eabi-10.3-2021.10/arm-none-eabi/include/c++/10.3.1/cmath ****     cos(_Tp __x)
 197:/home/hallmar/Developer/gcc-arm-none-eabi-10.3-2021.10/arm-none-eabi/include/c++/10.3.1/cmath ****     { return __builtin_cos(__x); }
 198:/home/hallmar/Developer/gcc-arm-none-eabi-10.3-2021.10/arm-none-eabi/include/c++/10.3.1/cmath **** 
 199:/home/hallmar/Developer/gcc-arm-none-eabi-10.3-2021.10/arm-none-eabi/include/c++/10.3.1/cmath ****   using ::cosh;
 200:/home/hallmar/Developer/gcc-arm-none-eabi-10.3-2021.10/arm-none-eabi/include/c++/10.3.1/cmath **** 
 201:/home/hallmar/Developer/gcc-arm-none-eabi-10.3-2021.10/arm-none-eabi/include/c++/10.3.1/cmath **** #ifndef __CORRECT_ISO_CPP_MATH_H_PROTO
 202:/home/hallmar/Developer/gcc-arm-none-eabi-10.3-2021.10/arm-none-eabi/include/c++/10.3.1/cmath ****   inline _GLIBCXX_CONSTEXPR float
 203:/home/hallmar/Developer/gcc-arm-none-eabi-10.3-2021.10/arm-none-eabi/include/c++/10.3.1/cmath ****   cosh(float __x)
 204:/home/hallmar/Developer/gcc-arm-none-eabi-10.3-2021.10/arm-none-eabi/include/c++/10.3.1/cmath ****   { return __builtin_coshf(__x); }
 205:/home/hallmar/Developer/gcc-arm-none-eabi-10.3-2021.10/arm-none-eabi/include/c++/10.3.1/cmath **** 
 206:/home/hallmar/Developer/gcc-arm-none-eabi-10.3-2021.10/arm-none-eabi/include/c++/10.3.1/cmath ****   inline _GLIBCXX_CONSTEXPR long double
 207:/home/hallmar/Developer/gcc-arm-none-eabi-10.3-2021.10/arm-none-eabi/include/c++/10.3.1/cmath ****   cosh(long double __x)
 208:/home/hallmar/Developer/gcc-arm-none-eabi-10.3-2021.10/arm-none-eabi/include/c++/10.3.1/cmath ****   { return __builtin_coshl(__x); }
 209:/home/hallmar/Developer/gcc-arm-none-eabi-10.3-2021.10/arm-none-eabi/include/c++/10.3.1/cmath **** #endif
 210:/home/hallmar/Developer/gcc-arm-none-eabi-10.3-2021.10/arm-none-eabi/include/c++/10.3.1/cmath **** 
ARM GAS  /tmp/ccxnfbgf.s 			page 38


 211:/home/hallmar/Developer/gcc-arm-none-eabi-10.3-2021.10/arm-none-eabi/include/c++/10.3.1/cmath ****   template<typename _Tp>
 212:/home/hallmar/Developer/gcc-arm-none-eabi-10.3-2021.10/arm-none-eabi/include/c++/10.3.1/cmath ****     inline _GLIBCXX_CONSTEXPR
 213:/home/hallmar/Developer/gcc-arm-none-eabi-10.3-2021.10/arm-none-eabi/include/c++/10.3.1/cmath ****     typename __gnu_cxx::__enable_if<__is_integer<_Tp>::__value,
 214:/home/hallmar/Developer/gcc-arm-none-eabi-10.3-2021.10/arm-none-eabi/include/c++/10.3.1/cmath ****                                     double>::__type
 215:/home/hallmar/Developer/gcc-arm-none-eabi-10.3-2021.10/arm-none-eabi/include/c++/10.3.1/cmath ****     cosh(_Tp __x)
 216:/home/hallmar/Developer/gcc-arm-none-eabi-10.3-2021.10/arm-none-eabi/include/c++/10.3.1/cmath ****     { return __builtin_cosh(__x); }
 217:/home/hallmar/Developer/gcc-arm-none-eabi-10.3-2021.10/arm-none-eabi/include/c++/10.3.1/cmath **** 
 218:/home/hallmar/Developer/gcc-arm-none-eabi-10.3-2021.10/arm-none-eabi/include/c++/10.3.1/cmath ****   using ::exp;
 219:/home/hallmar/Developer/gcc-arm-none-eabi-10.3-2021.10/arm-none-eabi/include/c++/10.3.1/cmath **** 
 220:/home/hallmar/Developer/gcc-arm-none-eabi-10.3-2021.10/arm-none-eabi/include/c++/10.3.1/cmath **** #ifndef __CORRECT_ISO_CPP_MATH_H_PROTO
 221:/home/hallmar/Developer/gcc-arm-none-eabi-10.3-2021.10/arm-none-eabi/include/c++/10.3.1/cmath ****   inline _GLIBCXX_CONSTEXPR float
 222:/home/hallmar/Developer/gcc-arm-none-eabi-10.3-2021.10/arm-none-eabi/include/c++/10.3.1/cmath ****   exp(float __x)
 223:/home/hallmar/Developer/gcc-arm-none-eabi-10.3-2021.10/arm-none-eabi/include/c++/10.3.1/cmath ****   { return __builtin_expf(__x); }
 224:/home/hallmar/Developer/gcc-arm-none-eabi-10.3-2021.10/arm-none-eabi/include/c++/10.3.1/cmath **** 
 225:/home/hallmar/Developer/gcc-arm-none-eabi-10.3-2021.10/arm-none-eabi/include/c++/10.3.1/cmath ****   inline _GLIBCXX_CONSTEXPR long double
 226:/home/hallmar/Developer/gcc-arm-none-eabi-10.3-2021.10/arm-none-eabi/include/c++/10.3.1/cmath ****   exp(long double __x)
 227:/home/hallmar/Developer/gcc-arm-none-eabi-10.3-2021.10/arm-none-eabi/include/c++/10.3.1/cmath ****   { return __builtin_expl(__x); }
 228:/home/hallmar/Developer/gcc-arm-none-eabi-10.3-2021.10/arm-none-eabi/include/c++/10.3.1/cmath **** #endif
 229:/home/hallmar/Developer/gcc-arm-none-eabi-10.3-2021.10/arm-none-eabi/include/c++/10.3.1/cmath **** 
 230:/home/hallmar/Developer/gcc-arm-none-eabi-10.3-2021.10/arm-none-eabi/include/c++/10.3.1/cmath ****   template<typename _Tp>
 231:/home/hallmar/Developer/gcc-arm-none-eabi-10.3-2021.10/arm-none-eabi/include/c++/10.3.1/cmath ****     inline _GLIBCXX_CONSTEXPR
 232:/home/hallmar/Developer/gcc-arm-none-eabi-10.3-2021.10/arm-none-eabi/include/c++/10.3.1/cmath ****     typename __gnu_cxx::__enable_if<__is_integer<_Tp>::__value,
 233:/home/hallmar/Developer/gcc-arm-none-eabi-10.3-2021.10/arm-none-eabi/include/c++/10.3.1/cmath ****                                     double>::__type
 234:/home/hallmar/Developer/gcc-arm-none-eabi-10.3-2021.10/arm-none-eabi/include/c++/10.3.1/cmath ****     exp(_Tp __x)
 235:/home/hallmar/Developer/gcc-arm-none-eabi-10.3-2021.10/arm-none-eabi/include/c++/10.3.1/cmath ****     { return __builtin_exp(__x); }
 236:/home/hallmar/Developer/gcc-arm-none-eabi-10.3-2021.10/arm-none-eabi/include/c++/10.3.1/cmath **** 
 237:/home/hallmar/Developer/gcc-arm-none-eabi-10.3-2021.10/arm-none-eabi/include/c++/10.3.1/cmath ****   using ::fabs;
 238:/home/hallmar/Developer/gcc-arm-none-eabi-10.3-2021.10/arm-none-eabi/include/c++/10.3.1/cmath **** 
 239:/home/hallmar/Developer/gcc-arm-none-eabi-10.3-2021.10/arm-none-eabi/include/c++/10.3.1/cmath **** #ifndef __CORRECT_ISO_CPP_MATH_H_PROTO
 240:/home/hallmar/Developer/gcc-arm-none-eabi-10.3-2021.10/arm-none-eabi/include/c++/10.3.1/cmath ****   inline _GLIBCXX_CONSTEXPR float
 241:/home/hallmar/Developer/gcc-arm-none-eabi-10.3-2021.10/arm-none-eabi/include/c++/10.3.1/cmath ****   fabs(float __x)
 242:/home/hallmar/Developer/gcc-arm-none-eabi-10.3-2021.10/arm-none-eabi/include/c++/10.3.1/cmath ****   { return __builtin_fabsf(__x); }
 243:/home/hallmar/Developer/gcc-arm-none-eabi-10.3-2021.10/arm-none-eabi/include/c++/10.3.1/cmath **** 
 244:/home/hallmar/Developer/gcc-arm-none-eabi-10.3-2021.10/arm-none-eabi/include/c++/10.3.1/cmath ****   inline _GLIBCXX_CONSTEXPR long double
 245:/home/hallmar/Developer/gcc-arm-none-eabi-10.3-2021.10/arm-none-eabi/include/c++/10.3.1/cmath ****   fabs(long double __x)
 246:/home/hallmar/Developer/gcc-arm-none-eabi-10.3-2021.10/arm-none-eabi/include/c++/10.3.1/cmath ****   { return __builtin_fabsl(__x); }
 247:/home/hallmar/Developer/gcc-arm-none-eabi-10.3-2021.10/arm-none-eabi/include/c++/10.3.1/cmath **** #endif
 248:/home/hallmar/Developer/gcc-arm-none-eabi-10.3-2021.10/arm-none-eabi/include/c++/10.3.1/cmath **** 
 249:/home/hallmar/Developer/gcc-arm-none-eabi-10.3-2021.10/arm-none-eabi/include/c++/10.3.1/cmath ****   template<typename _Tp>
 250:/home/hallmar/Developer/gcc-arm-none-eabi-10.3-2021.10/arm-none-eabi/include/c++/10.3.1/cmath ****     inline _GLIBCXX_CONSTEXPR
 251:/home/hallmar/Developer/gcc-arm-none-eabi-10.3-2021.10/arm-none-eabi/include/c++/10.3.1/cmath ****     typename __gnu_cxx::__enable_if<__is_integer<_Tp>::__value,
 252:/home/hallmar/Developer/gcc-arm-none-eabi-10.3-2021.10/arm-none-eabi/include/c++/10.3.1/cmath ****                                     double>::__type
 253:/home/hallmar/Developer/gcc-arm-none-eabi-10.3-2021.10/arm-none-eabi/include/c++/10.3.1/cmath ****     fabs(_Tp __x)
 254:/home/hallmar/Developer/gcc-arm-none-eabi-10.3-2021.10/arm-none-eabi/include/c++/10.3.1/cmath ****     { return __builtin_fabs(__x); }
 255:/home/hallmar/Developer/gcc-arm-none-eabi-10.3-2021.10/arm-none-eabi/include/c++/10.3.1/cmath **** 
 256:/home/hallmar/Developer/gcc-arm-none-eabi-10.3-2021.10/arm-none-eabi/include/c++/10.3.1/cmath ****   using ::floor;
 257:/home/hallmar/Developer/gcc-arm-none-eabi-10.3-2021.10/arm-none-eabi/include/c++/10.3.1/cmath **** 
 258:/home/hallmar/Developer/gcc-arm-none-eabi-10.3-2021.10/arm-none-eabi/include/c++/10.3.1/cmath **** #ifndef __CORRECT_ISO_CPP_MATH_H_PROTO
 259:/home/hallmar/Developer/gcc-arm-none-eabi-10.3-2021.10/arm-none-eabi/include/c++/10.3.1/cmath ****   inline _GLIBCXX_CONSTEXPR float
 260:/home/hallmar/Developer/gcc-arm-none-eabi-10.3-2021.10/arm-none-eabi/include/c++/10.3.1/cmath ****   floor(float __x)
 261:/home/hallmar/Developer/gcc-arm-none-eabi-10.3-2021.10/arm-none-eabi/include/c++/10.3.1/cmath ****   { return __builtin_floorf(__x); }
 262:/home/hallmar/Developer/gcc-arm-none-eabi-10.3-2021.10/arm-none-eabi/include/c++/10.3.1/cmath **** 
 263:/home/hallmar/Developer/gcc-arm-none-eabi-10.3-2021.10/arm-none-eabi/include/c++/10.3.1/cmath ****   inline _GLIBCXX_CONSTEXPR long double
 264:/home/hallmar/Developer/gcc-arm-none-eabi-10.3-2021.10/arm-none-eabi/include/c++/10.3.1/cmath ****   floor(long double __x)
 265:/home/hallmar/Developer/gcc-arm-none-eabi-10.3-2021.10/arm-none-eabi/include/c++/10.3.1/cmath ****   { return __builtin_floorl(__x); }
 266:/home/hallmar/Developer/gcc-arm-none-eabi-10.3-2021.10/arm-none-eabi/include/c++/10.3.1/cmath **** #endif
 267:/home/hallmar/Developer/gcc-arm-none-eabi-10.3-2021.10/arm-none-eabi/include/c++/10.3.1/cmath **** 
ARM GAS  /tmp/ccxnfbgf.s 			page 39


 268:/home/hallmar/Developer/gcc-arm-none-eabi-10.3-2021.10/arm-none-eabi/include/c++/10.3.1/cmath ****   template<typename _Tp>
 269:/home/hallmar/Developer/gcc-arm-none-eabi-10.3-2021.10/arm-none-eabi/include/c++/10.3.1/cmath ****     inline _GLIBCXX_CONSTEXPR
 270:/home/hallmar/Developer/gcc-arm-none-eabi-10.3-2021.10/arm-none-eabi/include/c++/10.3.1/cmath ****     typename __gnu_cxx::__enable_if<__is_integer<_Tp>::__value,
 271:/home/hallmar/Developer/gcc-arm-none-eabi-10.3-2021.10/arm-none-eabi/include/c++/10.3.1/cmath ****                                     double>::__type
 272:/home/hallmar/Developer/gcc-arm-none-eabi-10.3-2021.10/arm-none-eabi/include/c++/10.3.1/cmath ****     floor(_Tp __x)
 273:/home/hallmar/Developer/gcc-arm-none-eabi-10.3-2021.10/arm-none-eabi/include/c++/10.3.1/cmath ****     { return __builtin_floor(__x); }
 274:/home/hallmar/Developer/gcc-arm-none-eabi-10.3-2021.10/arm-none-eabi/include/c++/10.3.1/cmath **** 
 275:/home/hallmar/Developer/gcc-arm-none-eabi-10.3-2021.10/arm-none-eabi/include/c++/10.3.1/cmath ****   using ::fmod;
 276:/home/hallmar/Developer/gcc-arm-none-eabi-10.3-2021.10/arm-none-eabi/include/c++/10.3.1/cmath **** 
 277:/home/hallmar/Developer/gcc-arm-none-eabi-10.3-2021.10/arm-none-eabi/include/c++/10.3.1/cmath **** #ifndef __CORRECT_ISO_CPP_MATH_H_PROTO
 278:/home/hallmar/Developer/gcc-arm-none-eabi-10.3-2021.10/arm-none-eabi/include/c++/10.3.1/cmath ****   inline _GLIBCXX_CONSTEXPR float
 279:/home/hallmar/Developer/gcc-arm-none-eabi-10.3-2021.10/arm-none-eabi/include/c++/10.3.1/cmath ****   fmod(float __x, float __y)
 280:/home/hallmar/Developer/gcc-arm-none-eabi-10.3-2021.10/arm-none-eabi/include/c++/10.3.1/cmath ****   { return __builtin_fmodf(__x, __y); }
 281:/home/hallmar/Developer/gcc-arm-none-eabi-10.3-2021.10/arm-none-eabi/include/c++/10.3.1/cmath **** 
 282:/home/hallmar/Developer/gcc-arm-none-eabi-10.3-2021.10/arm-none-eabi/include/c++/10.3.1/cmath ****   inline _GLIBCXX_CONSTEXPR long double
 283:/home/hallmar/Developer/gcc-arm-none-eabi-10.3-2021.10/arm-none-eabi/include/c++/10.3.1/cmath ****   fmod(long double __x, long double __y)
 284:/home/hallmar/Developer/gcc-arm-none-eabi-10.3-2021.10/arm-none-eabi/include/c++/10.3.1/cmath ****   { return __builtin_fmodl(__x, __y); }
 285:/home/hallmar/Developer/gcc-arm-none-eabi-10.3-2021.10/arm-none-eabi/include/c++/10.3.1/cmath **** #endif
 286:/home/hallmar/Developer/gcc-arm-none-eabi-10.3-2021.10/arm-none-eabi/include/c++/10.3.1/cmath **** 
 287:/home/hallmar/Developer/gcc-arm-none-eabi-10.3-2021.10/arm-none-eabi/include/c++/10.3.1/cmath ****   template<typename _Tp, typename _Up>
 288:/home/hallmar/Developer/gcc-arm-none-eabi-10.3-2021.10/arm-none-eabi/include/c++/10.3.1/cmath ****     inline _GLIBCXX_CONSTEXPR
 289:/home/hallmar/Developer/gcc-arm-none-eabi-10.3-2021.10/arm-none-eabi/include/c++/10.3.1/cmath ****     typename __gnu_cxx::__promote_2<_Tp, _Up>::__type
 290:/home/hallmar/Developer/gcc-arm-none-eabi-10.3-2021.10/arm-none-eabi/include/c++/10.3.1/cmath ****     fmod(_Tp __x, _Up __y)
 291:/home/hallmar/Developer/gcc-arm-none-eabi-10.3-2021.10/arm-none-eabi/include/c++/10.3.1/cmath ****     {
 292:/home/hallmar/Developer/gcc-arm-none-eabi-10.3-2021.10/arm-none-eabi/include/c++/10.3.1/cmath ****       typedef typename __gnu_cxx::__promote_2<_Tp, _Up>::__type __type;
 293:/home/hallmar/Developer/gcc-arm-none-eabi-10.3-2021.10/arm-none-eabi/include/c++/10.3.1/cmath ****       return fmod(__type(__x), __type(__y));
 294:/home/hallmar/Developer/gcc-arm-none-eabi-10.3-2021.10/arm-none-eabi/include/c++/10.3.1/cmath ****     }
 295:/home/hallmar/Developer/gcc-arm-none-eabi-10.3-2021.10/arm-none-eabi/include/c++/10.3.1/cmath **** 
 296:/home/hallmar/Developer/gcc-arm-none-eabi-10.3-2021.10/arm-none-eabi/include/c++/10.3.1/cmath ****   using ::frexp;
 297:/home/hallmar/Developer/gcc-arm-none-eabi-10.3-2021.10/arm-none-eabi/include/c++/10.3.1/cmath **** 
 298:/home/hallmar/Developer/gcc-arm-none-eabi-10.3-2021.10/arm-none-eabi/include/c++/10.3.1/cmath **** #ifndef __CORRECT_ISO_CPP_MATH_H_PROTO
 299:/home/hallmar/Developer/gcc-arm-none-eabi-10.3-2021.10/arm-none-eabi/include/c++/10.3.1/cmath ****   inline float
 300:/home/hallmar/Developer/gcc-arm-none-eabi-10.3-2021.10/arm-none-eabi/include/c++/10.3.1/cmath ****   frexp(float __x, int* __exp)
 301:/home/hallmar/Developer/gcc-arm-none-eabi-10.3-2021.10/arm-none-eabi/include/c++/10.3.1/cmath ****   { return __builtin_frexpf(__x, __exp); }
 302:/home/hallmar/Developer/gcc-arm-none-eabi-10.3-2021.10/arm-none-eabi/include/c++/10.3.1/cmath **** 
 303:/home/hallmar/Developer/gcc-arm-none-eabi-10.3-2021.10/arm-none-eabi/include/c++/10.3.1/cmath ****   inline long double
 304:/home/hallmar/Developer/gcc-arm-none-eabi-10.3-2021.10/arm-none-eabi/include/c++/10.3.1/cmath ****   frexp(long double __x, int* __exp)
 305:/home/hallmar/Developer/gcc-arm-none-eabi-10.3-2021.10/arm-none-eabi/include/c++/10.3.1/cmath ****   { return __builtin_frexpl(__x, __exp); }
 306:/home/hallmar/Developer/gcc-arm-none-eabi-10.3-2021.10/arm-none-eabi/include/c++/10.3.1/cmath **** #endif
 307:/home/hallmar/Developer/gcc-arm-none-eabi-10.3-2021.10/arm-none-eabi/include/c++/10.3.1/cmath **** 
 308:/home/hallmar/Developer/gcc-arm-none-eabi-10.3-2021.10/arm-none-eabi/include/c++/10.3.1/cmath ****   template<typename _Tp>
 309:/home/hallmar/Developer/gcc-arm-none-eabi-10.3-2021.10/arm-none-eabi/include/c++/10.3.1/cmath ****     inline _GLIBCXX_CONSTEXPR
 310:/home/hallmar/Developer/gcc-arm-none-eabi-10.3-2021.10/arm-none-eabi/include/c++/10.3.1/cmath ****     typename __gnu_cxx::__enable_if<__is_integer<_Tp>::__value, 
 311:/home/hallmar/Developer/gcc-arm-none-eabi-10.3-2021.10/arm-none-eabi/include/c++/10.3.1/cmath ****                                     double>::__type
 312:/home/hallmar/Developer/gcc-arm-none-eabi-10.3-2021.10/arm-none-eabi/include/c++/10.3.1/cmath ****     frexp(_Tp __x, int* __exp)
 313:/home/hallmar/Developer/gcc-arm-none-eabi-10.3-2021.10/arm-none-eabi/include/c++/10.3.1/cmath ****     { return __builtin_frexp(__x, __exp); }
 314:/home/hallmar/Developer/gcc-arm-none-eabi-10.3-2021.10/arm-none-eabi/include/c++/10.3.1/cmath **** 
 315:/home/hallmar/Developer/gcc-arm-none-eabi-10.3-2021.10/arm-none-eabi/include/c++/10.3.1/cmath ****   using ::ldexp;
 316:/home/hallmar/Developer/gcc-arm-none-eabi-10.3-2021.10/arm-none-eabi/include/c++/10.3.1/cmath **** 
 317:/home/hallmar/Developer/gcc-arm-none-eabi-10.3-2021.10/arm-none-eabi/include/c++/10.3.1/cmath **** #ifndef __CORRECT_ISO_CPP_MATH_H_PROTO
 318:/home/hallmar/Developer/gcc-arm-none-eabi-10.3-2021.10/arm-none-eabi/include/c++/10.3.1/cmath ****   inline _GLIBCXX_CONSTEXPR float
 319:/home/hallmar/Developer/gcc-arm-none-eabi-10.3-2021.10/arm-none-eabi/include/c++/10.3.1/cmath ****   ldexp(float __x, int __exp)
 320:/home/hallmar/Developer/gcc-arm-none-eabi-10.3-2021.10/arm-none-eabi/include/c++/10.3.1/cmath ****   { return __builtin_ldexpf(__x, __exp); }
 321:/home/hallmar/Developer/gcc-arm-none-eabi-10.3-2021.10/arm-none-eabi/include/c++/10.3.1/cmath **** 
 322:/home/hallmar/Developer/gcc-arm-none-eabi-10.3-2021.10/arm-none-eabi/include/c++/10.3.1/cmath ****   inline _GLIBCXX_CONSTEXPR long double
 323:/home/hallmar/Developer/gcc-arm-none-eabi-10.3-2021.10/arm-none-eabi/include/c++/10.3.1/cmath ****   ldexp(long double __x, int __exp)
 324:/home/hallmar/Developer/gcc-arm-none-eabi-10.3-2021.10/arm-none-eabi/include/c++/10.3.1/cmath ****   { return __builtin_ldexpl(__x, __exp); }
ARM GAS  /tmp/ccxnfbgf.s 			page 40


 325:/home/hallmar/Developer/gcc-arm-none-eabi-10.3-2021.10/arm-none-eabi/include/c++/10.3.1/cmath **** #endif
 326:/home/hallmar/Developer/gcc-arm-none-eabi-10.3-2021.10/arm-none-eabi/include/c++/10.3.1/cmath **** 
 327:/home/hallmar/Developer/gcc-arm-none-eabi-10.3-2021.10/arm-none-eabi/include/c++/10.3.1/cmath ****   template<typename _Tp>
 328:/home/hallmar/Developer/gcc-arm-none-eabi-10.3-2021.10/arm-none-eabi/include/c++/10.3.1/cmath ****     inline _GLIBCXX_CONSTEXPR
 329:/home/hallmar/Developer/gcc-arm-none-eabi-10.3-2021.10/arm-none-eabi/include/c++/10.3.1/cmath ****     typename __gnu_cxx::__enable_if<__is_integer<_Tp>::__value, 
 330:/home/hallmar/Developer/gcc-arm-none-eabi-10.3-2021.10/arm-none-eabi/include/c++/10.3.1/cmath ****                                     double>::__type
 331:/home/hallmar/Developer/gcc-arm-none-eabi-10.3-2021.10/arm-none-eabi/include/c++/10.3.1/cmath ****     ldexp(_Tp __x, int __exp)
 332:/home/hallmar/Developer/gcc-arm-none-eabi-10.3-2021.10/arm-none-eabi/include/c++/10.3.1/cmath ****     { return __builtin_ldexp(__x, __exp); }
 333:/home/hallmar/Developer/gcc-arm-none-eabi-10.3-2021.10/arm-none-eabi/include/c++/10.3.1/cmath **** 
 334:/home/hallmar/Developer/gcc-arm-none-eabi-10.3-2021.10/arm-none-eabi/include/c++/10.3.1/cmath ****   using ::log;
 335:/home/hallmar/Developer/gcc-arm-none-eabi-10.3-2021.10/arm-none-eabi/include/c++/10.3.1/cmath **** 
 336:/home/hallmar/Developer/gcc-arm-none-eabi-10.3-2021.10/arm-none-eabi/include/c++/10.3.1/cmath **** #ifndef __CORRECT_ISO_CPP_MATH_H_PROTO
 337:/home/hallmar/Developer/gcc-arm-none-eabi-10.3-2021.10/arm-none-eabi/include/c++/10.3.1/cmath ****   inline _GLIBCXX_CONSTEXPR float
 338:/home/hallmar/Developer/gcc-arm-none-eabi-10.3-2021.10/arm-none-eabi/include/c++/10.3.1/cmath ****   log(float __x)
 339:/home/hallmar/Developer/gcc-arm-none-eabi-10.3-2021.10/arm-none-eabi/include/c++/10.3.1/cmath ****   { return __builtin_logf(__x); }
 340:/home/hallmar/Developer/gcc-arm-none-eabi-10.3-2021.10/arm-none-eabi/include/c++/10.3.1/cmath **** 
 341:/home/hallmar/Developer/gcc-arm-none-eabi-10.3-2021.10/arm-none-eabi/include/c++/10.3.1/cmath ****   inline _GLIBCXX_CONSTEXPR long double
 342:/home/hallmar/Developer/gcc-arm-none-eabi-10.3-2021.10/arm-none-eabi/include/c++/10.3.1/cmath ****   log(long double __x)
 343:/home/hallmar/Developer/gcc-arm-none-eabi-10.3-2021.10/arm-none-eabi/include/c++/10.3.1/cmath ****   { return __builtin_logl(__x); }
 344:/home/hallmar/Developer/gcc-arm-none-eabi-10.3-2021.10/arm-none-eabi/include/c++/10.3.1/cmath **** #endif
 345:/home/hallmar/Developer/gcc-arm-none-eabi-10.3-2021.10/arm-none-eabi/include/c++/10.3.1/cmath **** 
 346:/home/hallmar/Developer/gcc-arm-none-eabi-10.3-2021.10/arm-none-eabi/include/c++/10.3.1/cmath ****   template<typename _Tp>
 347:/home/hallmar/Developer/gcc-arm-none-eabi-10.3-2021.10/arm-none-eabi/include/c++/10.3.1/cmath ****     inline _GLIBCXX_CONSTEXPR
 348:/home/hallmar/Developer/gcc-arm-none-eabi-10.3-2021.10/arm-none-eabi/include/c++/10.3.1/cmath ****     typename __gnu_cxx::__enable_if<__is_integer<_Tp>::__value, 
 349:/home/hallmar/Developer/gcc-arm-none-eabi-10.3-2021.10/arm-none-eabi/include/c++/10.3.1/cmath ****                                     double>::__type
 350:/home/hallmar/Developer/gcc-arm-none-eabi-10.3-2021.10/arm-none-eabi/include/c++/10.3.1/cmath ****     log(_Tp __x)
 351:/home/hallmar/Developer/gcc-arm-none-eabi-10.3-2021.10/arm-none-eabi/include/c++/10.3.1/cmath ****     { return __builtin_log(__x); }
 352:/home/hallmar/Developer/gcc-arm-none-eabi-10.3-2021.10/arm-none-eabi/include/c++/10.3.1/cmath **** 
 353:/home/hallmar/Developer/gcc-arm-none-eabi-10.3-2021.10/arm-none-eabi/include/c++/10.3.1/cmath ****   using ::log10;
 354:/home/hallmar/Developer/gcc-arm-none-eabi-10.3-2021.10/arm-none-eabi/include/c++/10.3.1/cmath **** 
 355:/home/hallmar/Developer/gcc-arm-none-eabi-10.3-2021.10/arm-none-eabi/include/c++/10.3.1/cmath **** #ifndef __CORRECT_ISO_CPP_MATH_H_PROTO
 356:/home/hallmar/Developer/gcc-arm-none-eabi-10.3-2021.10/arm-none-eabi/include/c++/10.3.1/cmath ****   inline _GLIBCXX_CONSTEXPR float
 357:/home/hallmar/Developer/gcc-arm-none-eabi-10.3-2021.10/arm-none-eabi/include/c++/10.3.1/cmath ****   log10(float __x)
 358:/home/hallmar/Developer/gcc-arm-none-eabi-10.3-2021.10/arm-none-eabi/include/c++/10.3.1/cmath ****   { return __builtin_log10f(__x); }
 359:/home/hallmar/Developer/gcc-arm-none-eabi-10.3-2021.10/arm-none-eabi/include/c++/10.3.1/cmath **** 
 360:/home/hallmar/Developer/gcc-arm-none-eabi-10.3-2021.10/arm-none-eabi/include/c++/10.3.1/cmath ****   inline _GLIBCXX_CONSTEXPR long double
 361:/home/hallmar/Developer/gcc-arm-none-eabi-10.3-2021.10/arm-none-eabi/include/c++/10.3.1/cmath ****   log10(long double __x)
 362:/home/hallmar/Developer/gcc-arm-none-eabi-10.3-2021.10/arm-none-eabi/include/c++/10.3.1/cmath ****   { return __builtin_log10l(__x); }
 363:/home/hallmar/Developer/gcc-arm-none-eabi-10.3-2021.10/arm-none-eabi/include/c++/10.3.1/cmath **** #endif
 364:/home/hallmar/Developer/gcc-arm-none-eabi-10.3-2021.10/arm-none-eabi/include/c++/10.3.1/cmath **** 
 365:/home/hallmar/Developer/gcc-arm-none-eabi-10.3-2021.10/arm-none-eabi/include/c++/10.3.1/cmath ****   template<typename _Tp>
 366:/home/hallmar/Developer/gcc-arm-none-eabi-10.3-2021.10/arm-none-eabi/include/c++/10.3.1/cmath ****     inline _GLIBCXX_CONSTEXPR
 367:/home/hallmar/Developer/gcc-arm-none-eabi-10.3-2021.10/arm-none-eabi/include/c++/10.3.1/cmath ****     typename __gnu_cxx::__enable_if<__is_integer<_Tp>::__value,
 368:/home/hallmar/Developer/gcc-arm-none-eabi-10.3-2021.10/arm-none-eabi/include/c++/10.3.1/cmath ****                                     double>::__type
 369:/home/hallmar/Developer/gcc-arm-none-eabi-10.3-2021.10/arm-none-eabi/include/c++/10.3.1/cmath ****     log10(_Tp __x)
 370:/home/hallmar/Developer/gcc-arm-none-eabi-10.3-2021.10/arm-none-eabi/include/c++/10.3.1/cmath ****     { return __builtin_log10(__x); }
 371:/home/hallmar/Developer/gcc-arm-none-eabi-10.3-2021.10/arm-none-eabi/include/c++/10.3.1/cmath **** 
 372:/home/hallmar/Developer/gcc-arm-none-eabi-10.3-2021.10/arm-none-eabi/include/c++/10.3.1/cmath ****   using ::modf;
 373:/home/hallmar/Developer/gcc-arm-none-eabi-10.3-2021.10/arm-none-eabi/include/c++/10.3.1/cmath **** 
 374:/home/hallmar/Developer/gcc-arm-none-eabi-10.3-2021.10/arm-none-eabi/include/c++/10.3.1/cmath **** #ifndef __CORRECT_ISO_CPP_MATH_H_PROTO
 375:/home/hallmar/Developer/gcc-arm-none-eabi-10.3-2021.10/arm-none-eabi/include/c++/10.3.1/cmath ****   inline float
 376:/home/hallmar/Developer/gcc-arm-none-eabi-10.3-2021.10/arm-none-eabi/include/c++/10.3.1/cmath ****   modf(float __x, float* __iptr)
 377:/home/hallmar/Developer/gcc-arm-none-eabi-10.3-2021.10/arm-none-eabi/include/c++/10.3.1/cmath ****   { return __builtin_modff(__x, __iptr); }
 378:/home/hallmar/Developer/gcc-arm-none-eabi-10.3-2021.10/arm-none-eabi/include/c++/10.3.1/cmath **** 
 379:/home/hallmar/Developer/gcc-arm-none-eabi-10.3-2021.10/arm-none-eabi/include/c++/10.3.1/cmath ****   inline long double
 380:/home/hallmar/Developer/gcc-arm-none-eabi-10.3-2021.10/arm-none-eabi/include/c++/10.3.1/cmath ****   modf(long double __x, long double* __iptr)
 381:/home/hallmar/Developer/gcc-arm-none-eabi-10.3-2021.10/arm-none-eabi/include/c++/10.3.1/cmath ****   { return __builtin_modfl(__x, __iptr); }
ARM GAS  /tmp/ccxnfbgf.s 			page 41


 382:/home/hallmar/Developer/gcc-arm-none-eabi-10.3-2021.10/arm-none-eabi/include/c++/10.3.1/cmath **** #endif
 383:/home/hallmar/Developer/gcc-arm-none-eabi-10.3-2021.10/arm-none-eabi/include/c++/10.3.1/cmath **** 
 384:/home/hallmar/Developer/gcc-arm-none-eabi-10.3-2021.10/arm-none-eabi/include/c++/10.3.1/cmath ****   using ::pow;
 385:/home/hallmar/Developer/gcc-arm-none-eabi-10.3-2021.10/arm-none-eabi/include/c++/10.3.1/cmath **** 
 386:/home/hallmar/Developer/gcc-arm-none-eabi-10.3-2021.10/arm-none-eabi/include/c++/10.3.1/cmath **** #ifndef __CORRECT_ISO_CPP_MATH_H_PROTO
 387:/home/hallmar/Developer/gcc-arm-none-eabi-10.3-2021.10/arm-none-eabi/include/c++/10.3.1/cmath ****   inline _GLIBCXX_CONSTEXPR float
 388:/home/hallmar/Developer/gcc-arm-none-eabi-10.3-2021.10/arm-none-eabi/include/c++/10.3.1/cmath ****   pow(float __x, float __y)
 389:/home/hallmar/Developer/gcc-arm-none-eabi-10.3-2021.10/arm-none-eabi/include/c++/10.3.1/cmath ****   { return __builtin_powf(__x, __y); }
 390:/home/hallmar/Developer/gcc-arm-none-eabi-10.3-2021.10/arm-none-eabi/include/c++/10.3.1/cmath **** 
 391:/home/hallmar/Developer/gcc-arm-none-eabi-10.3-2021.10/arm-none-eabi/include/c++/10.3.1/cmath ****   inline _GLIBCXX_CONSTEXPR long double
 392:/home/hallmar/Developer/gcc-arm-none-eabi-10.3-2021.10/arm-none-eabi/include/c++/10.3.1/cmath ****   pow(long double __x, long double __y)
 393:/home/hallmar/Developer/gcc-arm-none-eabi-10.3-2021.10/arm-none-eabi/include/c++/10.3.1/cmath ****   { return __builtin_powl(__x, __y); }
 394:/home/hallmar/Developer/gcc-arm-none-eabi-10.3-2021.10/arm-none-eabi/include/c++/10.3.1/cmath **** 
 395:/home/hallmar/Developer/gcc-arm-none-eabi-10.3-2021.10/arm-none-eabi/include/c++/10.3.1/cmath **** #if __cplusplus < 201103L
 396:/home/hallmar/Developer/gcc-arm-none-eabi-10.3-2021.10/arm-none-eabi/include/c++/10.3.1/cmath ****   // _GLIBCXX_RESOLVE_LIB_DEFECTS
 397:/home/hallmar/Developer/gcc-arm-none-eabi-10.3-2021.10/arm-none-eabi/include/c++/10.3.1/cmath ****   // DR 550. What should the return type of pow(float,int) be?
 398:/home/hallmar/Developer/gcc-arm-none-eabi-10.3-2021.10/arm-none-eabi/include/c++/10.3.1/cmath ****   inline double
 399:/home/hallmar/Developer/gcc-arm-none-eabi-10.3-2021.10/arm-none-eabi/include/c++/10.3.1/cmath ****   pow(double __x, int __i)
 400:/home/hallmar/Developer/gcc-arm-none-eabi-10.3-2021.10/arm-none-eabi/include/c++/10.3.1/cmath ****   { return __builtin_powi(__x, __i); }
 401:/home/hallmar/Developer/gcc-arm-none-eabi-10.3-2021.10/arm-none-eabi/include/c++/10.3.1/cmath **** 
 402:/home/hallmar/Developer/gcc-arm-none-eabi-10.3-2021.10/arm-none-eabi/include/c++/10.3.1/cmath ****   inline float
 403:/home/hallmar/Developer/gcc-arm-none-eabi-10.3-2021.10/arm-none-eabi/include/c++/10.3.1/cmath ****   pow(float __x, int __n)
 404:/home/hallmar/Developer/gcc-arm-none-eabi-10.3-2021.10/arm-none-eabi/include/c++/10.3.1/cmath ****   { return __builtin_powif(__x, __n); }
 405:/home/hallmar/Developer/gcc-arm-none-eabi-10.3-2021.10/arm-none-eabi/include/c++/10.3.1/cmath **** 
 406:/home/hallmar/Developer/gcc-arm-none-eabi-10.3-2021.10/arm-none-eabi/include/c++/10.3.1/cmath ****   inline long double
 407:/home/hallmar/Developer/gcc-arm-none-eabi-10.3-2021.10/arm-none-eabi/include/c++/10.3.1/cmath ****   pow(long double __x, int __n)
 408:/home/hallmar/Developer/gcc-arm-none-eabi-10.3-2021.10/arm-none-eabi/include/c++/10.3.1/cmath ****   { return __builtin_powil(__x, __n); }
 409:/home/hallmar/Developer/gcc-arm-none-eabi-10.3-2021.10/arm-none-eabi/include/c++/10.3.1/cmath **** #endif
 410:/home/hallmar/Developer/gcc-arm-none-eabi-10.3-2021.10/arm-none-eabi/include/c++/10.3.1/cmath **** #endif
 411:/home/hallmar/Developer/gcc-arm-none-eabi-10.3-2021.10/arm-none-eabi/include/c++/10.3.1/cmath **** 
 412:/home/hallmar/Developer/gcc-arm-none-eabi-10.3-2021.10/arm-none-eabi/include/c++/10.3.1/cmath ****   template<typename _Tp, typename _Up>
 413:/home/hallmar/Developer/gcc-arm-none-eabi-10.3-2021.10/arm-none-eabi/include/c++/10.3.1/cmath ****     inline _GLIBCXX_CONSTEXPR
 414:/home/hallmar/Developer/gcc-arm-none-eabi-10.3-2021.10/arm-none-eabi/include/c++/10.3.1/cmath ****     typename __gnu_cxx::__promote_2<_Tp, _Up>::__type
 415:/home/hallmar/Developer/gcc-arm-none-eabi-10.3-2021.10/arm-none-eabi/include/c++/10.3.1/cmath ****     pow(_Tp __x, _Up __y)
 416:/home/hallmar/Developer/gcc-arm-none-eabi-10.3-2021.10/arm-none-eabi/include/c++/10.3.1/cmath ****     {
 417:/home/hallmar/Developer/gcc-arm-none-eabi-10.3-2021.10/arm-none-eabi/include/c++/10.3.1/cmath ****       typedef typename __gnu_cxx::__promote_2<_Tp, _Up>::__type __type;
 418:/home/hallmar/Developer/gcc-arm-none-eabi-10.3-2021.10/arm-none-eabi/include/c++/10.3.1/cmath ****       return pow(__type(__x), __type(__y));
 419:/home/hallmar/Developer/gcc-arm-none-eabi-10.3-2021.10/arm-none-eabi/include/c++/10.3.1/cmath ****     }
 420:/home/hallmar/Developer/gcc-arm-none-eabi-10.3-2021.10/arm-none-eabi/include/c++/10.3.1/cmath **** 
 421:/home/hallmar/Developer/gcc-arm-none-eabi-10.3-2021.10/arm-none-eabi/include/c++/10.3.1/cmath ****   using ::sin;
 422:/home/hallmar/Developer/gcc-arm-none-eabi-10.3-2021.10/arm-none-eabi/include/c++/10.3.1/cmath **** 
 423:/home/hallmar/Developer/gcc-arm-none-eabi-10.3-2021.10/arm-none-eabi/include/c++/10.3.1/cmath **** #ifndef __CORRECT_ISO_CPP_MATH_H_PROTO
 424:/home/hallmar/Developer/gcc-arm-none-eabi-10.3-2021.10/arm-none-eabi/include/c++/10.3.1/cmath ****   inline _GLIBCXX_CONSTEXPR float
 425:/home/hallmar/Developer/gcc-arm-none-eabi-10.3-2021.10/arm-none-eabi/include/c++/10.3.1/cmath ****   sin(float __x)
 885              		.loc 11 425 3 is_stmt 1 view .LVU211
 886              	.LBB611:
 426:/home/hallmar/Developer/gcc-arm-none-eabi-10.3-2021.10/arm-none-eabi/include/c++/10.3.1/cmath ****   { return __builtin_sinf(__x); }
 887              		.loc 11 426 5 view .LVU212
 888              		.loc 11 426 26 is_stmt 0 view .LVU213
 889 000a FFF7FEFF 		bl	sinf
 890              	.LVL42:
 891              		.loc 11 426 26 view .LVU214
 892              	.LBE611:
 893              	.LBE610:
 268:fjol.cpp      ****   //Serial.println(String("Right:") + right);
 894              		.loc 7 268 46 view .LVU215
 895 000e B7EEC00A 		vcvt.f64.f32	d0, s0
ARM GAS  /tmp/ccxnfbgf.s 			page 42


 268:fjol.cpp      ****   //Serial.println(String("Right:") + right);
 896              		.loc 7 268 30 view .LVU216
 897 0012 9FED0D7B 		vldr.64	d7, .L47
 268:fjol.cpp      ****   //Serial.println(String("Right:") + right);
 898              		.loc 7 268 23 view .LVU217
 899 0016 B7EEC86A 		vcvt.f64.f32	d6, s16
 268:fjol.cpp      ****   //Serial.println(String("Right:") + right);
 900              		.loc 7 268 30 view .LVU218
 901 001a 26EE076B 		vmul.f64	d6, d6, d7
 268:fjol.cpp      ****   //Serial.println(String("Right:") + right);
 902              		.loc 7 268 21 view .LVU219
 903 001e 26EE006B 		vmul.f64	d6, d6, d0
 904 0022 B5EE406B 		vcmp.f64	d6, #0
 905 0026 F1EE10FA 		vmrs	APSR_nzcv, FPSCR
 906 002a 06D4     		bmi	.L45
 907 002c B1EEC60B 		vsqrt.f64	d0, d6
 908              	.L43:
 909              	.LVL43:
 270:fjol.cpp      **** }
 910              		.loc 7 270 3 is_stmt 1 view .LVU220
 271:fjol.cpp      **** 
 911              		.loc 7 271 1 is_stmt 0 view .LVU221
 912 0030 B7EEC00B 		vcvt.f32.f64	s0, d0
 913              	.LVL44:
 271:fjol.cpp      **** 
 914              		.loc 7 271 1 view .LVU222
 915 0034 BDEC028B 		vldm	sp!, {d8}
 916              		.cfi_remember_state
 917              		.cfi_restore 80
 918              		.cfi_restore 81
 919              		.cfi_def_cfa_offset 8
 920              	.LVL45:
 271:fjol.cpp      **** 
 921              		.loc 7 271 1 view .LVU223
 922 0038 08BD     		pop	{r3, pc}
 923              	.LVL46:
 924              	.L45:
 925              		.cfi_restore_state
 268:fjol.cpp      ****   //Serial.println(String("Right:") + right);
 926              		.loc 7 268 21 view .LVU224
 927 003a B0EE460B 		vmov.f64	d0, d6
 928 003e FFF7FEFF 		bl	sqrt
 929              	.LVL47:
 930 0042 F5E7     		b	.L43
 931              	.L48:
 932 0044 AFF30080 		.align	3
 933              	.L47:
 934 0048 F5DA7A8E 		.word	-1904551179
 935 004c 315FE43F 		.word	1071931185
 936              		.cfi_endproc
 937              	.LFE4815:
 939              		.section	.text._Z8calcleftf,"ax",%progbits
 940              		.align	1
 941              		.p2align 2,,3
 942              		.global	_Z8calcleftf
 943              		.syntax unified
 944              		.thumb
ARM GAS  /tmp/ccxnfbgf.s 			page 43


 945              		.thumb_func
 947              	_Z8calcleftf:
 948              	.LVL48:
 949              	.LFB4816:
 274:fjol.cpp      ****   float left = sqrt((PI / 2 - (theta)) * (2 / PI) * cos(theta));
 950              		.loc 7 274 1 is_stmt 1 view -0
 951              		.cfi_startproc
 952              		@ args = 0, pretend = 0, frame = 0
 953              		@ frame_needed = 0, uses_anonymous_args = 0
 275:fjol.cpp      ****   //Serial.println(String("Left:") + left);
 954              		.loc 7 275 3 view .LVU226
 274:fjol.cpp      ****   float left = sqrt((PI / 2 - (theta)) * (2 / PI) * cos(theta));
 955              		.loc 7 274 1 is_stmt 0 view .LVU227
 956 0000 08B5     		push	{r3, lr}
 957              		.cfi_def_cfa_offset 8
 958              		.cfi_offset 3, -8
 959              		.cfi_offset 14, -4
 960 0002 2DED028B 		vpush.64	{d8}
 961              		.cfi_def_cfa_offset 16
 962              		.cfi_offset 80, -16
 963              		.cfi_offset 81, -12
 274:fjol.cpp      ****   float left = sqrt((PI / 2 - (theta)) * (2 / PI) * cos(theta));
 964              		.loc 7 274 1 view .LVU228
 965 0006 B0EE408A 		vmov.f32	s16, s0
 966              	.LVL49:
 967              	.LBB614:
 968              	.LBI614:
 184:/home/hallmar/Developer/gcc-arm-none-eabi-10.3-2021.10/arm-none-eabi/include/c++/10.3.1/cmath ****   { return __builtin_cosf(__x); }
 969              		.loc 11 184 3 is_stmt 1 view .LVU229
 970              	.LBB615:
 185:/home/hallmar/Developer/gcc-arm-none-eabi-10.3-2021.10/arm-none-eabi/include/c++/10.3.1/cmath **** 
 971              		.loc 11 185 5 view .LVU230
 185:/home/hallmar/Developer/gcc-arm-none-eabi-10.3-2021.10/arm-none-eabi/include/c++/10.3.1/cmath **** 
 972              		.loc 11 185 26 is_stmt 0 view .LVU231
 973 000a FFF7FEFF 		bl	cosf
 974              	.LVL50:
 185:/home/hallmar/Developer/gcc-arm-none-eabi-10.3-2021.10/arm-none-eabi/include/c++/10.3.1/cmath **** 
 975              		.loc 11 185 26 view .LVU232
 976              	.LBE615:
 977              	.LBE614:
 275:fjol.cpp      ****   //Serial.println(String("Left:") + left);
 978              		.loc 7 275 56 view .LVU233
 979 000e B7EEC00A 		vcvt.f64.f32	d0, s0
 275:fjol.cpp      ****   //Serial.println(String("Left:") + left);
 980              		.loc 7 275 29 view .LVU234
 981 0012 9FED0F6B 		vldr.64	d6, .L56
 275:fjol.cpp      ****   //Serial.println(String("Left:") + left);
 982              		.loc 7 275 32 view .LVU235
 983 0016 B7EEC87A 		vcvt.f64.f32	d7, s16
 275:fjol.cpp      ****   //Serial.println(String("Left:") + left);
 984              		.loc 7 275 40 view .LVU236
 985 001a 9FED0F5B 		vldr.64	d5, .L56+8
 275:fjol.cpp      ****   //Serial.println(String("Left:") + left);
 986              		.loc 7 275 29 view .LVU237
 987 001e 36EE477B 		vsub.f64	d7, d6, d7
 275:fjol.cpp      ****   //Serial.println(String("Left:") + left);
 988              		.loc 7 275 40 view .LVU238
ARM GAS  /tmp/ccxnfbgf.s 			page 44


 989 0022 27EE057B 		vmul.f64	d7, d7, d5
 275:fjol.cpp      ****   //Serial.println(String("Left:") + left);
 990              		.loc 7 275 20 view .LVU239
 991 0026 27EE007B 		vmul.f64	d7, d7, d0
 992 002a B5EE407B 		vcmp.f64	d7, #0
 993 002e F1EE10FA 		vmrs	APSR_nzcv, FPSCR
 994 0032 06D4     		bmi	.L54
 995 0034 B1EEC70B 		vsqrt.f64	d0, d7
 996              	.L52:
 997              	.LVL51:
 277:fjol.cpp      **** }
 998              		.loc 7 277 3 is_stmt 1 view .LVU240
 278:fjol.cpp      **** 
 999              		.loc 7 278 1 is_stmt 0 view .LVU241
 1000 0038 B7EEC00B 		vcvt.f32.f64	s0, d0
 1001              	.LVL52:
 278:fjol.cpp      **** 
 1002              		.loc 7 278 1 view .LVU242
 1003 003c BDEC028B 		vldm	sp!, {d8}
 1004              		.cfi_remember_state
 1005              		.cfi_restore 80
 1006              		.cfi_restore 81
 1007              		.cfi_def_cfa_offset 8
 1008              	.LVL53:
 278:fjol.cpp      **** 
 1009              		.loc 7 278 1 view .LVU243
 1010 0040 08BD     		pop	{r3, pc}
 1011              	.LVL54:
 1012              	.L54:
 1013              		.cfi_restore_state
 275:fjol.cpp      ****   //Serial.println(String("Left:") + left);
 1014              		.loc 7 275 20 view .LVU244
 1015 0042 B0EE470B 		vmov.f64	d0, d7
 1016 0046 FFF7FEFF 		bl	sqrt
 1017              	.LVL55:
 1018 004a F5E7     		b	.L52
 1019              	.L57:
 1020 004c AFF30080 		.align	3
 1021              	.L56:
 1022 0050 6E861BF0 		.word	-266631570
 1023 0054 F921F93F 		.word	1073291769
 1024 0058 F5DA7A8E 		.word	-1904551179
 1025 005c 315FE43F 		.word	1071931185
 1026              		.cfi_endproc
 1027              	.LFE4816:
 1029              		.section	.text._Z12updatespreadv,"ax",%progbits
 1030              		.align	1
 1031              		.p2align 2,,3
 1032              		.global	_Z12updatespreadv
 1033              		.syntax unified
 1034              		.thumb
 1035              		.thumb_func
 1037              	_Z12updatespreadv:
 1038              	.LFB4817:
 281:fjol.cpp      ****    //spread algorithm starts
 1039              		.loc 7 281 1 is_stmt 1 view -0
 1040              		.cfi_startproc
ARM GAS  /tmp/ccxnfbgf.s 			page 45


 1041              		@ args = 0, pretend = 0, frame = 0
 1042              		@ frame_needed = 0, uses_anonymous_args = 0
 283:fjol.cpp      ****   float lefttemp = calcleft( ((param[0]/2)+0.5)*PI/2 );
 1043              		.loc 7 283 3 view .LVU246
 281:fjol.cpp      ****    //spread algorithm starts
 1044              		.loc 7 281 1 is_stmt 0 view .LVU247
 1045 0000 38B5     		push	{r3, r4, r5, lr}
 1046              		.cfi_def_cfa_offset 16
 1047              		.cfi_offset 3, -16
 1048              		.cfi_offset 4, -12
 1049              		.cfi_offset 5, -8
 1050              		.cfi_offset 14, -4
 283:fjol.cpp      ****   float lefttemp = calcleft( ((param[0]/2)+0.5)*PI/2 );
 1051              		.loc 7 283 41 view .LVU248
 1052 0002 754D     		ldr	r5, .L80+24
 281:fjol.cpp      ****    //spread algorithm starts
 1053              		.loc 7 281 1 view .LVU249
 1054 0004 2DED0C8B 		vpush.64	{d8, d9, d10, d11, d12, d13}
 1055              		.cfi_def_cfa_offset 64
 1056              		.cfi_offset 80, -64
 1057              		.cfi_offset 81, -60
 1058              		.cfi_offset 82, -56
 1059              		.cfi_offset 83, -52
 1060              		.cfi_offset 84, -48
 1061              		.cfi_offset 85, -44
 1062              		.cfi_offset 86, -40
 1063              		.cfi_offset 87, -36
 1064              		.cfi_offset 88, -32
 1065              		.cfi_offset 89, -28
 1066              		.cfi_offset 90, -24
 1067              		.cfi_offset 91, -20
 283:fjol.cpp      ****   float lefttemp = calcleft( ((param[0]/2)+0.5)*PI/2 );
 1068              		.loc 7 283 42 view .LVU250
 1069 0008 F6EE009A 		vmov.f32	s19, #5.0e-1
 283:fjol.cpp      ****   float lefttemp = calcleft( ((param[0]/2)+0.5)*PI/2 );
 1070              		.loc 7 283 41 view .LVU251
 1071 000c 95ED00CA 		vldr.32	s24, [r5]
 283:fjol.cpp      ****   float lefttemp = calcleft( ((param[0]/2)+0.5)*PI/2 );
 1072              		.loc 7 283 45 view .LVU252
 1073 0010 B6EE00BB 		vmov.f64	d11, #5.0e-1
 283:fjol.cpp      ****   float lefttemp = calcleft( ((param[0]/2)+0.5)*PI/2 );
 1074              		.loc 7 283 42 view .LVU253
 1075 0014 2CEE290A 		vmul.f32	s0, s24, s19
 283:fjol.cpp      ****   float lefttemp = calcleft( ((param[0]/2)+0.5)*PI/2 );
 1076              		.loc 7 283 50 view .LVU254
 1077 0018 9FED698B 		vldr.64	d8, .L80
 283:fjol.cpp      ****   float lefttemp = calcleft( ((param[0]/2)+0.5)*PI/2 );
 1078              		.loc 7 283 42 view .LVU255
 1079 001c B7EEC00A 		vcvt.f64.f32	d0, s0
 283:fjol.cpp      ****   float lefttemp = calcleft( ((param[0]/2)+0.5)*PI/2 );
 1080              		.loc 7 283 45 view .LVU256
 1081 0020 30EE0B0B 		vadd.f64	d0, d0, d11
 283:fjol.cpp      ****   float lefttemp = calcleft( ((param[0]/2)+0.5)*PI/2 );
 1082              		.loc 7 283 50 view .LVU257
 1083 0024 20EE080B 		vmul.f64	d0, d0, d8
 283:fjol.cpp      ****   float lefttemp = calcleft( ((param[0]/2)+0.5)*PI/2 );
 1084              		.loc 7 283 53 view .LVU258
ARM GAS  /tmp/ccxnfbgf.s 			page 46


 1085 0028 20EE0B0B 		vmul.f64	d0, d0, d11
 283:fjol.cpp      ****   float lefttemp = calcleft( ((param[0]/2)+0.5)*PI/2 );
 1086              		.loc 7 283 30 view .LVU259
 1087 002c B7EEC09B 		vcvt.f32.f64	s18, d0
 1088              	.LVL56:
 1089              	.LBB632:
 1090              	.LBI632:
 265:fjol.cpp      **** {
 1091              		.loc 7 265 7 is_stmt 1 view .LVU260
 1092              	.LBB633:
 268:fjol.cpp      ****   //Serial.println(String("Right:") + right);
 1093              		.loc 7 268 3 view .LVU261
 1094              	.LBB634:
 1095              	.LBB635:
 1096              		.loc 11 426 26 is_stmt 0 view .LVU262
 1097 0030 B0EE490A 		vmov.f32	s0, s18
 1098 0034 FFF7FEFF 		bl	sinf
 1099              	.LVL57:
 1100              	.LBE635:
 1101              	.LBE634:
 268:fjol.cpp      ****   //Serial.println(String("Right:") + right);
 1102              		.loc 7 268 23 view .LVU263
 1103 0038 B7EEC9AA 		vcvt.f64.f32	d10, s18
 1104              	.LVL58:
 1105              	.LBB637:
 1106              	.LBI634:
 425:/home/hallmar/Developer/gcc-arm-none-eabi-10.3-2021.10/arm-none-eabi/include/c++/10.3.1/cmath ****   { return __builtin_sinf(__x); }
 1107              		.loc 11 425 3 is_stmt 1 view .LVU264
 1108              	.LBB636:
 1109              		.loc 11 426 5 view .LVU265
 1110              		.loc 11 426 5 is_stmt 0 view .LVU266
 1111              	.LBE636:
 1112              	.LBE637:
 268:fjol.cpp      ****   //Serial.println(String("Right:") + right);
 1113              		.loc 7 268 46 view .LVU267
 1114 003c B7EEC00A 		vcvt.f64.f32	d0, s0
 268:fjol.cpp      ****   //Serial.println(String("Right:") + right);
 1115              		.loc 7 268 30 view .LVU268
 1116 0040 9FED617B 		vldr.64	d7, .L80+8
 1117 0044 2AEE077B 		vmul.f64	d7, d10, d7
 268:fjol.cpp      ****   //Serial.println(String("Right:") + right);
 1118              		.loc 7 268 21 view .LVU269
 1119 0048 27EE000B 		vmul.f64	d0, d7, d0
 1120 004c B5EE400B 		vcmp.f64	d0, #0
 1121 0050 F1EE10FA 		vmrs	APSR_nzcv, FPSCR
 1122 0054 79D4     		bmi	.L75
 1123 0056 B1EEC07B 		vsqrt.f64	d7, d0
 1124              	.LVL59:
 1125              	.L61:
 268:fjol.cpp      ****   //Serial.println(String("Right:") + right);
 1126              		.loc 7 268 21 view .LVU270
 1127              	.LBE633:
 1128              	.LBE632:
 1129              	.LBB641:
 1130              	.LBB642:
 1131              	.LBB643:
 1132              	.LBB644:
ARM GAS  /tmp/ccxnfbgf.s 			page 47


 185:/home/hallmar/Developer/gcc-arm-none-eabi-10.3-2021.10/arm-none-eabi/include/c++/10.3.1/cmath **** 
 1133              		.loc 11 185 26 view .LVU271
 1134 005a B0EE490A 		vmov.f32	s0, s18
 1135              	.LBE644:
 1136              	.LBE643:
 1137              	.LBE642:
 1138              	.LBE641:
 1139              	.LBB652:
 1140              	.LBB638:
 268:fjol.cpp      ****   //Serial.println(String("Right:") + right);
 1141              		.loc 7 268 53 view .LVU272
 1142 005e F7EEC7CB 		vcvt.f32.f64	s25, d7
 1143              	.LVL60:
 270:fjol.cpp      **** }
 1144              		.loc 7 270 3 is_stmt 1 view .LVU273
 270:fjol.cpp      **** }
 1145              		.loc 7 270 3 is_stmt 0 view .LVU274
 1146              	.LBE638:
 1147              	.LBE652:
 284:fjol.cpp      ****   voice[0].panL = lefttemp;
 1148              		.loc 7 284 3 is_stmt 1 view .LVU275
 1149              	.LBB653:
 1150              	.LBI641:
 273:fjol.cpp      **** {
 1151              		.loc 7 273 7 view .LVU276
 1152              	.LBB647:
 275:fjol.cpp      ****   //Serial.println(String("Left:") + left);
 1153              		.loc 7 275 3 view .LVU277
 1154              	.LBB646:
 1155              	.LBI643:
 184:/home/hallmar/Developer/gcc-arm-none-eabi-10.3-2021.10/arm-none-eabi/include/c++/10.3.1/cmath ****   { return __builtin_cosf(__x); }
 1156              		.loc 11 184 3 view .LVU278
 1157              	.LBB645:
 185:/home/hallmar/Developer/gcc-arm-none-eabi-10.3-2021.10/arm-none-eabi/include/c++/10.3.1/cmath **** 
 1158              		.loc 11 185 5 view .LVU279
 185:/home/hallmar/Developer/gcc-arm-none-eabi-10.3-2021.10/arm-none-eabi/include/c++/10.3.1/cmath **** 
 1159              		.loc 11 185 26 is_stmt 0 view .LVU280
 1160 0062 FFF7FEFF 		bl	cosf
 1161              	.LVL61:
 185:/home/hallmar/Developer/gcc-arm-none-eabi-10.3-2021.10/arm-none-eabi/include/c++/10.3.1/cmath **** 
 1162              		.loc 11 185 26 view .LVU281
 1163              	.LBE645:
 1164              	.LBE646:
 275:fjol.cpp      ****   //Serial.println(String("Left:") + left);
 1165              		.loc 7 275 56 view .LVU282
 1166 0066 B7EEC00A 		vcvt.f64.f32	d0, s0
 275:fjol.cpp      ****   //Serial.println(String("Left:") + left);
 1167              		.loc 7 275 29 view .LVU283
 1168 006a 9FED597B 		vldr.64	d7, .L80+16
 275:fjol.cpp      ****   //Serial.println(String("Left:") + left);
 1169              		.loc 7 275 40 view .LVU284
 1170 006e 9FED566B 		vldr.64	d6, .L80+8
 275:fjol.cpp      ****   //Serial.println(String("Left:") + left);
 1171              		.loc 7 275 29 view .LVU285
 1172 0072 37EE4A7B 		vsub.f64	d7, d7, d10
 275:fjol.cpp      ****   //Serial.println(String("Left:") + left);
 1173              		.loc 7 275 40 view .LVU286
ARM GAS  /tmp/ccxnfbgf.s 			page 48


 1174 0076 27EE067B 		vmul.f64	d7, d7, d6
 275:fjol.cpp      ****   //Serial.println(String("Left:") + left);
 1175              		.loc 7 275 20 view .LVU287
 1176 007a 27EE000B 		vmul.f64	d0, d7, d0
 1177 007e B5EE400B 		vcmp.f64	d0, #0
 1178 0082 F1EE10FA 		vmrs	APSR_nzcv, FPSCR
 1179 0086 00F19180 		bmi	.L76
 1180 008a B1EEC06B 		vsqrt.f64	d6, d0
 1181              	.L64:
 1182              	.LBE647:
 1183              	.LBE653:
 290:fjol.cpp      ****   lefttemp = calcleft( (( (1-param[0])/400 )+0.25)*PI/2 );
 1184              		.loc 7 290 41 view .LVU288
 1185 008e DFED53BA 		vldr.32	s23, .L80+28
 285:fjol.cpp      ****   voice[0].panR = righttemp;
 1186              		.loc 7 285 17 view .LVU289
 1187 0092 534C     		ldr	r4, .L80+32
 290:fjol.cpp      ****   lefttemp = calcleft( (( (1-param[0])/400 )+0.25)*PI/2 );
 1188              		.loc 7 290 31 view .LVU290
 1189 0094 B7EE00BA 		vmov.f32	s22, #1.0e+0
 286:fjol.cpp      ****   voice[3].panL = lefttemp;
 1190              		.loc 7 286 17 view .LVU291
 1191 0098 C4ED25CA 		vstr.32	s25, [r4, #148]
 290:fjol.cpp      ****   lefttemp = calcleft( (( (1-param[0])/400 )+0.25)*PI/2 );
 1192              		.loc 7 290 48 view .LVU292
 1193 009c B5EE00AB 		vmov.f64	d10, #2.5e-1
 288:fjol.cpp      **** 
 1194              		.loc 7 288 17 view .LVU293
 1195 00a0 C4EDAFCA 		vstr.32	s25, [r4, #700]
 290:fjol.cpp      ****   lefttemp = calcleft( (( (1-param[0])/400 )+0.25)*PI/2 );
 1196              		.loc 7 290 57 view .LVU294
 1197 00a4 B6EE008B 		vmov.f64	d8, #5.0e-1
 290:fjol.cpp      ****   lefttemp = calcleft( (( (1-param[0])/400 )+0.25)*PI/2 );
 1198              		.loc 7 290 31 view .LVU295
 1199 00a8 3BEE4CCA 		vsub.f32	s24, s22, s24
 1200              	.LBB654:
 1201              	.LBB648:
 275:fjol.cpp      ****   //Serial.println(String("Left:") + left);
 1202              		.loc 7 275 63 view .LVU296
 1203 00ac B7EEC66B 		vcvt.f32.f64	s12, d6
 1204              	.LVL62:
 277:fjol.cpp      **** }
 1205              		.loc 7 277 3 is_stmt 1 view .LVU297
 277:fjol.cpp      **** }
 1206              		.loc 7 277 3 is_stmt 0 view .LVU298
 1207              	.LBE648:
 1208              	.LBE654:
 285:fjol.cpp      ****   voice[0].panR = righttemp;
 1209              		.loc 7 285 3 is_stmt 1 view .LVU299
 290:fjol.cpp      ****   lefttemp = calcleft( (( (1-param[0])/400 )+0.25)*PI/2 );
 1210              		.loc 7 290 41 is_stmt 0 view .LVU300
 1211 00b0 8CEE2B0A 		vdiv.f32	s0, s24, s23
 285:fjol.cpp      ****   voice[0].panR = righttemp;
 1212              		.loc 7 285 17 view .LVU301
 1213 00b4 84ED246A 		vstr.32	s12, [r4, #144]
 286:fjol.cpp      ****   voice[3].panL = lefttemp;
 1214              		.loc 7 286 3 is_stmt 1 view .LVU302
ARM GAS  /tmp/ccxnfbgf.s 			page 49


 287:fjol.cpp      ****   voice[3].panR = righttemp;
 1215              		.loc 7 287 3 view .LVU303
 287:fjol.cpp      ****   voice[3].panR = righttemp;
 1216              		.loc 7 287 17 is_stmt 0 view .LVU304
 1217 00b8 84EDAE6A 		vstr.32	s12, [r4, #696]
 288:fjol.cpp      **** 
 1218              		.loc 7 288 3 is_stmt 1 view .LVU305
 290:fjol.cpp      ****   lefttemp = calcleft( (( (1-param[0])/400 )+0.25)*PI/2 );
 1219              		.loc 7 290 3 view .LVU306
 290:fjol.cpp      ****   lefttemp = calcleft( (( (1-param[0])/400 )+0.25)*PI/2 );
 1220              		.loc 7 290 54 is_stmt 0 view .LVU307
 1221 00bc 9FED409B 		vldr.64	d9, .L80
 290:fjol.cpp      ****   lefttemp = calcleft( (( (1-param[0])/400 )+0.25)*PI/2 );
 1222              		.loc 7 290 41 view .LVU308
 1223 00c0 B7EEC00A 		vcvt.f64.f32	d0, s0
 290:fjol.cpp      ****   lefttemp = calcleft( (( (1-param[0])/400 )+0.25)*PI/2 );
 1224              		.loc 7 290 48 view .LVU309
 1225 00c4 30EE0A0B 		vadd.f64	d0, d0, d10
 290:fjol.cpp      ****   lefttemp = calcleft( (( (1-param[0])/400 )+0.25)*PI/2 );
 1226              		.loc 7 290 54 view .LVU310
 1227 00c8 20EE090B 		vmul.f64	d0, d0, d9
 290:fjol.cpp      ****   lefttemp = calcleft( (( (1-param[0])/400 )+0.25)*PI/2 );
 1228              		.loc 7 290 57 view .LVU311
 1229 00cc 20EE080B 		vmul.f64	d0, d0, d8
 290:fjol.cpp      ****   lefttemp = calcleft( (( (1-param[0])/400 )+0.25)*PI/2 );
 1230              		.loc 7 290 24 view .LVU312
 1231 00d0 B7EEC0DB 		vcvt.f32.f64	s26, d0
 1232              	.LVL63:
 1233              	.LBB655:
 1234              	.LBI655:
 265:fjol.cpp      **** {
 1235              		.loc 7 265 7 is_stmt 1 view .LVU313
 1236              	.LBB656:
 268:fjol.cpp      ****   //Serial.println(String("Right:") + right);
 1237              		.loc 7 268 3 view .LVU314
 1238              	.LBB657:
 1239              	.LBB658:
 1240              		.loc 11 426 26 is_stmt 0 view .LVU315
 1241 00d4 B0EE4D0A 		vmov.f32	s0, s26
 1242 00d8 FFF7FEFF 		bl	sinf
 1243              	.LVL64:
 1244              		.loc 11 426 26 view .LVU316
 1245              	.LBE658:
 1246              	.LBE657:
 268:fjol.cpp      ****   //Serial.println(String("Right:") + right);
 1247              		.loc 7 268 23 view .LVU317
 1248 00dc B7EECDCA 		vcvt.f64.f32	d12, s26
 1249              	.LVL65:
 1250              	.LBB660:
 1251              	.LBI657:
 425:/home/hallmar/Developer/gcc-arm-none-eabi-10.3-2021.10/arm-none-eabi/include/c++/10.3.1/cmath ****   { return __builtin_sinf(__x); }
 1252              		.loc 11 425 3 is_stmt 1 view .LVU318
 1253              	.LBB659:
 1254              		.loc 11 426 5 view .LVU319
 1255              		.loc 11 426 5 is_stmt 0 view .LVU320
 1256              	.LBE659:
 1257              	.LBE660:
ARM GAS  /tmp/ccxnfbgf.s 			page 50


 268:fjol.cpp      ****   //Serial.println(String("Right:") + right);
 1258              		.loc 7 268 46 view .LVU321
 1259 00e0 B7EEC00A 		vcvt.f64.f32	d0, s0
 268:fjol.cpp      ****   //Serial.println(String("Right:") + right);
 1260              		.loc 7 268 30 view .LVU322
 1261 00e4 9FED387B 		vldr.64	d7, .L80+8
 1262 00e8 2CEE077B 		vmul.f64	d7, d12, d7
 268:fjol.cpp      ****   //Serial.println(String("Right:") + right);
 1263              		.loc 7 268 21 view .LVU323
 1264 00ec 27EE000B 		vmul.f64	d0, d7, d0
 1265 00f0 B5EE400B 		vcmp.f64	d0, #0
 1266 00f4 F1EE10FA 		vmrs	APSR_nzcv, FPSCR
 1267 00f8 41D4     		bmi	.L77
 1268 00fa B1EEC06B 		vsqrt.f64	d6, d0
 1269              	.LVL66:
 1270              	.L67:
 268:fjol.cpp      ****   //Serial.println(String("Right:") + right);
 1271              		.loc 7 268 21 view .LVU324
 1272              	.LBE656:
 1273              	.LBE655:
 1274              	.LBB664:
 1275              	.LBB665:
 1276              	.LBB666:
 1277              	.LBB667:
 185:/home/hallmar/Developer/gcc-arm-none-eabi-10.3-2021.10/arm-none-eabi/include/c++/10.3.1/cmath **** 
 1278              		.loc 11 185 26 view .LVU325
 1279 00fe B0EE4D0A 		vmov.f32	s0, s26
 1280              	.LBE667:
 1281              	.LBE666:
 1282              	.LBE665:
 1283              	.LBE664:
 1284              	.LBB674:
 1285              	.LBB661:
 268:fjol.cpp      ****   //Serial.println(String("Right:") + right);
 1286              		.loc 7 268 53 view .LVU326
 1287 0102 B7EEC68B 		vcvt.f32.f64	s16, d6
 1288              	.LVL67:
 270:fjol.cpp      **** }
 1289              		.loc 7 270 3 is_stmt 1 view .LVU327
 270:fjol.cpp      **** }
 1290              		.loc 7 270 3 is_stmt 0 view .LVU328
 1291              	.LBE661:
 1292              	.LBE674:
 291:fjol.cpp      ****   voice[1].panL = lefttemp;
 1293              		.loc 7 291 3 is_stmt 1 view .LVU329
 1294              	.LBB675:
 1295              	.LBI664:
 273:fjol.cpp      **** {
 1296              		.loc 7 273 7 view .LVU330
 1297              	.LBB670:
 275:fjol.cpp      ****   //Serial.println(String("Left:") + left);
 1298              		.loc 7 275 3 view .LVU331
 1299              	.LBB669:
 1300              	.LBI666:
 184:/home/hallmar/Developer/gcc-arm-none-eabi-10.3-2021.10/arm-none-eabi/include/c++/10.3.1/cmath ****   { return __builtin_cosf(__x); }
 1301              		.loc 11 184 3 view .LVU332
 1302              	.LBB668:
ARM GAS  /tmp/ccxnfbgf.s 			page 51


 185:/home/hallmar/Developer/gcc-arm-none-eabi-10.3-2021.10/arm-none-eabi/include/c++/10.3.1/cmath **** 
 1303              		.loc 11 185 5 view .LVU333
 185:/home/hallmar/Developer/gcc-arm-none-eabi-10.3-2021.10/arm-none-eabi/include/c++/10.3.1/cmath **** 
 1304              		.loc 11 185 26 is_stmt 0 view .LVU334
 1305 0106 FFF7FEFF 		bl	cosf
 1306              	.LVL68:
 185:/home/hallmar/Developer/gcc-arm-none-eabi-10.3-2021.10/arm-none-eabi/include/c++/10.3.1/cmath **** 
 1307              		.loc 11 185 26 view .LVU335
 1308              	.LBE668:
 1309              	.LBE669:
 275:fjol.cpp      ****   //Serial.println(String("Left:") + left);
 1310              		.loc 7 275 56 view .LVU336
 1311 010a B7EEC00A 		vcvt.f64.f32	d0, s0
 275:fjol.cpp      ****   //Serial.println(String("Left:") + left);
 1312              		.loc 7 275 29 view .LVU337
 1313 010e 9FED307B 		vldr.64	d7, .L80+16
 275:fjol.cpp      ****   //Serial.println(String("Left:") + left);
 1314              		.loc 7 275 40 view .LVU338
 1315 0112 9FED2D6B 		vldr.64	d6, .L80+8
 275:fjol.cpp      ****   //Serial.println(String("Left:") + left);
 1316              		.loc 7 275 29 view .LVU339
 1317 0116 37EE4CCB 		vsub.f64	d12, d7, d12
 275:fjol.cpp      ****   //Serial.println(String("Left:") + left);
 1318              		.loc 7 275 40 view .LVU340
 1319 011a 2CEE06CB 		vmul.f64	d12, d12, d6
 275:fjol.cpp      ****   //Serial.println(String("Left:") + left);
 1320              		.loc 7 275 20 view .LVU341
 1321 011e 2CEE000B 		vmul.f64	d0, d12, d0
 1322 0122 B5EE400B 		vcmp.f64	d0, #0
 1323 0126 F1EE10FA 		vmrs	APSR_nzcv, FPSCR
 1324 012a 23D4     		bmi	.L78
 1325 012c B1EEC07B 		vsqrt.f64	d7, d0
 1326              	.L70:
 1327              	.LBE670:
 1328              	.LBE675:
 293:fjol.cpp      ****   voice[2].panL = lefttemp;
 1329              		.loc 7 293 17 view .LVU342
 1330 0130 84ED538A 		vstr.32	s16, [r4, #332]
 295:fjol.cpp      **** }
 1331              		.loc 7 295 17 view .LVU343
 1332 0134 84ED818A 		vstr.32	s16, [r4, #516]
 1333              	.LBB676:
 1334              	.LBB671:
 275:fjol.cpp      ****   //Serial.println(String("Left:") + left);
 1335              		.loc 7 275 63 view .LVU344
 1336 0138 B7EEC77B 		vcvt.f32.f64	s14, d7
 1337              	.LVL69:
 277:fjol.cpp      **** }
 1338              		.loc 7 277 3 is_stmt 1 view .LVU345
 277:fjol.cpp      **** }
 1339              		.loc 7 277 3 is_stmt 0 view .LVU346
 1340              	.LBE671:
 1341              	.LBE676:
 292:fjol.cpp      ****   voice[1].panR = righttemp;
 1342              		.loc 7 292 3 is_stmt 1 view .LVU347
 296:fjol.cpp      **** 
 1343              		.loc 7 296 1 is_stmt 0 view .LVU348
ARM GAS  /tmp/ccxnfbgf.s 			page 52


 1344 013c BDEC0C8B 		vldm	sp!, {d8-d13}
 1345              		.cfi_remember_state
 1346              		.cfi_restore 90
 1347              		.cfi_restore 91
 1348              		.cfi_restore 88
 1349              		.cfi_restore 89
 1350              		.cfi_restore 86
 1351              		.cfi_restore 87
 1352              		.cfi_restore 84
 1353              		.cfi_restore 85
 1354              		.cfi_restore 82
 1355              		.cfi_restore 83
 1356              		.cfi_restore 80
 1357              		.cfi_restore 81
 1358              		.cfi_def_cfa_offset 16
 1359              	.LVL70:
 292:fjol.cpp      ****   voice[1].panR = righttemp;
 1360              		.loc 7 292 17 view .LVU349
 1361 0140 84ED527A 		vstr.32	s14, [r4, #328]
 293:fjol.cpp      ****   voice[2].panL = lefttemp;
 1362              		.loc 7 293 3 is_stmt 1 view .LVU350
 294:fjol.cpp      ****   voice[2].panR = righttemp;
 1363              		.loc 7 294 3 view .LVU351
 294:fjol.cpp      ****   voice[2].panR = righttemp;
 1364              		.loc 7 294 17 is_stmt 0 view .LVU352
 1365 0144 84ED807A 		vstr.32	s14, [r4, #512]
 295:fjol.cpp      **** }
 1366              		.loc 7 295 3 is_stmt 1 view .LVU353
 296:fjol.cpp      **** 
 1367              		.loc 7 296 1 is_stmt 0 view .LVU354
 1368 0148 38BD     		pop	{r3, r4, r5, pc}
 1369              	.LVL71:
 1370              	.L75:
 1371              		.cfi_restore_state
 1372              	.LBB677:
 1373              	.LBB639:
 268:fjol.cpp      ****   //Serial.println(String("Right:") + right);
 1374              		.loc 7 268 21 view .LVU355
 1375 014a FFF7FEFF 		bl	sqrt
 1376              	.LVL72:
 1377              	.LBE639:
 1378              	.LBE677:
 284:fjol.cpp      ****   voice[0].panL = lefttemp;
 1379              		.loc 7 284 39 view .LVU356
 1380 014e 95ED00CA 		vldr.32	s24, [r5]
 1381              	.LBB678:
 1382              	.LBB640:
 268:fjol.cpp      ****   //Serial.println(String("Right:") + right);
 1383              		.loc 7 268 21 view .LVU357
 1384 0152 B0EE407B 		vmov.f64	d7, d0
 1385              	.LBE640:
 1386              	.LBE678:
 284:fjol.cpp      ****   voice[0].panL = lefttemp;
 1387              		.loc 7 284 40 view .LVU358
 1388 0156 2CEE290A 		vmul.f32	s0, s24, s19
 1389 015a B7EEC00A 		vcvt.f64.f32	d0, s0
 284:fjol.cpp      ****   voice[0].panL = lefttemp;
ARM GAS  /tmp/ccxnfbgf.s 			page 53


 1390              		.loc 7 284 43 view .LVU359
 1391 015e 30EE0B0B 		vadd.f64	d0, d0, d11
 284:fjol.cpp      ****   voice[0].panL = lefttemp;
 1392              		.loc 7 284 48 view .LVU360
 1393 0162 20EE080B 		vmul.f64	d0, d0, d8
 284:fjol.cpp      ****   voice[0].panL = lefttemp;
 1394              		.loc 7 284 51 view .LVU361
 1395 0166 20EE0B0B 		vmul.f64	d0, d0, d11
 284:fjol.cpp      ****   voice[0].panL = lefttemp;
 1396              		.loc 7 284 28 view .LVU362
 1397 016a B7EEC09B 		vcvt.f32.f64	s18, d0
 1398              	.LVL73:
 1399              	.LBB679:
 1400              	.LBB649:
 275:fjol.cpp      ****   //Serial.println(String("Left:") + left);
 1401              		.loc 7 275 32 view .LVU363
 1402 016e B7EEC9AA 		vcvt.f64.f32	d10, s18
 1403 0172 72E7     		b	.L61
 1404              	.LVL74:
 1405              	.L78:
 275:fjol.cpp      ****   //Serial.println(String("Left:") + left);
 1406              		.loc 7 275 32 view .LVU364
 1407              	.LBE649:
 1408              	.LBE679:
 1409              	.LBB680:
 1410              	.LBB672:
 275:fjol.cpp      ****   //Serial.println(String("Left:") + left);
 1411              		.loc 7 275 20 view .LVU365
 1412 0174 FFF7FEFF 		bl	sqrt
 1413              	.LVL75:
 1414 0178 B0EE407B 		vmov.f64	d7, d0
 1415 017c D8E7     		b	.L70
 1416              	.LVL76:
 1417              	.L77:
 275:fjol.cpp      ****   //Serial.println(String("Left:") + left);
 1418              		.loc 7 275 20 view .LVU366
 1419              	.LBE672:
 1420              	.LBE680:
 1421              	.LBB681:
 1422              	.LBB662:
 268:fjol.cpp      ****   //Serial.println(String("Right:") + right);
 1423              		.loc 7 268 21 view .LVU367
 1424 017e FFF7FEFF 		bl	sqrt
 1425              	.LVL77:
 1426              	.LBE662:
 1427              	.LBE681:
 291:fjol.cpp      ****   voice[1].panL = lefttemp;
 1428              		.loc 7 291 29 view .LVU368
 1429 0182 D5ED007A 		vldr.32	s15, [r5]
 1430              	.LBB682:
 1431              	.LBB663:
 268:fjol.cpp      ****   //Serial.println(String("Right:") + right);
 1432              		.loc 7 268 21 view .LVU369
 1433 0186 B0EE406B 		vmov.f64	d6, d0
 1434              	.LBE663:
 1435              	.LBE682:
 291:fjol.cpp      ****   voice[1].panL = lefttemp;
ARM GAS  /tmp/ccxnfbgf.s 			page 54


 1436              		.loc 7 291 29 view .LVU370
 1437 018a 3BEE67BA 		vsub.f32	s22, s22, s15
 291:fjol.cpp      ****   voice[1].panL = lefttemp;
 1438              		.loc 7 291 39 view .LVU371
 1439 018e 8BEE2B7A 		vdiv.f32	s14, s22, s23
 1440 0192 B7EEC77A 		vcvt.f64.f32	d7, s14
 291:fjol.cpp      ****   voice[1].panL = lefttemp;
 1441              		.loc 7 291 45 view .LVU372
 1442 0196 37EE0AAB 		vadd.f64	d10, d7, d10
 291:fjol.cpp      ****   voice[1].panL = lefttemp;
 1443              		.loc 7 291 51 view .LVU373
 1444 019a 2AEE099B 		vmul.f64	d9, d10, d9
 291:fjol.cpp      ****   voice[1].panL = lefttemp;
 1445              		.loc 7 291 54 view .LVU374
 1446 019e 29EE088B 		vmul.f64	d8, d9, d8
 291:fjol.cpp      ****   voice[1].panL = lefttemp;
 1447              		.loc 7 291 22 view .LVU375
 1448 01a2 B7EEC8DB 		vcvt.f32.f64	s26, d8
 1449              	.LVL78:
 1450              	.LBB683:
 1451              	.LBB673:
 275:fjol.cpp      ****   //Serial.println(String("Left:") + left);
 1452              		.loc 7 275 32 view .LVU376
 1453 01a6 B7EECDCA 		vcvt.f64.f32	d12, s26
 1454 01aa A8E7     		b	.L67
 1455              	.L76:
 275:fjol.cpp      ****   //Serial.println(String("Left:") + left);
 1456              		.loc 7 275 32 view .LVU377
 1457              	.LBE673:
 1458              	.LBE683:
 1459              	.LBB684:
 1460              	.LBB650:
 275:fjol.cpp      ****   //Serial.println(String("Left:") + left);
 1461              		.loc 7 275 20 view .LVU378
 1462 01ac FFF7FEFF 		bl	sqrt
 1463              	.LVL79:
 1464              	.LBE650:
 1465              	.LBE684:
 290:fjol.cpp      ****   lefttemp = calcleft( (( (1-param[0])/400 )+0.25)*PI/2 );
 1466              		.loc 7 290 39 view .LVU379
 1467 01b0 95ED00CA 		vldr.32	s24, [r5]
 1468              	.LBB685:
 1469              	.LBB651:
 275:fjol.cpp      ****   //Serial.println(String("Left:") + left);
 1470              		.loc 7 275 20 view .LVU380
 1471 01b4 B0EE406B 		vmov.f64	d6, d0
 1472 01b8 69E7     		b	.L64
 1473              	.L81:
 1474 01ba 00BFAFF3 		.align	3
 1474      0080
 1475              	.L80:
 1476 01c0 6E861BF0 		.word	-266631570
 1477 01c4 F9210940 		.word	1074340345
 1478 01c8 F5DA7A8E 		.word	-1904551179
 1479 01cc 315FE43F 		.word	1071931185
 1480 01d0 6E861BF0 		.word	-266631570
 1481 01d4 F921F93F 		.word	1073291769
ARM GAS  /tmp/ccxnfbgf.s 			page 55


 1482 01d8 00000000 		.word	param
 1483 01dc 0000C843 		.word	1137180672
 1484 01e0 00000000 		.word	.LANCHOR0
 1485              	.LBE651:
 1486              	.LBE685:
 1487              		.cfi_endproc
 1488              	.LFE4817:
 1490              		.section	.text._Z16getorsetsettingsb,"ax",%progbits
 1491              		.align	1
 1492              		.p2align 2,,3
 1493              		.global	_Z16getorsetsettingsb
 1494              		.syntax unified
 1495              		.thumb
 1496              		.thumb_func
 1498              	_Z16getorsetsettingsb:
 1499              	.LVL80:
 1500              	.LFB4818:
 299:fjol.cpp      ****   uint8_t eeaddress = 0;
 1501              		.loc 7 299 1 is_stmt 1 view -0
 1502              		.cfi_startproc
 1503              		@ args = 0, pretend = 0, frame = 40
 1504              		@ frame_needed = 0, uses_anonymous_args = 0
 300:fjol.cpp      **** 
 1505              		.loc 7 300 3 view .LVU382
 302:fjol.cpp      ****   if (getorset == load)
 1506              		.loc 7 302 3 view .LVU383
 299:fjol.cpp      ****   uint8_t eeaddress = 0;
 1507              		.loc 7 299 1 is_stmt 0 view .LVU384
 1508 0000 30B5     		push	{r4, r5, lr}
 1509              		.cfi_def_cfa_offset 12
 1510              		.cfi_offset 4, -12
 1511              		.cfi_offset 5, -8
 1512              		.cfi_offset 14, -4
 302:fjol.cpp      ****   if (getorset == load)
 1513              		.loc 7 302 8 view .LVU385
 1514 0002 144C     		ldr	r4, .L85
 299:fjol.cpp      ****   uint8_t eeaddress = 0;
 1515              		.loc 7 299 1 view .LVU386
 1516 0004 8BB0     		sub	sp, sp, #44
 1517              		.cfi_def_cfa_offset 56
 1518              	.LBB700:
 303:fjol.cpp      ****   {
 1519              		.loc 7 303 3 view .LVU387
 1520 0006 8646     		mov	lr, r0
 1521              	.LBE700:
 302:fjol.cpp      ****   if (getorset == load)
 1522              		.loc 7 302 8 view .LVU388
 1523 0008 EC46     		mov	ip, sp
 1524 000a 0FCC     		ldmia	r4!, {r0, r1, r2, r3}
 1525              	.LVL81:
 302:fjol.cpp      ****   if (getorset == load)
 1526              		.loc 7 302 8 view .LVU389
 1527 000c ACE80F00 		stmia	ip!, {r0, r1, r2, r3}
 1528 0010 0FCC     		ldmia	r4!, {r0, r1, r2, r3}
 1529 0012 ACE80F00 		stmia	ip!, {r0, r1, r2, r3}
 1530 0016 94E80300 		ldm	r4, {r0, r1}
 1531 001a 8CE80300 		stm	ip, {r0, r1}
ARM GAS  /tmp/ccxnfbgf.s 			page 56


 303:fjol.cpp      ****   {
 1532              		.loc 7 303 3 is_stmt 1 view .LVU390
 1533              	.LBB703:
 1534 001e BEF1000F 		cmp	lr, #0
 1535 0022 14D1     		bne	.L82
 1536              	.LBE703:
 1537              	.LBB704:
 1538              	.LBB705:
 1539              	.LBB706:
 310:fjol.cpp      ****     enc[0].ctlcvdest = qspidata.d_states[1];
 1540              		.loc 7 310 20 is_stmt 0 view .LVU391
 1541 0024 0C4B     		ldr	r3, .L85+4
 312:fjol.cpp      ****     enc[1].ctlcvdest = qspidata.d_states[3];
 1542              		.loc 7 312 20 view .LVU392
 1543 0026 40F20442 		movw	r2, #1028
 1544              	.LBE706:
 1545              	.LBE705:
 1546              	.LBE704:
 1547              	.LBB711:
 1548              	.LBB701:
 308:fjol.cpp      ****     }
 1549              		.loc 7 308 16 view .LVU393
 1550 002a 6C46     		mov	r4, sp
 1551 002c 0B4D     		ldr	r5, .L85+8
 1552              	.LBE701:
 1553              	.LBE711:
 1554              	.LBB712:
 1555              	.LBB709:
 1556              	.LBB707:
 312:fjol.cpp      ****     enc[1].ctlcvdest = qspidata.d_states[3];
 1557              		.loc 7 312 20 view .LVU394
 1558 002e A3F85420 		strh	r2, [r3, #84]	@ movhi
 314:fjol.cpp      ****     midichannel = qspidata.d_states[5];
 1559              		.loc 7 314 17 view .LVU395
 1560 0032 0B4A     		ldr	r2, .L85+12
 310:fjol.cpp      ****     enc[0].ctlcvdest = qspidata.d_states[1];
 1561              		.loc 7 310 20 view .LVU396
 1562 0034 A3F828E0 		strh	lr, [r3, #40]	@ movhi
 314:fjol.cpp      ****     midichannel = qspidata.d_states[5];
 1563              		.loc 7 314 17 view .LVU397
 1564 0038 82F800E0 		strb	lr, [r2]
 315:fjol.cpp      ****     return;
 1565              		.loc 7 315 17 view .LVU398
 1566 003c 0122     		movs	r2, #1
 1567 003e 094B     		ldr	r3, .L85+16
 1568 0040 1A70     		strb	r2, [r3]
 1569              	.LBE707:
 1570              	.LBE709:
 1571              	.LBE712:
 1572              	.LBB713:
 1573              	.LBB702:
 308:fjol.cpp      ****     }
 1574              		.loc 7 308 16 view .LVU399
 1575 0042 0FCC     		ldmia	r4!, {r0, r1, r2, r3}
 1576 0044 0FC5     		stmia	r5!, {r0, r1, r2, r3}
 1577 0046 94E80F00 		ldm	r4, {r0, r1, r2, r3}
 1578 004a 85E80F00 		stm	r5, {r0, r1, r2, r3}
ARM GAS  /tmp/ccxnfbgf.s 			page 57


 1579              	.LBE702:
 1580              	.LBE713:
 1581              	.LBB714:
 1582              	.LBI704:
 298:fjol.cpp      **** {
 1583              		.loc 7 298 6 is_stmt 1 view .LVU400
 1584              	.LVL82:
 1585              	.LBB710:
 1586              	.LBB708:
 310:fjol.cpp      ****     enc[0].ctlcvdest = qspidata.d_states[1];
 1587              		.loc 7 310 5 view .LVU401
 311:fjol.cpp      ****     enc[1].ctldest = qspidata.d_states[2];
 1588              		.loc 7 311 5 view .LVU402
 312:fjol.cpp      ****     enc[1].ctlcvdest = qspidata.d_states[3];
 1589              		.loc 7 312 5 view .LVU403
 313:fjol.cpp      ****     algo_select = qspidata.d_states[4];
 1590              		.loc 7 313 5 view .LVU404
 314:fjol.cpp      ****     midichannel = qspidata.d_states[5];
 1591              		.loc 7 314 5 view .LVU405
 315:fjol.cpp      ****     return;
 1592              		.loc 7 315 5 view .LVU406
 316:fjol.cpp      ****   }
 1593              		.loc 7 316 5 view .LVU407
 1594              	.L82:
 316:fjol.cpp      ****   }
 1595              		.loc 7 316 5 is_stmt 0 view .LVU408
 1596              	.LBE708:
 1597              	.LBE710:
 1598              	.LBE714:
 348:fjol.cpp      **** 
 1599              		.loc 7 348 1 view .LVU409
 1600 004e 0BB0     		add	sp, sp, #44
 1601              		.cfi_def_cfa_offset 12
 1602              		@ sp needed
 1603 0050 30BD     		pop	{r4, r5, pc}
 1604              	.L86:
 1605 0052 00BF     		.align	2
 1606              	.L85:
 1607 0054 00000000 		.word	.LANCHOR3
 1608 0058 00000000 		.word	.LANCHOR4
 1609 005c 00000000 		.word	param
 1610 0060 00000000 		.word	algo_select
 1611 0064 00000000 		.word	midichannel
 1612              		.cfi_endproc
 1613              	.LFE4818:
 1615              		.section	.text._Z8glidevalv,"ax",%progbits
 1616              		.align	1
 1617              		.p2align 2,,3
 1618              		.global	_Z8glidevalv
 1619              		.syntax unified
 1620              		.thumb
 1621              		.thumb_func
 1623              	_Z8glidevalv:
 1624              	.LFB4822:
 351:fjol.cpp      ****   int voicenumb = 4;
 1625              		.loc 7 351 1 is_stmt 1 view -0
 1626              		.cfi_startproc
ARM GAS  /tmp/ccxnfbgf.s 			page 58


 1627              		@ args = 0, pretend = 0, frame = 0
 1628              		@ frame_needed = 0, uses_anonymous_args = 0
 1629              		@ link register save eliminated.
 352:fjol.cpp      ****   if (glidetime > 0)
 1630              		.loc 7 352 3 view .LVU411
 1631              	.LVL83:
 353:fjol.cpp      ****   {
 1632              		.loc 7 353 3 view .LVU412
 1633              	.LBB719:
 353:fjol.cpp      ****   {
 1634              		.loc 7 353 17 is_stmt 0 view .LVU413
 1635 0000 0D4B     		ldr	r3, .L93
 1636 0002 D3ED007A 		vldr.32	s15, [r3]
 353:fjol.cpp      ****   {
 1637              		.loc 7 353 3 view .LVU414
 1638 0006 F5EEC07A 		vcmpe.f32	s15, #0
 1639 000a F1EE10FA 		vmrs	APSR_nzcv, FPSCR
 1640 000e 01DD     		ble	.L92
 1641              	.LBE719:
 1642 0010 FFF7FEBF 		b	_Z8glidevalv.part.0
 1643              	.LVL84:
 1644              	.L92:
 376:fjol.cpp      ****   {
 1645              		.loc 7 376 8 is_stmt 1 view .LVU415
 1646              	.LBB722:
 1647              	.LBB720:
 1648 0014 F5EE407A 		vcmp.f32	s15, #0
 1649 0018 F1EE10FA 		vmrs	APSR_nzcv, FPSCR
 1650 001c 0BD1     		bne	.L87
 1651              	.LVL85:
 1652              	.LBB721:
 378:fjol.cpp      ****     {
 1653              		.loc 7 378 23 view .LVU416
 380:fjol.cpp      ****     }
 1654              		.loc 7 380 7 view .LVU417
 380:fjol.cpp      ****     }
 1655              		.loc 7 380 39 is_stmt 0 view .LVU418
 1656 001e 074A     		ldr	r2, .L93+4
 380:fjol.cpp      ****     }
 1657              		.loc 7 380 20 view .LVU419
 1658 0020 074B     		ldr	r3, .L93+8
 1659 0022 D2F800C0 		ldr	ip, [r2]	@ float
 1660 0026 5068     		ldr	r0, [r2, #4]	@ float
 1661 0028 9168     		ldr	r1, [r2, #8]	@ float
 1662 002a D268     		ldr	r2, [r2, #12]	@ float
 1663 002c C3F800C0 		str	ip, [r3]	@ float
 378:fjol.cpp      ****     {
 1664              		.loc 7 378 5 is_stmt 1 view .LVU420
 1665              	.LVL86:
 378:fjol.cpp      ****     {
 1666              		.loc 7 378 23 view .LVU421
 380:fjol.cpp      ****     }
 1667              		.loc 7 380 7 view .LVU422
 380:fjol.cpp      ****     }
 1668              		.loc 7 380 20 is_stmt 0 view .LVU423
 1669 0030 5860     		str	r0, [r3, #4]	@ float
 378:fjol.cpp      ****     {
ARM GAS  /tmp/ccxnfbgf.s 			page 59


 1670              		.loc 7 378 5 is_stmt 1 view .LVU424
 1671              	.LVL87:
 378:fjol.cpp      ****     {
 1672              		.loc 7 378 23 view .LVU425
 380:fjol.cpp      ****     }
 1673              		.loc 7 380 7 view .LVU426
 380:fjol.cpp      ****     }
 1674              		.loc 7 380 20 is_stmt 0 view .LVU427
 1675 0032 9960     		str	r1, [r3, #8]	@ float
 378:fjol.cpp      ****     {
 1676              		.loc 7 378 5 is_stmt 1 view .LVU428
 1677              	.LVL88:
 378:fjol.cpp      ****     {
 1678              		.loc 7 378 23 view .LVU429
 380:fjol.cpp      ****     }
 1679              		.loc 7 380 7 view .LVU430
 380:fjol.cpp      ****     }
 1680              		.loc 7 380 20 is_stmt 0 view .LVU431
 1681 0034 DA60     		str	r2, [r3, #12]	@ float
 378:fjol.cpp      ****     {
 1682              		.loc 7 378 5 is_stmt 1 view .LVU432
 1683              	.LVL89:
 378:fjol.cpp      ****     {
 1684              		.loc 7 378 23 view .LVU433
 1685              	.L87:
 378:fjol.cpp      ****     {
 1686              		.loc 7 378 23 is_stmt 0 view .LVU434
 1687              	.LBE721:
 1688              	.LBE720:
 1689              	.LBE722:
 1690              		.loc 7 383 1 view .LVU435
 1691 0036 7047     		bx	lr
 1692              	.L94:
 1693              		.align	2
 1694              	.L93:
 1695 0038 00000000 		.word	glidetime
 1696 003c 00000000 		.word	voicefreqtarget
 1697 0040 00000000 		.word	voicefreq
 1698              		.cfi_endproc
 1699              	.LFE4822:
 1701              		.section	.text._Z9midipanicv,"ax",%progbits
 1702              		.align	1
 1703              		.p2align 2,,3
 1704              		.global	_Z9midipanicv
 1705              		.syntax unified
 1706              		.thumb
 1707              		.thumb_func
 1709              	_Z9midipanicv:
 1710              	.LFB4823:
 384:fjol.cpp      **** 
 385:fjol.cpp      **** void midipanic()
 386:fjol.cpp      **** {
 1711              		.loc 7 386 1 is_stmt 1 view -0
 1712              		.cfi_startproc
 1713              		@ args = 0, pretend = 0, frame = 0
 1714              		@ frame_needed = 0, uses_anonymous_args = 0
 1715              		@ link register save eliminated.
ARM GAS  /tmp/ccxnfbgf.s 			page 60


 387:fjol.cpp      ****   voicetrig[0] = 0;
 1716              		.loc 7 387 3 view .LVU437
 1717              		.loc 7 387 16 is_stmt 0 view .LVU438
 1718 0000 0023     		movs	r3, #0
 1719 0002 044A     		ldr	r2, .L96
 388:fjol.cpp      ****   voicetrig[1] = 0;
 389:fjol.cpp      ****   voicetrig[2] = 0;
 390:fjol.cpp      ****   voicetrig[3] = 0;
 391:fjol.cpp      ****   gate_out = 0;
 1720              		.loc 7 391 12 view .LVU439
 1721 0004 0449     		ldr	r1, .L96+4
 387:fjol.cpp      ****   voicetrig[0] = 0;
 1722              		.loc 7 387 16 view .LVU440
 1723 0006 1370     		strb	r3, [r2]
 388:fjol.cpp      ****   voicetrig[1] = 0;
 1724              		.loc 7 388 3 is_stmt 1 view .LVU441
 388:fjol.cpp      ****   voicetrig[1] = 0;
 1725              		.loc 7 388 16 is_stmt 0 view .LVU442
 1726 0008 5370     		strb	r3, [r2, #1]
 389:fjol.cpp      ****   voicetrig[3] = 0;
 1727              		.loc 7 389 3 is_stmt 1 view .LVU443
 389:fjol.cpp      ****   voicetrig[3] = 0;
 1728              		.loc 7 389 16 is_stmt 0 view .LVU444
 1729 000a 9370     		strb	r3, [r2, #2]
 390:fjol.cpp      ****   gate_out = 0;
 1730              		.loc 7 390 3 is_stmt 1 view .LVU445
 390:fjol.cpp      ****   gate_out = 0;
 1731              		.loc 7 390 16 is_stmt 0 view .LVU446
 1732 000c D370     		strb	r3, [r2, #3]
 1733              		.loc 7 391 3 is_stmt 1 view .LVU447
 1734              		.loc 7 391 12 is_stmt 0 view .LVU448
 1735 000e 0B70     		strb	r3, [r1]
 392:fjol.cpp      **** }
 1736              		.loc 7 392 1 view .LVU449
 1737 0010 7047     		bx	lr
 1738              	.L97:
 1739 0012 00BF     		.align	2
 1740              	.L96:
 1741 0014 00000000 		.word	voicetrig
 1742 0018 00000000 		.word	gate_out
 1743              		.cfi_endproc
 1744              	.LFE4823:
 1746              		.section	.text._Z13update_paramsiff,"ax",%progbits
 1747              		.align	1
 1748              		.p2align 2,,3
 1749              		.global	_Z13update_paramsiff
 1750              		.syntax unified
 1751              		.thumb
 1752              		.thumb_func
 1754              	_Z13update_paramsiff:
 1755              	.LVL90:
 1756              	.LFB4824:
 393:fjol.cpp      **** 
 394:fjol.cpp      **** void update_params(int destination, float value, float mod)
 395:fjol.cpp      **** {
 1757              		.loc 7 395 1 is_stmt 1 view -0
 1758              		.cfi_startproc
ARM GAS  /tmp/ccxnfbgf.s 			page 61


 1759              		@ args = 0, pretend = 0, frame = 0
 1760              		@ frame_needed = 0, uses_anonymous_args = 0
 396:fjol.cpp      ****   
 397:fjol.cpp      ****   params_changed[destination] = 1;
 1761              		.loc 7 397 3 view .LVU451
 395:fjol.cpp      ****   
 1762              		.loc 7 395 1 is_stmt 0 view .LVU452
 1763 0000 2DE9F843 		push	{r3, r4, r5, r6, r7, r8, r9, lr}
 1764              		.cfi_def_cfa_offset 32
 1765              		.cfi_offset 3, -32
 1766              		.cfi_offset 4, -28
 1767              		.cfi_offset 5, -24
 1768              		.cfi_offset 6, -20
 1769              		.cfi_offset 7, -16
 1770              		.cfi_offset 8, -12
 1771              		.cfi_offset 9, -8
 1772              		.cfi_offset 14, -4
 1773              		.loc 7 397 31 view .LVU453
 1774 0004 274E     		ldr	r6, .L111
 1775 0006 0123     		movs	r3, #1
 395:fjol.cpp      ****   
 1776              		.loc 7 395 1 view .LVU454
 1777 0008 8146     		mov	r9, r0
 1778 000a DFF8A480 		ldr	r8, .L111+12
 1779 000e 264F     		ldr	r7, .L111+4
 1780              	.LBB723:
 398:fjol.cpp      ****   for(int i = 0; i<8; i++)
 1781              		.loc 7 398 11 view .LVU455
 1782 0010 0024     		movs	r4, #0
 1783 0012 264D     		ldr	r5, .L111+8
 1784              	.LBE723:
 397:fjol.cpp      ****   for(int i = 0; i<8; i++)
 1785              		.loc 7 397 31 view .LVU456
 1786 0014 3354     		strb	r3, [r6, r0]
 1787              		.loc 7 398 3 is_stmt 1 view .LVU457
 1788              	.LVL91:
 1789              	.LBB724:
 1790              		.loc 7 398 19 view .LVU458
 1791              	.LBE724:
 395:fjol.cpp      ****   
 1792              		.loc 7 395 1 is_stmt 0 view .LVU459
 1793 0016 2DED028B 		vpush.64	{d8}
 1794              		.cfi_def_cfa_offset 40
 1795              		.cfi_offset 80, -40
 1796              		.cfi_offset 81, -36
 395:fjol.cpp      ****   
 1797              		.loc 7 395 1 view .LVU460
 1798 001a B0EE408A 		vmov.f32	s16, s0
 1799 001e 08E0     		b	.L106
 1800              	.LVL92:
 1801              	.L100:
 1802              	.LBB725:
 1803              		.loc 7 398 3 is_stmt 1 discriminator 2 view .LVU461
 1804 0020 0134     		adds	r4, r4, #1
 1805              	.LVL93:
 1806              		.loc 7 398 19 discriminator 2 view .LVU462
 1807 0022 08F10408 		add	r8, r8, #4
ARM GAS  /tmp/ccxnfbgf.s 			page 62


 1808 0026 0437     		adds	r7, r7, #4
 1809 0028 0435     		adds	r5, r5, #4
 1810 002a 082C     		cmp	r4, #8
 1811 002c 06F10106 		add	r6, r6, #1
 1812 0030 2BD0     		beq	.L110
 1813              	.LVL94:
 1814              	.L106:
 399:fjol.cpp      ****   {
 400:fjol.cpp      ****     if(i == destination)
 1815              		.loc 7 400 5 view .LVU463
 1816 0032 A145     		cmp	r9, r4
 1817 0034 F4D1     		bne	.L100
 401:fjol.cpp      ****     {
 402:fjol.cpp      ****       param[i]+= value;
 1818              		.loc 7 402 7 view .LVU464
 403:fjol.cpp      ****       if(param[i] > 1){param[i] = 1; params_changed[i] = 0; led_update(i);}
 1819              		.loc 7 403 24 view .LVU465
 402:fjol.cpp      ****       if(param[i] > 1){param[i] = 1; params_changed[i] = 0; led_update(i);}
 1820              		.loc 7 402 15 is_stmt 0 view .LVU466
 1821 0036 D5ED007A 		vldr.32	s15, [r5]
 1822              		.loc 7 403 7 view .LVU467
 1823 003a B7EE007A 		vmov.f32	s14, #1.0e+0
 1824              		.loc 7 403 56 view .LVU468
 1825 003e 0023     		movs	r3, #0
 1826              		.loc 7 403 71 view .LVU469
 1827 0040 5FFA89F0 		uxtb	r0, r9
 402:fjol.cpp      ****       if(param[i] > 1){param[i] = 1; params_changed[i] = 0; led_update(i);}
 1828              		.loc 7 402 15 view .LVU470
 1829 0044 78EE277A 		vadd.f32	s15, s16, s15
 1830              		.loc 7 403 7 is_stmt 1 view .LVU471
 1831 0048 F4EEC77A 		vcmpe.f32	s15, s14
 1832 004c F1EE10FA 		vmrs	APSR_nzcv, FPSCR
 1833 0050 1FDC     		bgt	.L101
 402:fjol.cpp      ****       if(param[i] > 1){param[i] = 1; params_changed[i] = 0; led_update(i);}
 1834              		.loc 7 402 15 is_stmt 0 view .LVU472
 1835 0052 C5ED007A 		vstr.32	s15, [r5]
 1836              	.L102:
 404:fjol.cpp      ****       if(param[i] > 0){param[i] = 0; params_changed[i] = 0; led_update(i);}
 1837              		.loc 7 404 7 is_stmt 1 view .LVU473
 1838              		.loc 7 404 24 view .LVU474
 1839              		.loc 7 404 7 is_stmt 0 view .LVU475
 1840 0056 F5EEC07A 		vcmpe.f32	s15, #0
 1841 005a 0023     		movs	r3, #0
 1842              		.loc 7 404 56 view .LVU476
 1843 005c 0022     		movs	r2, #0
 1844              		.loc 7 404 71 view .LVU477
 1845 005e E0B2     		uxtb	r0, r4
 1846              		.loc 7 404 7 view .LVU478
 1847 0060 F1EE10FA 		vmrs	APSR_nzcv, FPSCR
 1848 0064 05DD     		ble	.L103
 1849              		.loc 7 404 56 discriminator 1 view .LVU479
 1850 0066 3270     		strb	r2, [r6]
 1851              		.loc 7 404 33 discriminator 1 view .LVU480
 1852 0068 2B60     		str	r3, [r5]	@ float
 1853              		.loc 7 404 38 is_stmt 1 discriminator 1 view .LVU481
 1854              		.loc 7 404 61 discriminator 1 view .LVU482
 1855              		.loc 7 404 71 is_stmt 0 discriminator 1 view .LVU483
ARM GAS  /tmp/ccxnfbgf.s 			page 63


 1856 006a FFF7FEFF 		bl	_Z10led_updateh
 1857              	.LVL95:
 405:fjol.cpp      ****       param_sum[i] = param[i] + cv_mod[i];
 1858              		.loc 7 405 29 discriminator 1 view .LVU484
 1859 006e D5ED007A 		vldr.32	s15, [r5]
 1860              	.L103:
 1861              		.loc 7 405 7 is_stmt 1 view .LVU485
 1862              		.loc 7 405 31 is_stmt 0 view .LVU486
 1863 0072 98ED007A 		vldr.32	s14, [r8]
 1864 0076 77EE277A 		vadd.f32	s15, s14, s15
 1865              		.loc 7 405 20 view .LVU487
 1866 007a C7ED007A 		vstr.32	s15, [r7]
 406:fjol.cpp      ****       if(destination == 0){updatespread();}
 1867              		.loc 7 406 7 is_stmt 1 view .LVU488
 1868 007e B9F1000F 		cmp	r9, #0
 1869 0082 CDD1     		bne	.L100
 1870              		.loc 7 406 28 discriminator 1 view .LVU489
 1871              		.loc 7 406 40 is_stmt 0 discriminator 1 view .LVU490
 1872 0084 FFF7FEFF 		bl	_Z12updatespreadv
 1873              	.LVL96:
 1874 0088 CAE7     		b	.L100
 1875              	.L110:
 1876              		.loc 7 406 40 discriminator 1 view .LVU491
 1877              	.LBE725:
 407:fjol.cpp      ****     }
 408:fjol.cpp      ****   }
 409:fjol.cpp      **** }
 1878              		.loc 7 409 1 view .LVU492
 1879 008a BDEC028B 		vldm	sp!, {d8}
 1880              		.cfi_remember_state
 1881              		.cfi_restore 80
 1882              		.cfi_restore 81
 1883              		.cfi_def_cfa_offset 32
 1884              	.LVL97:
 1885              		.loc 7 409 1 view .LVU493
 1886 008e BDE8F883 		pop	{r3, r4, r5, r6, r7, r8, r9, pc}
 1887              	.LVL98:
 1888              	.L101:
 1889              		.cfi_restore_state
 1890              	.LBB726:
 403:fjol.cpp      ****       if(param[i] > 0){param[i] = 0; params_changed[i] = 0; led_update(i);}
 1891              		.loc 7 403 56 discriminator 1 view .LVU494
 1892 0092 3370     		strb	r3, [r6]
 403:fjol.cpp      ****       if(param[i] > 0){param[i] = 0; params_changed[i] = 0; led_update(i);}
 1893              		.loc 7 403 33 discriminator 1 view .LVU495
 1894 0094 85ED007A 		vstr.32	s14, [r5]
 403:fjol.cpp      ****       if(param[i] > 0){param[i] = 0; params_changed[i] = 0; led_update(i);}
 1895              		.loc 7 403 38 is_stmt 1 discriminator 1 view .LVU496
 403:fjol.cpp      ****       if(param[i] > 0){param[i] = 0; params_changed[i] = 0; led_update(i);}
 1896              		.loc 7 403 61 discriminator 1 view .LVU497
 403:fjol.cpp      ****       if(param[i] > 0){param[i] = 0; params_changed[i] = 0; led_update(i);}
 1897              		.loc 7 403 71 is_stmt 0 discriminator 1 view .LVU498
 1898 0098 FFF7FEFF 		bl	_Z10led_updateh
 1899              	.LVL99:
 404:fjol.cpp      ****       param_sum[i] = param[i] + cv_mod[i];
 1900              		.loc 7 404 17 discriminator 1 view .LVU499
 1901 009c D5ED007A 		vldr.32	s15, [r5]
ARM GAS  /tmp/ccxnfbgf.s 			page 64


 1902 00a0 D9E7     		b	.L102
 1903              	.L112:
 1904 00a2 00BF     		.align	2
 1905              	.L111:
 1906 00a4 00000000 		.word	params_changed
 1907 00a8 00000000 		.word	param_sum
 1908 00ac 00000000 		.word	param
 1909 00b0 00000000 		.word	cv_mod
 1910              	.LBE726:
 1911              		.cfi_endproc
 1912              	.LFE4824:
 1914              		.section	.text._Z16select_algorithmv,"ax",%progbits
 1915              		.align	1
 1916              		.p2align 2,,3
 1917              		.global	_Z16select_algorithmv
 1918              		.syntax unified
 1919              		.thumb
 1920              		.thumb_func
 1922              	_Z16select_algorithmv:
 1923              	.LFB4825:
 410:fjol.cpp      **** 
 411:fjol.cpp      **** void select_algorithm()
 412:fjol.cpp      **** {
 1924              		.loc 7 412 1 is_stmt 1 view -0
 1925              		.cfi_startproc
 1926              		@ args = 0, pretend = 0, frame = 0
 1927              		@ frame_needed = 0, uses_anonymous_args = 0
 1928              		@ link register save eliminated.
 413:fjol.cpp      ****   switch(algo_select)
 1929              		.loc 7 413 3 view .LVU501
 1930              	.LBB727:
 1931              		.loc 7 413 10 is_stmt 0 view .LVU502
 1932 0000 1D4B     		ldr	r3, .L125
 1933 0002 1B78     		ldrb	r3, [r3]	@ zero_extendqisi2
 1934              		.loc 7 413 3 view .LVU503
 1935 0004 012B     		cmp	r3, #1
 1936 0006 03D0     		beq	.L114
 1937 0008 022B     		cmp	r3, #2
 1938 000a 23D0     		beq	.L115
 1939 000c 8BB1     		cbz	r3, .L124
 1940              	.LBE727:
 414:fjol.cpp      ****     {
 415:fjol.cpp      ****       case 0:
 416:fjol.cpp      ****       for(int i = 0; i<4; i++)
 417:fjol.cpp      ****       {
 418:fjol.cpp      ****         voice[i].op21 = 1;
 419:fjol.cpp      ****         voice[i].op31 = 1;
 420:fjol.cpp      ****         voice[i].op32 = 0;
 421:fjol.cpp      ****         voice[i].op2out = 0;
 422:fjol.cpp      ****       }
 423:fjol.cpp      ****       return;
 424:fjol.cpp      ****       break;
 425:fjol.cpp      ****       case 1:
 426:fjol.cpp      ****       for(int i = 0; i<4; i++)
 427:fjol.cpp      ****       {
 428:fjol.cpp      ****         voice[i].op21 = 1;
 429:fjol.cpp      ****         voice[i].op31 = 0;
ARM GAS  /tmp/ccxnfbgf.s 			page 65


 430:fjol.cpp      ****         voice[i].op32 = 1;
 431:fjol.cpp      ****         voice[i].op2out = 0;
 432:fjol.cpp      ****       }
 433:fjol.cpp      ****       return; 
 434:fjol.cpp      ****       break;
 435:fjol.cpp      ****       case 2:
 436:fjol.cpp      ****       for(int i = 0; i<4; i++)
 437:fjol.cpp      ****       {
 438:fjol.cpp      ****         voice[i].op21 = 0;
 439:fjol.cpp      ****         voice[i].op31 = 1;
 440:fjol.cpp      ****         voice[i].op32 = 0;
 441:fjol.cpp      ****         voice[i].op2out = 1;
 442:fjol.cpp      ****       }
 443:fjol.cpp      ****       return;
 444:fjol.cpp      ****       break;
 445:fjol.cpp      ****     }
 446:fjol.cpp      **** }
 1941              		.loc 7 446 1 view .LVU504
 1942 000e 7047     		bx	lr
 1943              	.L114:
 1944 0010 1A4B     		ldr	r3, .L125+4
 1945 0012 03F53870 		add	r0, r3, #736
 1946              	.L119:
 1947              	.LBB731:
 1948              	.LBB728:
 428:fjol.cpp      ****         voice[i].op31 = 0;
 1949              		.loc 7 428 9 is_stmt 1 discriminator 2 view .LVU505
 426:fjol.cpp      ****       {
 1950              		.loc 7 426 23 is_stmt 0 discriminator 2 view .LVU506
 1951 0016 B833     		adds	r3, r3, #184
 428:fjol.cpp      ****         voice[i].op31 = 0;
 1952              		.loc 7 428 23 discriminator 2 view .LVU507
 1953 0018 0121     		movs	r1, #1
 429:fjol.cpp      ****         voice[i].op32 = 1;
 1954              		.loc 7 429 23 discriminator 2 view .LVU508
 1955 001a 0022     		movs	r2, #0
 426:fjol.cpp      ****       {
 1956              		.loc 7 426 23 discriminator 2 view .LVU509
 1957 001c 8342     		cmp	r3, r0
 428:fjol.cpp      ****         voice[i].op31 = 0;
 1958              		.loc 7 428 23 discriminator 2 view .LVU510
 1959 001e 03F81E1C 		strb	r1, [r3, #-30]
 429:fjol.cpp      ****         voice[i].op32 = 1;
 1960              		.loc 7 429 9 is_stmt 1 discriminator 2 view .LVU511
 429:fjol.cpp      ****         voice[i].op32 = 1;
 1961              		.loc 7 429 23 is_stmt 0 discriminator 2 view .LVU512
 1962 0022 03F81F2C 		strb	r2, [r3, #-31]
 430:fjol.cpp      ****         voice[i].op2out = 0;
 1963              		.loc 7 430 9 is_stmt 1 discriminator 2 view .LVU513
 430:fjol.cpp      ****         voice[i].op2out = 0;
 1964              		.loc 7 430 23 is_stmt 0 discriminator 2 view .LVU514
 1965 0026 03F8201C 		strb	r1, [r3, #-32]
 431:fjol.cpp      ****       }
 1966              		.loc 7 431 9 is_stmt 1 discriminator 2 view .LVU515
 431:fjol.cpp      ****       }
 1967              		.loc 7 431 25 is_stmt 0 discriminator 2 view .LVU516
 1968 002a 03F81D2C 		strb	r2, [r3, #-29]
ARM GAS  /tmp/ccxnfbgf.s 			page 66


 426:fjol.cpp      ****       {
 1969              		.loc 7 426 7 is_stmt 1 discriminator 2 view .LVU517
 426:fjol.cpp      ****       {
 1970              		.loc 7 426 23 discriminator 2 view .LVU518
 1971 002e F2D1     		bne	.L119
 1972 0030 7047     		bx	lr
 1973              	.L124:
 1974 0032 124B     		ldr	r3, .L125+4
 1975 0034 03F53870 		add	r0, r3, #736
 1976              	.L117:
 1977              	.LBE728:
 1978              	.LBB729:
 418:fjol.cpp      ****         voice[i].op31 = 1;
 1979              		.loc 7 418 9 discriminator 2 view .LVU519
 416:fjol.cpp      ****       {
 1980              		.loc 7 416 23 is_stmt 0 discriminator 2 view .LVU520
 1981 0038 B833     		adds	r3, r3, #184
 418:fjol.cpp      ****         voice[i].op31 = 1;
 1982              		.loc 7 418 23 discriminator 2 view .LVU521
 1983 003a 0121     		movs	r1, #1
 420:fjol.cpp      ****         voice[i].op2out = 0;
 1984              		.loc 7 420 23 discriminator 2 view .LVU522
 1985 003c 0022     		movs	r2, #0
 416:fjol.cpp      ****       {
 1986              		.loc 7 416 23 discriminator 2 view .LVU523
 1987 003e 8342     		cmp	r3, r0
 418:fjol.cpp      ****         voice[i].op31 = 1;
 1988              		.loc 7 418 23 discriminator 2 view .LVU524
 1989 0040 03F81E1C 		strb	r1, [r3, #-30]
 419:fjol.cpp      ****         voice[i].op32 = 0;
 1990              		.loc 7 419 9 is_stmt 1 discriminator 2 view .LVU525
 419:fjol.cpp      ****         voice[i].op32 = 0;
 1991              		.loc 7 419 23 is_stmt 0 discriminator 2 view .LVU526
 1992 0044 03F81F1C 		strb	r1, [r3, #-31]
 420:fjol.cpp      ****         voice[i].op2out = 0;
 1993              		.loc 7 420 9 is_stmt 1 discriminator 2 view .LVU527
 420:fjol.cpp      ****         voice[i].op2out = 0;
 1994              		.loc 7 420 23 is_stmt 0 discriminator 2 view .LVU528
 1995 0048 03F8202C 		strb	r2, [r3, #-32]
 421:fjol.cpp      ****       }
 1996              		.loc 7 421 9 is_stmt 1 discriminator 2 view .LVU529
 421:fjol.cpp      ****       }
 1997              		.loc 7 421 25 is_stmt 0 discriminator 2 view .LVU530
 1998 004c 03F81D2C 		strb	r2, [r3, #-29]
 416:fjol.cpp      ****       {
 1999              		.loc 7 416 7 is_stmt 1 discriminator 2 view .LVU531
 416:fjol.cpp      ****       {
 2000              		.loc 7 416 23 discriminator 2 view .LVU532
 2001 0050 F2D1     		bne	.L117
 2002 0052 7047     		bx	lr
 2003              	.L115:
 2004 0054 094B     		ldr	r3, .L125+4
 2005 0056 03F53870 		add	r0, r3, #736
 2006              	.L120:
 2007              	.LBE729:
 2008              	.LBB730:
 438:fjol.cpp      ****         voice[i].op31 = 1;
ARM GAS  /tmp/ccxnfbgf.s 			page 67


 2009              		.loc 7 438 9 discriminator 2 view .LVU533
 436:fjol.cpp      ****       {
 2010              		.loc 7 436 23 is_stmt 0 discriminator 2 view .LVU534
 2011 005a B833     		adds	r3, r3, #184
 438:fjol.cpp      ****         voice[i].op31 = 1;
 2012              		.loc 7 438 23 discriminator 2 view .LVU535
 2013 005c 0021     		movs	r1, #0
 439:fjol.cpp      ****         voice[i].op32 = 0;
 2014              		.loc 7 439 23 discriminator 2 view .LVU536
 2015 005e 0122     		movs	r2, #1
 436:fjol.cpp      ****       {
 2016              		.loc 7 436 23 discriminator 2 view .LVU537
 2017 0060 8342     		cmp	r3, r0
 438:fjol.cpp      ****         voice[i].op31 = 1;
 2018              		.loc 7 438 23 discriminator 2 view .LVU538
 2019 0062 03F81E1C 		strb	r1, [r3, #-30]
 439:fjol.cpp      ****         voice[i].op32 = 0;
 2020              		.loc 7 439 9 is_stmt 1 discriminator 2 view .LVU539
 439:fjol.cpp      ****         voice[i].op32 = 0;
 2021              		.loc 7 439 23 is_stmt 0 discriminator 2 view .LVU540
 2022 0066 03F81F2C 		strb	r2, [r3, #-31]
 440:fjol.cpp      ****         voice[i].op2out = 1;
 2023              		.loc 7 440 9 is_stmt 1 discriminator 2 view .LVU541
 440:fjol.cpp      ****         voice[i].op2out = 1;
 2024              		.loc 7 440 23 is_stmt 0 discriminator 2 view .LVU542
 2025 006a 03F8201C 		strb	r1, [r3, #-32]
 441:fjol.cpp      ****       }
 2026              		.loc 7 441 9 is_stmt 1 discriminator 2 view .LVU543
 441:fjol.cpp      ****       }
 2027              		.loc 7 441 25 is_stmt 0 discriminator 2 view .LVU544
 2028 006e 03F81D2C 		strb	r2, [r3, #-29]
 436:fjol.cpp      ****       {
 2029              		.loc 7 436 7 is_stmt 1 discriminator 2 view .LVU545
 436:fjol.cpp      ****       {
 2030              		.loc 7 436 23 discriminator 2 view .LVU546
 2031 0072 F2D1     		bne	.L120
 2032              	.LBE730:
 2033              	.LBE731:
 2034              		.loc 7 446 1 is_stmt 0 view .LVU547
 2035 0074 7047     		bx	lr
 2036              	.L126:
 2037 0076 00BF     		.align	2
 2038              	.L125:
 2039 0078 00000000 		.word	algo_select
 2040 007c 00000000 		.word	.LANCHOR0
 2041              		.cfi_endproc
 2042              	.LFE4825:
 2044              		.section	.text._Z9updateadcv,"ax",%progbits
 2045              		.align	1
 2046              		.p2align 2,,3
 2047              		.global	_Z9updateadcv
 2048              		.syntax unified
 2049              		.thumb
 2050              		.thumb_func
 2052              	_Z9updateadcv:
 2053              	.LFB4827:
 447:fjol.cpp      **** 
ARM GAS  /tmp/ccxnfbgf.s 			page 68


 448:fjol.cpp      **** void updatecontrols()
 449:fjol.cpp      **** {
 450:fjol.cpp      ****   float temp = 0;
 451:fjol.cpp      ****   if(led_takeover == 0)
 452:fjol.cpp      ****   {
 453:fjol.cpp      ****    for(int i= 0; i<2; i++)
 454:fjol.cpp      ****    {
 455:fjol.cpp      ****      enc[i].enc.Debounce();
 456:fjol.cpp      ****      if(enc[i].enc.Pressed() == 0)
 457:fjol.cpp      ****      {temp = encoder_read(enc[i].enc.Increment());}
 458:fjol.cpp      ****      if(temp != 0)
 459:fjol.cpp      ****      {update_params(enc[i].ctldest,temp,0);}
 460:fjol.cpp      ****    }
 461:fjol.cpp      ****   }
 462:fjol.cpp      ****   updateSwitches();
 463:fjol.cpp      ****   updateadc();
 464:fjol.cpp      **** }
 465:fjol.cpp      **** 
 466:fjol.cpp      **** void updateadc()
 467:fjol.cpp      **** {
 2054              		.loc 7 467 1 is_stmt 1 view -0
 2055              		.cfi_startproc
 2056              		@ args = 0, pretend = 0, frame = 0
 2057              		@ frame_needed = 0, uses_anonymous_args = 0
 468:fjol.cpp      **** 
 469:fjol.cpp      ****   for(int i = 0; i<8; i++)
 2058              		.loc 7 469 3 view .LVU549
 2059              	.LVL100:
 2060              	.LBB732:
 2061              		.loc 7 469 19 view .LVU550
 2062              	.LBE732:
 467:fjol.cpp      **** 
 2063              		.loc 7 467 1 is_stmt 0 view .LVU551
 2064 0000 F8B5     		push	{r3, r4, r5, r6, r7, lr}
 2065              		.cfi_def_cfa_offset 24
 2066              		.cfi_offset 3, -24
 2067              		.cfi_offset 4, -20
 2068              		.cfi_offset 5, -16
 2069              		.cfi_offset 6, -12
 2070              		.cfi_offset 7, -8
 2071              		.cfi_offset 14, -4
 2072 0002 334E     		ldr	r6, .L139
 2073 0004 334C     		ldr	r4, .L139+4
 2074 0006 3546     		mov	r5, r6
 2075 0008 06F12007 		add	r7, r6, #32
 2076              	.LVL101:
 2077              	.L128:
 2078              	.LBB733:
 470:fjol.cpp      ****   {
 471:fjol.cpp      ****     controls[i].value = controls[i].param.Process();
 2079              		.loc 7 471 5 is_stmt 1 view .LVU552
 2080              		.loc 7 471 50 is_stmt 0 view .LVU553
 2081 000c 2046     		mov	r0, r4
 469:fjol.cpp      ****   {
 2082              		.loc 7 469 19 view .LVU554
 2083 000e 5C34     		adds	r4, r4, #92
 2084              		.loc 7 471 50 view .LVU555
ARM GAS  /tmp/ccxnfbgf.s 			page 69


 2085 0010 FFF7FEFF 		bl	_ZN5daisy9Parameter7ProcessEv
 2086              	.LVL102:
 472:fjol.cpp      ****     //this is to prevent unnecessary changes
 473:fjol.cpp      ****     if(controls[i].value != knob_value[i])
 474:fjol.cpp      ****     {
 475:fjol.cpp      ****       knob_value[i] = controls[i].value;
 2087              		.loc 7 475 7 is_stmt 1 view .LVU556
 469:fjol.cpp      ****   {
 2088              		.loc 7 469 3 view .LVU557
 469:fjol.cpp      ****   {
 2089              		.loc 7 469 19 view .LVU558
 473:fjol.cpp      ****     {
 2090              		.loc 7 473 41 is_stmt 0 view .LVU559
 2091 0014 F5EC017A 		vldmia.32	r5!, {s15}
 471:fjol.cpp      ****     //this is to prevent unnecessary changes
 2092              		.loc 7 471 23 view .LVU560
 2093 0018 04ED090A 		vstr.32	s0, [r4, #-36]
 473:fjol.cpp      ****     {
 2094              		.loc 7 473 5 is_stmt 1 view .LVU561
 2095 001c B4EE670A 		vcmp.f32	s0, s15
 2096 0020 F1EE10FA 		vmrs	APSR_nzcv, FPSCR
 2097              		.loc 7 475 21 is_stmt 0 view .LVU562
 2098 0024 18BF     		it	ne
 2099 0026 05ED010A 		vstrne.32	s0, [r5, #-4]
 469:fjol.cpp      ****   {
 2100              		.loc 7 469 19 view .LVU563
 2101 002a BD42     		cmp	r5, r7
 2102 002c EED1     		bne	.L128
 2103              	.LVL103:
 469:fjol.cpp      ****   {
 2104              		.loc 7 469 19 view .LVU564
 2105              	.LBE733:
 2106              	.LBB734:
 476:fjol.cpp      ****     }
 477:fjol.cpp      ****   }
 478:fjol.cpp      ****   for(int i = 0; i<2; i++)
 2107              		.loc 7 478 19 is_stmt 1 view .LVU565
 479:fjol.cpp      ****   {
 480:fjol.cpp      ****     cv_value[i] = cv[i].input.Process();
 2108              		.loc 7 480 5 view .LVU566
 481:fjol.cpp      ****     if(cv_mod[enc[i].ctlcvdest] != cv_value[i])
 2109              		.loc 7 481 22 is_stmt 0 view .LVU567
 2110 002e 2A4D     		ldr	r5, .L139+8
 480:fjol.cpp      ****     if(cv_mod[enc[i].ctlcvdest] != cv_value[i])
 2111              		.loc 7 480 38 view .LVU568
 2112 0030 2A48     		ldr	r0, .L139+12
 2113 0032 FFF7FEFF 		bl	_ZN5daisy13AnalogControl7ProcessEv
 2114              	.LVL104:
 2115              		.loc 7 481 31 view .LVU569
 2116 0036 2A4C     		ldr	r4, .L139+16
 2117              		.loc 7 481 22 view .LVU570
 2118 0038 95F82930 		ldrb	r3, [r5, #41]	@ zero_extendqisi2
 480:fjol.cpp      ****     if(cv_mod[enc[i].ctlcvdest] != cv_value[i])
 2119              		.loc 7 480 17 view .LVU571
 2120 003c 294F     		ldr	r7, .L139+20
 2121              		.loc 7 481 31 view .LVU572
 2122 003e 04EB8303 		add	r3, r4, r3, lsl #2
ARM GAS  /tmp/ccxnfbgf.s 			page 70


 480:fjol.cpp      ****     if(cv_mod[enc[i].ctlcvdest] != cv_value[i])
 2123              		.loc 7 480 17 view .LVU573
 2124 0042 87ED000A 		vstr.32	s0, [r7]
 2125              		.loc 7 481 5 is_stmt 1 view .LVU574
 2126 0046 D3ED007A 		vldr.32	s15, [r3]
 2127 004a B4EE670A 		vcmp.f32	s0, s15
 2128 004e F1EE10FA 		vmrs	APSR_nzcv, FPSCR
 2129 0052 04D0     		beq	.L129
 482:fjol.cpp      ****     {
 483:fjol.cpp      ****       cv_mod[enc[i].ctlcvdest] = cv_value[i];
 2130              		.loc 7 483 7 view .LVU575
 2131              		.loc 7 483 32 is_stmt 0 view .LVU576
 2132 0054 83ED000A 		vstr.32	s0, [r3]
 484:fjol.cpp      ****       params_changed[i] = 1;
 2133              		.loc 7 484 7 is_stmt 1 view .LVU577
 2134              		.loc 7 484 25 is_stmt 0 view .LVU578
 2135 0058 0122     		movs	r2, #1
 2136 005a 234B     		ldr	r3, .L139+24
 2137 005c 1A70     		strb	r2, [r3]
 2138              	.L129:
 478:fjol.cpp      ****   {
 2139              		.loc 7 478 3 is_stmt 1 view .LVU579
 2140              	.LVL105:
 478:fjol.cpp      ****   {
 2141              		.loc 7 478 19 view .LVU580
 480:fjol.cpp      ****     if(cv_mod[enc[i].ctlcvdest] != cv_value[i])
 2142              		.loc 7 480 5 view .LVU581
 480:fjol.cpp      ****     if(cv_mod[enc[i].ctlcvdest] != cv_value[i])
 2143              		.loc 7 480 38 is_stmt 0 view .LVU582
 2144 005e 2348     		ldr	r0, .L139+28
 2145 0060 FFF7FEFF 		bl	_ZN5daisy13AnalogControl7ProcessEv
 2146              	.LVL106:
 481:fjol.cpp      ****     {
 2147              		.loc 7 481 22 view .LVU583
 2148 0064 95F85530 		ldrb	r3, [r5, #85]	@ zero_extendqisi2
 480:fjol.cpp      ****     if(cv_mod[enc[i].ctlcvdest] != cv_value[i])
 2149              		.loc 7 480 17 view .LVU584
 2150 0068 87ED010A 		vstr.32	s0, [r7, #4]
 481:fjol.cpp      ****     {
 2151              		.loc 7 481 5 is_stmt 1 view .LVU585
 481:fjol.cpp      ****     {
 2152              		.loc 7 481 31 is_stmt 0 view .LVU586
 2153 006c 04EB8303 		add	r3, r4, r3, lsl #2
 481:fjol.cpp      ****     {
 2154              		.loc 7 481 5 view .LVU587
 2155 0070 D3ED007A 		vldr.32	s15, [r3]
 2156 0074 B4EE670A 		vcmp.f32	s0, s15
 2157 0078 F1EE10FA 		vmrs	APSR_nzcv, FPSCR
 2158 007c 04D0     		beq	.L130
 483:fjol.cpp      ****       params_changed[i] = 1;
 2159              		.loc 7 483 7 is_stmt 1 view .LVU588
 2160              		.loc 7 484 25 is_stmt 0 view .LVU589
 2161 007e 1A4A     		ldr	r2, .L139+24
 483:fjol.cpp      ****       params_changed[i] = 1;
 2162              		.loc 7 483 32 view .LVU590
 2163 0080 83ED000A 		vstr.32	s0, [r3]
 2164              		.loc 7 484 7 is_stmt 1 view .LVU591
ARM GAS  /tmp/ccxnfbgf.s 			page 71


 2165              		.loc 7 484 25 is_stmt 0 view .LVU592
 2166 0084 0123     		movs	r3, #1
 2167 0086 5370     		strb	r3, [r2, #1]
 2168              	.LVL107:
 2169              		.loc 7 484 25 view .LVU593
 2170              	.LBE734:
 2171              	.LBB735:
 2172              	.LBB736:
 485:fjol.cpp      ****     }
 486:fjol.cpp      ****   }
 487:fjol.cpp      ****   
 488:fjol.cpp      ****   //reset values that cv destination isn't mapped to
 489:fjol.cpp      ****   for(int j = 0; j<1; j++)
 490:fjol.cpp      ****   {
 491:fjol.cpp      ****    for(int i = 0; i<7; i++)
 2173              		.loc 7 491 20 is_stmt 1 view .LVU594
 2174              	.L130:
 492:fjol.cpp      ****    {
 493:fjol.cpp      ****      if(i != enc[j].ctlcvdest)
 2175              		.loc 7 493 21 is_stmt 0 view .LVU595
 2176 0088 95F82920 		ldrb	r2, [r5, #41]	@ zero_extendqisi2
 2177 008c 0023     		movs	r3, #0
 2178              	.L134:
 2179              	.LVL108:
 2180              		.loc 7 493 6 is_stmt 1 view .LVU596
 494:fjol.cpp      ****      {
 495:fjol.cpp      ****        cv_mod[enc[j].ctlcvdest] = 0;
 2181              		.loc 7 495 8 view .LVU597
 491:fjol.cpp      ****    {
 2182              		.loc 7 491 4 view .LVU598
 493:fjol.cpp      ****      {
 2183              		.loc 7 493 6 is_stmt 0 view .LVU599
 2184 008e 9A42     		cmp	r2, r3
 2185              		.loc 7 495 33 view .LVU600
 2186 0090 04EB8201 		add	r1, r4, r2, lsl #2
 491:fjol.cpp      ****    {
 2187              		.loc 7 491 4 view .LVU601
 2188 0094 03F10103 		add	r3, r3, #1
 2189              	.LVL109:
 491:fjol.cpp      ****    {
 2190              		.loc 7 491 20 is_stmt 1 view .LVU602
 2191              		.loc 7 495 33 is_stmt 0 view .LVU603
 2192 0098 4FF00000 		mov	r0, #0
 2193 009c 18BF     		it	ne
 2194 009e 0860     		strne	r0, [r1]	@ float
 491:fjol.cpp      ****    {
 2195              		.loc 7 491 20 view .LVU604
 2196 00a0 072B     		cmp	r3, #7
 2197 00a2 F4D1     		bne	.L134
 2198 00a4 124C     		ldr	r4, .L139+32
 2199 00a6 04F58075 		add	r5, r4, #256
 2200              	.LVL110:
 2201              	.L135:
 491:fjol.cpp      ****    {
 2202              		.loc 7 491 20 view .LVU605
 2203              	.LBE736:
 2204              	.LBE735:
ARM GAS  /tmp/ccxnfbgf.s 			page 72


 2205              	.LBB737:
 496:fjol.cpp      ****      }
 497:fjol.cpp      ****    }
 498:fjol.cpp      ****   }//reset cv array ends
 499:fjol.cpp      ****   //set attack decay for envelope
 500:fjol.cpp      ****   for(int i = 0; i<4; i++)
 501:fjol.cpp      ****   {
 502:fjol.cpp      ****     envelope[i].env.SetAttackTime(knob_value[4]);
 2206              		.loc 7 502 5 is_stmt 1 discriminator 2 view .LVU606
 2207              		.loc 7 502 34 is_stmt 0 discriminator 2 view .LVU607
 2208 00aa 2046     		mov	r0, r4
 2209 00ac DFED110A 		vldr.32	s1, .L139+36
 2210 00b0 96ED040A 		vldr.32	s0, [r6, #16]
 2211 00b4 FFF7FEFF 		bl	_ZN7daisysp4Adsr13SetAttackTimeEff
 2212              	.LVL111:
 503:fjol.cpp      ****     envelope[i].env.SetDecayTime(knob_value[5]);
 2213              		.loc 7 503 5 is_stmt 1 discriminator 2 view .LVU608
 2214              		.loc 7 503 33 is_stmt 0 discriminator 2 view .LVU609
 2215 00b8 2046     		mov	r0, r4
 500:fjol.cpp      ****   {
 2216              		.loc 7 500 19 discriminator 2 view .LVU610
 2217 00ba 4034     		adds	r4, r4, #64
 2218              		.loc 7 503 33 discriminator 2 view .LVU611
 2219 00bc 96ED050A 		vldr.32	s0, [r6, #20]
 2220 00c0 FFF7FEFF 		bl	_ZN7daisysp4Adsr12SetDecayTimeEf
 2221              	.LVL112:
 500:fjol.cpp      ****   {
 2222              		.loc 7 500 3 is_stmt 1 discriminator 2 view .LVU612
 500:fjol.cpp      ****   {
 2223              		.loc 7 500 19 discriminator 2 view .LVU613
 2224 00c4 A542     		cmp	r5, r4
 2225 00c6 F0D1     		bne	.L135
 2226              	.LBE737:
 504:fjol.cpp      ****   }
 505:fjol.cpp      ****   filtenvelope.env.SetMax(knob_value[7]); //set amplitude of envelope for filter
 2227              		.loc 7 505 3 view .LVU614
 2228              	.LVL113:
 2229              	.LBB738:
 2230              	.LBI738:
  36:DaisySP/Source/Control/adenv.h ****     /** Initializes the ad envelope.
  37:DaisySP/Source/Control/adenv.h **** 
  38:DaisySP/Source/Control/adenv.h ****         Defaults:
  39:DaisySP/Source/Control/adenv.h ****             - current segment = idle
  40:DaisySP/Source/Control/adenv.h ****             - curve = linear
  41:DaisySP/Source/Control/adenv.h ****             - phase = 0
  42:DaisySP/Source/Control/adenv.h ****             - min = 0
  43:DaisySP/Source/Control/adenv.h ****             - max = 1
  44:DaisySP/Source/Control/adenv.h **** 
  45:DaisySP/Source/Control/adenv.h ****         \param sample_rate      sample rate of the audio engine being run
  46:DaisySP/Source/Control/adenv.h ****     */
  47:DaisySP/Source/Control/adenv.h ****     void Init(float sample_rate);
  48:DaisySP/Source/Control/adenv.h **** 
  49:DaisySP/Source/Control/adenv.h ****     /** Processes the current sample of the envelope. This should be called once
  50:DaisySP/Source/Control/adenv.h ****         per sample period.
  51:DaisySP/Source/Control/adenv.h ****         \return the current envelope value.
  52:DaisySP/Source/Control/adenv.h ****     */
  53:DaisySP/Source/Control/adenv.h ****     float Process();
ARM GAS  /tmp/ccxnfbgf.s 			page 73


  54:DaisySP/Source/Control/adenv.h **** 
  55:DaisySP/Source/Control/adenv.h ****     /** Starts or retriggers the envelope.*/
  56:DaisySP/Source/Control/adenv.h ****     inline void Trigger() { trigger_ = 1; }
  57:DaisySP/Source/Control/adenv.h ****     /** Sets the length of time (in seconds) for a specific segment. */
  58:DaisySP/Source/Control/adenv.h ****     inline void SetTime(uint8_t seg, float time) { segment_time_[seg] = time; }
  59:DaisySP/Source/Control/adenv.h ****     /** Sets the amount of curve applied. A positve value will create a log
  60:DaisySP/Source/Control/adenv.h ****         curve. Input range: -100 to 100.  (or more)
  61:DaisySP/Source/Control/adenv.h ****     */
  62:DaisySP/Source/Control/adenv.h ****     inline void SetCurve(float scalar) { curve_scalar_ = scalar; }
  63:DaisySP/Source/Control/adenv.h ****     /** Sets the minimum value of the envelope output.
  64:DaisySP/Source/Control/adenv.h ****         Input range: -FLTmax_, to FLTmax_
  65:DaisySP/Source/Control/adenv.h ****     */
  66:DaisySP/Source/Control/adenv.h ****     inline void SetMin(float min) { min_ = min; }
  67:DaisySP/Source/Control/adenv.h ****     /** Sets the maximum value of the envelope output.
  68:DaisySP/Source/Control/adenv.h ****         Input range: -FLTmax_, to FLTmax_
  69:DaisySP/Source/Control/adenv.h ****     */
  70:DaisySP/Source/Control/adenv.h ****     inline void SetMax(float max) { max_ = max; }
 2231              		.loc 8 70 17 view .LVU615
 2232              	.LBB739:
 2233              		.loc 8 70 37 view .LVU616
 2234              		.loc 8 70 42 is_stmt 0 view .LVU617
 2235 00c8 0B4B     		ldr	r3, .L139+40
 2236 00ca F269     		ldr	r2, [r6, #28]	@ float
 2237 00cc 9A61     		str	r2, [r3, #24]	@ float
 2238              	.LVL114:
 2239              		.loc 8 70 42 view .LVU618
 2240              	.LBE739:
 2241              	.LBE738:
 506:fjol.cpp      **** }
 2242              		.loc 7 506 1 view .LVU619
 2243 00ce F8BD     		pop	{r3, r4, r5, r6, r7, pc}
 2244              	.L140:
 2245              		.align	2
 2246              	.L139:
 2247 00d0 00000000 		.word	knob_value
 2248 00d4 20000000 		.word	.LANCHOR2+32
 2249 00d8 00000000 		.word	.LANCHOR4
 2250 00dc 00000000 		.word	.LANCHOR5
 2251 00e0 00000000 		.word	cv_mod
 2252 00e4 00000000 		.word	cv_value
 2253 00e8 00000000 		.word	params_changed
 2254 00ec 5C000000 		.word	.LANCHOR5+92
 2255 00f0 00000000 		.word	.LANCHOR1
 2256 00f4 00000000 		.word	0
 2257 00f8 00000000 		.word	.LANCHOR6
 2258              		.cfi_endproc
 2259              	.LFE4827:
 2261              		.section	.text._Z14updateSwitchesv,"ax",%progbits
 2262              		.align	1
 2263              		.p2align 2,,3
 2264              		.global	_Z14updateSwitchesv
 2265              		.syntax unified
 2266              		.thumb
 2267              		.thumb_func
 2269              	_Z14updateSwitchesv:
 2270              	.LFB4828:
 507:fjol.cpp      **** 
ARM GAS  /tmp/ccxnfbgf.s 			page 74


 508:fjol.cpp      **** void updateSwitches()
 509:fjol.cpp      **** {
 2271              		.loc 7 509 1 is_stmt 1 view -0
 2272              		.cfi_startproc
 2273              		@ args = 0, pretend = 0, frame = 0
 2274              		@ frame_needed = 0, uses_anonymous_args = 0
 510:fjol.cpp      ****   
 511:fjol.cpp      ****   shift_sw.Debounce();
 2275              		.loc 7 511 3 view .LVU621
 509:fjol.cpp      ****   
 2276              		.loc 7 509 1 is_stmt 0 view .LVU622
 2277 0000 2DE9F041 		push	{r4, r5, r6, r7, r8, lr}
 2278              		.cfi_def_cfa_offset 24
 2279              		.cfi_offset 4, -24
 2280              		.cfi_offset 5, -20
 2281              		.cfi_offset 6, -16
 2282              		.cfi_offset 7, -12
 2283              		.cfi_offset 8, -8
 2284              		.cfi_offset 14, -4
 2285 0004 4D4F     		ldr	r7, .L194
 2286              	.LBB787:
 512:fjol.cpp      ****   //get encoder switches
 513:fjol.cpp      ****   for(int i=0;i<2;i++)
 2287              		.loc 7 513 11 view .LVU623
 2288 0006 0025     		movs	r5, #0
 2289              	.LBE787:
 511:fjol.cpp      ****   //get encoder switches
 2290              		.loc 7 511 20 view .LVU624
 2291 0008 4D48     		ldr	r0, .L194+4
 2292 000a 3C46     		mov	r4, r7
 2293 000c 0646     		mov	r6, r0
 2294 000e FFF7FEFF 		bl	_ZN5daisy6Switch8DebounceEv
 2295              	.LVL115:
 2296              		.loc 7 513 3 is_stmt 1 view .LVU625
 2297              	.LBB802:
 2298              		.loc 7 513 16 view .LVU626
 514:fjol.cpp      ****   {
 515:fjol.cpp      ****     enc[i].enc.Debounce();
 2299              		.loc 7 515 5 view .LVU627
 2300              		.loc 7 515 24 is_stmt 0 view .LVU628
 2301 0012 2046     		mov	r0, r4
 2302 0014 FFF7FEFF 		bl	_ZN5daisy7Encoder8DebounceEv
 2303              	.LVL116:
 516:fjol.cpp      ****     if((shift_sw.Pressed() == false) && enc[i].enc.RisingEdge())
 2304              		.loc 7 516 5 is_stmt 1 view .LVU629
 2305              	.LBB788:
 2306              	.LBI788:
  43:libDaisy/src/hid/switch.h **** 
  44:libDaisy/src/hid/switch.h ****     /** 
  45:libDaisy/src/hid/switch.h ****     Initializes the switch object with a given port/pin combo.
  46:libDaisy/src/hid/switch.h ****     \param pin port/pin object to tell the switch which hardware pin to use.
  47:libDaisy/src/hid/switch.h ****     \param update_rate Does nothing. Backwards compatibility until next breaking update.
  48:libDaisy/src/hid/switch.h ****     \param t switch type -- Default: TYPE_MOMENTARY
  49:libDaisy/src/hid/switch.h ****     \param pol switch polarity -- Default: POLARITY_INVERTED
  50:libDaisy/src/hid/switch.h ****     \param pu switch pull up/down -- Default: PULL_UP
  51:libDaisy/src/hid/switch.h ****     */
  52:libDaisy/src/hid/switch.h ****     void
ARM GAS  /tmp/ccxnfbgf.s 			page 75


  53:libDaisy/src/hid/switch.h ****     Init(dsy_gpio_pin pin, float update_rate, Type t, Polarity pol, Pull pu);
  54:libDaisy/src/hid/switch.h **** 
  55:libDaisy/src/hid/switch.h ****     /**
  56:libDaisy/src/hid/switch.h ****        Simplified Init.
  57:libDaisy/src/hid/switch.h ****        \param pin port/pin object to tell the switch which hardware pin to use.
  58:libDaisy/src/hid/switch.h ****        \param update_rate Left for backwards compatibility until next breaking change.
  59:libDaisy/src/hid/switch.h ****     */
  60:libDaisy/src/hid/switch.h ****     void Init(dsy_gpio_pin pin, float update_rate = 0.f);
  61:libDaisy/src/hid/switch.h **** 
  62:libDaisy/src/hid/switch.h ****     /** 
  63:libDaisy/src/hid/switch.h ****     Called at update_rate to debounce and handle timing for the switch.
  64:libDaisy/src/hid/switch.h ****     In order for events not to be missed, its important that the Edge/Pressed checks
  65:libDaisy/src/hid/switch.h ****     be made at the same rate as the debounce function is being called.
  66:libDaisy/src/hid/switch.h ****     */
  67:libDaisy/src/hid/switch.h ****     void Debounce();
  68:libDaisy/src/hid/switch.h **** 
  69:libDaisy/src/hid/switch.h ****     /** \return true if a button was just pressed. */
  70:libDaisy/src/hid/switch.h ****     inline bool RisingEdge() const { return updated_ ? state_ == 0x7f : false; }
  71:libDaisy/src/hid/switch.h **** 
  72:libDaisy/src/hid/switch.h ****     /** \return true if the button was just released */
  73:libDaisy/src/hid/switch.h ****     inline bool FallingEdge() const
  74:libDaisy/src/hid/switch.h ****     {
  75:libDaisy/src/hid/switch.h ****         return updated_ ? state_ == 0x80 : false;
  76:libDaisy/src/hid/switch.h ****     }
  77:libDaisy/src/hid/switch.h **** 
  78:libDaisy/src/hid/switch.h ****     /** \return true if the button is held down (or if the toggle is on) */
  79:libDaisy/src/hid/switch.h ****     inline bool Pressed() const { return state_ == 0xff; }
 2307              		.loc 1 79 17 view .LVU630
 2308              	.LBB789:
 2309              		.loc 1 79 35 view .LVU631
 2310              		.loc 1 79 35 is_stmt 0 view .LVU632
 2311              	.LBE789:
 2312              	.LBE788:
 2313              		.loc 7 516 38 view .LVU633
 2314 0018 B37A     		ldrb	r3, [r6, #10]	@ zero_extendqisi2
 2315 001a FF2B     		cmp	r3, #255
 2316 001c 2AD0     		beq	.L149
 2317              	.L142:
 2318              	.LVL117:
 2319              	.LBB791:
 2320              	.LBI791:
 2321              		.file 12 "libDaisy/src/hid/encoder.h"
   1:libDaisy/src/hid/encoder.h **** #pragma once
   2:libDaisy/src/hid/encoder.h **** #ifndef DSY_ENCODER_H
   3:libDaisy/src/hid/encoder.h **** #define DSY_ENCODER_H
   4:libDaisy/src/hid/encoder.h **** #include "daisy_core.h"
   5:libDaisy/src/hid/encoder.h **** #include "per/gpio.h"
   6:libDaisy/src/hid/encoder.h **** #include "hid/switch.h"
   7:libDaisy/src/hid/encoder.h **** 
   8:libDaisy/src/hid/encoder.h **** namespace daisy
   9:libDaisy/src/hid/encoder.h **** {
  10:libDaisy/src/hid/encoder.h **** /** 
  11:libDaisy/src/hid/encoder.h ****     @brief Generic Class for handling Quadrature Encoders \n 
  12:libDaisy/src/hid/encoder.h ****     Inspired/influenced by Mutable Instruments (pichenettes) Encoder classes
  13:libDaisy/src/hid/encoder.h ****     @author Stephen Hensley
  14:libDaisy/src/hid/encoder.h ****     @date December 2019
  15:libDaisy/src/hid/encoder.h ****     @ingroup controls
ARM GAS  /tmp/ccxnfbgf.s 			page 76


  16:libDaisy/src/hid/encoder.h **** */
  17:libDaisy/src/hid/encoder.h **** class Encoder
  18:libDaisy/src/hid/encoder.h **** {
  19:libDaisy/src/hid/encoder.h ****   public:
  20:libDaisy/src/hid/encoder.h ****     Encoder() {}
  21:libDaisy/src/hid/encoder.h ****     ~Encoder() {}
  22:libDaisy/src/hid/encoder.h **** 
  23:libDaisy/src/hid/encoder.h ****     /** Initializes the encoder with the specified hardware pins.
  24:libDaisy/src/hid/encoder.h ****      * Update rate is to be deprecated in a future release
  25:libDaisy/src/hid/encoder.h ****      */
  26:libDaisy/src/hid/encoder.h ****     void Init(dsy_gpio_pin a,
  27:libDaisy/src/hid/encoder.h ****               dsy_gpio_pin b,
  28:libDaisy/src/hid/encoder.h ****               dsy_gpio_pin click,
  29:libDaisy/src/hid/encoder.h ****               float        update_rate = 0.f);
  30:libDaisy/src/hid/encoder.h ****     /** Called at update_rate to debounce and handle timing for the switch.
  31:libDaisy/src/hid/encoder.h ****      * In order for events not to be missed, its important that the Edge/Pressed checks be made at 
  32:libDaisy/src/hid/encoder.h ****      */
  33:libDaisy/src/hid/encoder.h ****     void Debounce();
  34:libDaisy/src/hid/encoder.h **** 
  35:libDaisy/src/hid/encoder.h ****     /** Returns +1 if the encoder was turned clockwise, -1 if it was turned counter-clockwise, or 0
  36:libDaisy/src/hid/encoder.h ****     inline int32_t Increment() const { return updated_ ? inc_ : 0; }
  37:libDaisy/src/hid/encoder.h **** 
  38:libDaisy/src/hid/encoder.h ****     /** Returns true if the encoder was just pressed. */
  39:libDaisy/src/hid/encoder.h ****     inline bool RisingEdge() const { return sw_.RisingEdge(); }
 2322              		.loc 12 39 17 is_stmt 1 discriminator 1 view .LVU634
 2323              	.LBE791:
 2324              	.LBE802:
 2325              		.loc 12 39 38 discriminator 1 view .LVU635
 2326              	.LBB803:
 2327              	.LBB794:
 2328              	.LBB792:
 2329              	.LBI792:
  70:libDaisy/src/hid/switch.h **** 
 2330              		.loc 1 70 17 discriminator 1 view .LVU636
 2331              	.LBB793:
  70:libDaisy/src/hid/switch.h **** 
 2332              		.loc 1 70 38 discriminator 1 view .LVU637
  70:libDaisy/src/hid/switch.h **** 
 2333              		.loc 1 70 54 is_stmt 0 discriminator 1 view .LVU638
 2334 001e 237B     		ldrb	r3, [r4, #12]	@ zero_extendqisi2
 2335 0020 13B1     		cbz	r3, .L146
 2336              	.LVL118:
  70:libDaisy/src/hid/switch.h **** 
 2337              		.loc 1 70 54 discriminator 1 view .LVU639
 2338              	.LBE793:
 2339              	.LBE792:
 2340              	.LBE794:
 2341              		.loc 7 516 38 view .LVU640
 2342 0022 A37C     		ldrb	r3, [r4, #18]	@ zero_extendqisi2
 2343 0024 7F2B     		cmp	r3, #127
 2344 0026 45D0     		beq	.L190
 2345              	.L146:
 513:fjol.cpp      ****   {
 2346              		.loc 7 513 3 is_stmt 1 discriminator 2 view .LVU641
 2347              	.LVL119:
 513:fjol.cpp      ****   {
 2348              		.loc 7 513 16 discriminator 2 view .LVU642
ARM GAS  /tmp/ccxnfbgf.s 			page 77


 2349 0028 2C34     		adds	r4, r4, #44
 2350 002a E5B1     		cbz	r5, .L155
 513:fjol.cpp      ****   {
 2351              		.loc 7 513 16 is_stmt 0 discriminator 2 view .LVU643
 2352              	.LBE803:
 517:fjol.cpp      ****     {
 518:fjol.cpp      ****       enc[i].ctldest = enc[i].ctldest+1;
 519:fjol.cpp      ****       if(enc[i].ctldest > 3 && i == 0){enc[i].ctldest = 0;}
 520:fjol.cpp      ****       if(enc[i].ctldest > 7 && i == 1){enc[i].ctldest = 0;}
 521:fjol.cpp      ****       led_takeover = 1;
 522:fjol.cpp      ****       ledlastmillis = System::GetNow();
 523:fjol.cpp      ****       led_menu_step(enc[i].ctldest,green);
 524:fjol.cpp      ****       //getorsetsettings(1,0); 
 525:fjol.cpp      ****     }
 526:fjol.cpp      ****     //ctl1 cv destination
 527:fjol.cpp      ****     if((shift_sw.Pressed() == true) && enc[i].enc.RisingEdge())
 528:fjol.cpp      ****     {
 529:fjol.cpp      ****       enc[i].ctlcvdest = enc[i].ctlcvdest+1;
 530:fjol.cpp      ****       if(enc[i].ctlcvdest > 3 && i == 0){enc[i].ctlcvdest = 0;}
 531:fjol.cpp      ****       if(enc[i].ctlcvdest > 7 && i == 1){enc[i].ctlcvdest = 0;}
 532:fjol.cpp      ****       led_takeover = 1;
 533:fjol.cpp      ****       ledlastmillis = System::GetNow();
 534:fjol.cpp      ****       led_menu_step(enc[i].ctlcvdest,red);
 535:fjol.cpp      ****       //getorsetsettings(1,0); 
 536:fjol.cpp      ****     }
 537:fjol.cpp      ****   }
 538:fjol.cpp      ****   //get algorithm switch
 539:fjol.cpp      ****   algo_sw.Debounce();
 2353              		.loc 7 539 3 is_stmt 1 view .LVU644
 2354              		.loc 7 539 19 is_stmt 0 view .LVU645
 2355 002c 454C     		ldr	r4, .L194+8
 2356 002e 2046     		mov	r0, r4
 2357 0030 FFF7FEFF 		bl	_ZN5daisy6Switch8DebounceEv
 2358              	.LVL120:
 540:fjol.cpp      ****   if(algo_sw.RisingEdge() && shift_sw.Pressed() == false)
 2359              		.loc 7 540 3 is_stmt 1 view .LVU646
 2360              	.LBB804:
 2361              	.LBI804:
  70:libDaisy/src/hid/switch.h **** 
 2362              		.loc 1 70 17 view .LVU647
 2363              	.LBB805:
  70:libDaisy/src/hid/switch.h **** 
 2364              		.loc 1 70 38 view .LVU648
  70:libDaisy/src/hid/switch.h **** 
 2365              		.loc 1 70 54 is_stmt 0 view .LVU649
 2366 0034 2379     		ldrb	r3, [r4, #4]	@ zero_extendqisi2
 2367 0036 2BB1     		cbz	r3, .L153
 2368              	.LVL121:
  70:libDaisy/src/hid/switch.h **** 
 2369              		.loc 1 70 54 view .LVU650
 2370              	.LBE805:
 2371              	.LBE804:
 2372              		.loc 7 540 27 view .LVU651
 2373 0038 A37A     		ldrb	r3, [r4, #10]	@ zero_extendqisi2
 2374 003a 7F2B     		cmp	r3, #127
 2375 003c 02D1     		bne	.L153
 2376              	.LVL122:
ARM GAS  /tmp/ccxnfbgf.s 			page 78


 2377              	.LBB806:
 2378              	.LBI806:
 2379              		.loc 1 79 17 is_stmt 1 view .LVU652
 2380              	.LBB807:
 2381              		.loc 1 79 35 view .LVU653
 2382              		.loc 1 79 35 is_stmt 0 view .LVU654
 2383              	.LBE807:
 2384              	.LBE806:
 2385              		.loc 7 540 27 view .LVU655
 2386 003e B37A     		ldrb	r3, [r6, #10]	@ zero_extendqisi2
 2387 0040 FF2B     		cmp	r3, #255
 2388 0042 5DD1     		bne	.L191
 2389              	.L153:
 541:fjol.cpp      ****   {
 542:fjol.cpp      ****     algo_select++;
 543:fjol.cpp      ****     algo_select = DSY_CLAMP(algo_select,0,3);
 544:fjol.cpp      ****      //PM algorithm select
 545:fjol.cpp      ****     //AudioNoInterrupts();
 546:fjol.cpp      ****     select_algorithm();
 547:fjol.cpp      ****     led_takeover = 1;
 548:fjol.cpp      ****     ledlastmillis = System::GetNow();
 549:fjol.cpp      ****     led_menu_step(algo_select,red);
 550:fjol.cpp      ****     //getorsetsettings(save); //save settings
 551:fjol.cpp      ****   }
 552:fjol.cpp      ****   else if(algo_sw.RisingEdge() && shift_sw.Pressed() == true)
 553:fjol.cpp      ****   {
 554:fjol.cpp      ****     getorsetsettings(save); //save settings
 555:fjol.cpp      ****   }
 556:fjol.cpp      ****   midi_sw.Debounce();
 2390              		.loc 7 556 3 is_stmt 1 view .LVU656
 2391              		.loc 7 556 19 is_stmt 0 view .LVU657
 2392 0044 4048     		ldr	r0, .L194+12
 2393 0046 FFF7FEFF 		bl	_ZN5daisy6Switch8DebounceEv
 2394              	.LVL123:
 557:fjol.cpp      ****   if(midi_sw.RisingEdge())
 2395              		.loc 7 557 3 is_stmt 1 view .LVU658
  70:libDaisy/src/hid/switch.h **** 
 2396              		.loc 1 70 38 view .LVU659
 2397              	.LBB808:
 558:fjol.cpp      ****   {
 559:fjol.cpp      ****     while(midi_sw.Pressed())
 560:fjol.cpp      ****     {
 561:fjol.cpp      ****       if(midi_sw.TimeHeldMs() >= 2000)
 562:fjol.cpp      ****       {
 563:fjol.cpp      ****         learn_active = 1;
 564:fjol.cpp      ****       }
 565:fjol.cpp      ****       else
 566:fjol.cpp      ****       {
 567:fjol.cpp      ****         midipanic();
 568:fjol.cpp      ****       }
 569:fjol.cpp      ****     }
 570:fjol.cpp      ****   } //midi switch ends
 571:fjol.cpp      ****   //gate expander
 572:fjol.cpp      ****   for(int i = 0; i<4;i++)
 573:fjol.cpp      ****   {
 574:fjol.cpp      ****     if(gate[i].gate.State())
 2398              		.loc 7 574 5 view .LVU660
ARM GAS  /tmp/ccxnfbgf.s 			page 79


 2399              	.LBB809:
 2400              	.LBI809:
 2401              		.file 13 "libDaisy/src/hid/gatein.h"
   1:libDaisy/src/hid/gatein.h **** #pragma once
   2:libDaisy/src/hid/gatein.h **** #ifndef DSY_GATEIN_H
   3:libDaisy/src/hid/gatein.h **** #define DSY_GATEIN_H
   4:libDaisy/src/hid/gatein.h **** #include "per/gpio.h"
   5:libDaisy/src/hid/gatein.h **** 
   6:libDaisy/src/hid/gatein.h **** namespace daisy
   7:libDaisy/src/hid/gatein.h **** {
   8:libDaisy/src/hid/gatein.h **** /**
   9:libDaisy/src/hid/gatein.h ****    @brief Generic Class for handling gate inputs through GPIO.
  10:libDaisy/src/hid/gatein.h ****    @author Stephen Hensley
  11:libDaisy/src/hid/gatein.h ****    @date    March 2020
  12:libDaisy/src/hid/gatein.h ****    @ingroup controls
  13:libDaisy/src/hid/gatein.h **** */
  14:libDaisy/src/hid/gatein.h **** class GateIn
  15:libDaisy/src/hid/gatein.h **** {
  16:libDaisy/src/hid/gatein.h ****   public:
  17:libDaisy/src/hid/gatein.h ****     /** GateIn 
  18:libDaisy/src/hid/gatein.h ****     Constructor 
  19:libDaisy/src/hid/gatein.h ****     */
  20:libDaisy/src/hid/gatein.h ****     GateIn() {}
  21:libDaisy/src/hid/gatein.h ****     /** GateIn~
  22:libDaisy/src/hid/gatein.h ****     Destructor 
  23:libDaisy/src/hid/gatein.h ****     */
  24:libDaisy/src/hid/gatein.h ****     ~GateIn() {}
  25:libDaisy/src/hid/gatein.h **** 
  26:libDaisy/src/hid/gatein.h ****     /** @brief Initializes the gate input with specified hardware pin
  27:libDaisy/src/hid/gatein.h ****      *
  28:libDaisy/src/hid/gatein.h ****      *  @param pin_cfg pointer to pin to initialize
  29:libDaisy/src/hid/gatein.h ****      *  @param invert True if the pin state is HIGH when 0V is present
  30:libDaisy/src/hid/gatein.h ****      *         at the input. False if input signal matches the pin state.
  31:libDaisy/src/hid/gatein.h ****      *
  32:libDaisy/src/hid/gatein.h ****      *  @note the default for invert is true because it is typical to use
  33:libDaisy/src/hid/gatein.h ****      *  an inverting input circuit (e.g. a BJT circuit) for eurorack gate inputs.
  34:libDaisy/src/hid/gatein.h ****      */
  35:libDaisy/src/hid/gatein.h ****     void Init(dsy_gpio_pin *pin_cfg, bool invert = true);
  36:libDaisy/src/hid/gatein.h **** 
  37:libDaisy/src/hid/gatein.h ****     /** Trig
  38:libDaisy/src/hid/gatein.h ****     Checks current state of gate input.
  39:libDaisy/src/hid/gatein.h **** 
  40:libDaisy/src/hid/gatein.h ****     @return True if the GPIO just transitioned.
  41:libDaisy/src/hid/gatein.h ****     */
  42:libDaisy/src/hid/gatein.h ****     bool Trig();
  43:libDaisy/src/hid/gatein.h **** 
  44:libDaisy/src/hid/gatein.h ****     /** State
  45:libDaisy/src/hid/gatein.h ****     Checks current state of gate input (no state required)
  46:libDaisy/src/hid/gatein.h **** 
  47:libDaisy/src/hid/gatein.h ****     read function is inverted because of suggested BJT input circuit
  48:libDaisy/src/hid/gatein.h ****     */
  49:libDaisy/src/hid/gatein.h ****     inline bool State()
 2402              		.loc 13 49 17 view .LVU661
 2403              	.LBB810:
  50:libDaisy/src/hid/gatein.h ****     {
  51:libDaisy/src/hid/gatein.h ****         return invert_ ? !dsy_gpio_read(&pin_) : dsy_gpio_read(&pin_);
 2404              		.loc 13 51 9 view .LVU662
ARM GAS  /tmp/ccxnfbgf.s 			page 80


 2405              		.loc 13 51 63 is_stmt 0 view .LVU663
 2406 004a 4048     		ldr	r0, .L194+16
 2407 004c FFF7FEFF 		bl	dsy_gpio_read
 2408              	.LVL124:
 2409              		.loc 13 51 63 view .LVU664
 2410              	.LBE810:
 2411              	.LBE809:
 572:fjol.cpp      ****   {
 2412              		.loc 7 572 3 is_stmt 1 view .LVU665
 572:fjol.cpp      ****   {
 2413              		.loc 7 572 19 view .LVU666
 2414              		.loc 7 574 5 view .LVU667
 2415              	.LBB815:
  49:libDaisy/src/hid/gatein.h ****     {
 2416              		.loc 13 49 17 view .LVU668
 2417              	.LBB811:
 2418              		.loc 13 51 9 view .LVU669
 2419              		.loc 13 51 63 is_stmt 0 view .LVU670
 2420 0050 3F48     		ldr	r0, .L194+20
 2421 0052 FFF7FEFF 		bl	dsy_gpio_read
 2422              	.LVL125:
 2423              		.loc 13 51 63 view .LVU671
 2424              	.LBE811:
 2425              	.LBE815:
 572:fjol.cpp      ****   {
 2426              		.loc 7 572 3 is_stmt 1 view .LVU672
 572:fjol.cpp      ****   {
 2427              		.loc 7 572 19 view .LVU673
 2428              		.loc 7 574 5 view .LVU674
 2429              	.LBB816:
  49:libDaisy/src/hid/gatein.h ****     {
 2430              		.loc 13 49 17 view .LVU675
 2431              	.LBB812:
 2432              		.loc 13 51 9 view .LVU676
 2433              		.loc 13 51 63 is_stmt 0 view .LVU677
 2434 0056 3F48     		ldr	r0, .L194+24
 2435 0058 FFF7FEFF 		bl	dsy_gpio_read
 2436              	.LVL126:
 2437              		.loc 13 51 63 view .LVU678
 2438              	.LBE812:
 2439              	.LBE816:
 572:fjol.cpp      ****   {
 2440              		.loc 7 572 3 is_stmt 1 view .LVU679
 572:fjol.cpp      ****   {
 2441              		.loc 7 572 19 view .LVU680
 2442              		.loc 7 574 5 view .LVU681
 2443              	.LBB817:
  49:libDaisy/src/hid/gatein.h ****     {
 2444              		.loc 13 49 17 view .LVU682
 2445              	.LBB813:
 2446              		.loc 13 51 9 view .LVU683
 2447              		.loc 13 51 63 is_stmt 0 view .LVU684
 2448 005c 3E48     		ldr	r0, .L194+28
 2449              	.LBE813:
 2450              	.LBE817:
 2451              	.LBE808:
 575:fjol.cpp      ****     {
ARM GAS  /tmp/ccxnfbgf.s 			page 81


 576:fjol.cpp      ****       //trigger envelope i
 577:fjol.cpp      ****     }
 578:fjol.cpp      ****     else
 579:fjol.cpp      ****     {
 580:fjol.cpp      ****       //stop envelope i
 581:fjol.cpp      ****     }
 582:fjol.cpp      ****   }
 583:fjol.cpp      **** }
 2452              		.loc 7 583 1 view .LVU685
 2453 005e BDE8F041 		pop	{r4, r5, r6, r7, r8, lr}
 2454              		.cfi_remember_state
 2455              		.cfi_restore 14
 2456              		.cfi_restore 8
 2457              		.cfi_restore 7
 2458              		.cfi_restore 6
 2459              		.cfi_restore 5
 2460              		.cfi_restore 4
 2461              		.cfi_def_cfa_offset 0
 2462              	.LVL127:
 2463              	.LBB819:
 2464              	.LBB818:
 2465              	.LBB814:
 2466              		.loc 13 51 63 view .LVU686
 2467 0062 FFF7FEBF 		b	dsy_gpio_read
 2468              	.LVL128:
 2469              	.L155:
 2470              		.cfi_restore_state
 2471              		.loc 13 51 63 view .LVU687
 2472              	.LBE814:
 2473              	.LBE818:
 2474              	.LBE819:
 2475              	.LBB820:
 515:fjol.cpp      ****     if((shift_sw.Pressed() == false) && enc[i].enc.RisingEdge())
 2476              		.loc 7 515 24 view .LVU688
 2477 0066 2046     		mov	r0, r4
 2478 0068 0125     		movs	r5, #1
 2479              	.LVL129:
 515:fjol.cpp      ****     if((shift_sw.Pressed() == false) && enc[i].enc.RisingEdge())
 2480              		.loc 7 515 5 is_stmt 1 view .LVU689
 515:fjol.cpp      ****     if((shift_sw.Pressed() == false) && enc[i].enc.RisingEdge())
 2481              		.loc 7 515 24 is_stmt 0 view .LVU690
 2482 006a FFF7FEFF 		bl	_ZN5daisy7Encoder8DebounceEv
 2483              	.LVL130:
 516:fjol.cpp      ****     {
 2484              		.loc 7 516 5 is_stmt 1 view .LVU691
 2485              	.LBB795:
 2486              		.loc 1 79 17 view .LVU692
 2487              	.LBB790:
 2488              		.loc 1 79 35 view .LVU693
 2489              		.loc 1 79 35 is_stmt 0 view .LVU694
 2490              	.LBE790:
 2491              	.LBE795:
 516:fjol.cpp      ****     {
 2492              		.loc 7 516 38 view .LVU695
 2493 006e B37A     		ldrb	r3, [r6, #10]	@ zero_extendqisi2
 2494 0070 FF2B     		cmp	r3, #255
 2495 0072 D4D1     		bne	.L142
ARM GAS  /tmp/ccxnfbgf.s 			page 82


 2496              	.L149:
 2497              	.LVL131:
 2498              	.LBB796:
 2499              	.LBI796:
 2500              		.loc 12 39 17 is_stmt 1 view .LVU696
 2501              	.LBE796:
 2502              	.LBE820:
 2503              		.loc 12 39 38 view .LVU697
 2504              	.LBB821:
 2505              	.LBB799:
 2506              	.LBB797:
 2507              	.LBI797:
  70:libDaisy/src/hid/switch.h **** 
 2508              		.loc 1 70 17 view .LVU698
 2509              	.LBB798:
  70:libDaisy/src/hid/switch.h **** 
 2510              		.loc 1 70 38 view .LVU699
  70:libDaisy/src/hid/switch.h **** 
 2511              		.loc 1 70 54 is_stmt 0 view .LVU700
 2512 0074 237B     		ldrb	r3, [r4, #12]	@ zero_extendqisi2
 2513 0076 002B     		cmp	r3, #0
 2514 0078 D6D0     		beq	.L146
 2515              	.LVL132:
  70:libDaisy/src/hid/switch.h **** 
 2516              		.loc 1 70 54 view .LVU701
 2517              	.LBE798:
 2518              	.LBE797:
 2519              	.LBE799:
 527:fjol.cpp      ****     {
 2520              		.loc 7 527 37 view .LVU702
 2521 007a A37C     		ldrb	r3, [r4, #18]	@ zero_extendqisi2
 2522 007c 7F2B     		cmp	r3, #127
 2523 007e D3D1     		bne	.L146
 529:fjol.cpp      ****       if(enc[i].ctlcvdest > 3 && i == 0){enc[i].ctlcvdest = 0;}
 2524              		.loc 7 529 7 is_stmt 1 view .LVU703
 529:fjol.cpp      ****       if(enc[i].ctlcvdest > 3 && i == 0){enc[i].ctlcvdest = 0;}
 2525              		.loc 7 529 42 is_stmt 0 view .LVU704
 2526 0080 94F82930 		ldrb	r3, [r4, #41]	@ zero_extendqisi2
 2527 0084 0133     		adds	r3, r3, #1
 2528 0086 DBB2     		uxtb	r3, r3
 529:fjol.cpp      ****       if(enc[i].ctlcvdest > 3 && i == 0){enc[i].ctlcvdest = 0;}
 2529              		.loc 7 529 24 view .LVU705
 2530 0088 84F82930 		strb	r3, [r4, #41]
 530:fjol.cpp      ****       if(enc[i].ctlcvdest > 7 && i == 1){enc[i].ctlcvdest = 0;}
 2531              		.loc 7 530 7 is_stmt 1 view .LVU706
 530:fjol.cpp      ****       if(enc[i].ctlcvdest > 7 && i == 1){enc[i].ctlcvdest = 0;}
 2532              		.loc 7 530 31 is_stmt 0 view .LVU707
 2533 008c 0DB9     		cbnz	r5, .L150
 2534 008e 032B     		cmp	r3, #3
 2535 0090 4CD8     		bhi	.L192
 2536              	.L150:
 531:fjol.cpp      ****       led_takeover = 1;
 2537              		.loc 7 531 7 is_stmt 1 view .LVU708
 531:fjol.cpp      ****       led_takeover = 1;
 2538              		.loc 7 531 31 is_stmt 0 view .LVU709
 2539 0092 072B     		cmp	r3, #7
 2540 0094 01D9     		bls	.L151
ARM GAS  /tmp/ccxnfbgf.s 			page 83


 2541 0096 002D     		cmp	r5, #0
 2542 0098 4CD1     		bne	.L193
 2543              	.L151:
 532:fjol.cpp      ****       ledlastmillis = System::GetNow();
 2544              		.loc 7 532 7 is_stmt 1 view .LVU710
 532:fjol.cpp      ****       ledlastmillis = System::GetNow();
 2545              		.loc 7 532 20 is_stmt 0 view .LVU711
 2546 009a 304B     		ldr	r3, .L194+32
 2547 009c 0122     		movs	r2, #1
 2548 009e 1A70     		strb	r2, [r3]
 533:fjol.cpp      ****       led_menu_step(enc[i].ctlcvdest,red);
 2549              		.loc 7 533 7 is_stmt 1 view .LVU712
 533:fjol.cpp      ****       led_menu_step(enc[i].ctlcvdest,red);
 2550              		.loc 7 533 37 is_stmt 0 view .LVU713
 2551 00a0 FFF7FEFF 		bl	_ZN5daisy6System6GetNowEv
 2552              	.LVL133:
 533:fjol.cpp      ****       led_menu_step(enc[i].ctlcvdest,red);
 2553              		.loc 7 533 21 view .LVU714
 2554 00a4 2E4B     		ldr	r3, .L194+36
 534:fjol.cpp      ****       //getorsetsettings(1,0); 
 2555              		.loc 7 534 20 view .LVU715
 2556 00a6 0221     		movs	r1, #2
 533:fjol.cpp      ****       led_menu_step(enc[i].ctlcvdest,red);
 2557              		.loc 7 533 21 view .LVU716
 2558 00a8 1860     		str	r0, [r3]
 534:fjol.cpp      ****       //getorsetsettings(1,0); 
 2559              		.loc 7 534 7 is_stmt 1 view .LVU717
 534:fjol.cpp      ****       //getorsetsettings(1,0); 
 2560              		.loc 7 534 20 is_stmt 0 view .LVU718
 2561 00aa 94F82900 		ldrb	r0, [r4, #41]	@ zero_extendqisi2
 2562 00ae FFF7FEFF 		bl	_Z13led_menu_stephh
 2563              	.LVL134:
 2564 00b2 B9E7     		b	.L146
 2565              	.L190:
 518:fjol.cpp      ****       if(enc[i].ctldest > 3 && i == 0){enc[i].ctldest = 0;}
 2566              		.loc 7 518 7 is_stmt 1 view .LVU719
 518:fjol.cpp      ****       if(enc[i].ctldest > 3 && i == 0){enc[i].ctldest = 0;}
 2567              		.loc 7 518 38 is_stmt 0 view .LVU720
 2568 00b4 94F82830 		ldrb	r3, [r4, #40]	@ zero_extendqisi2
 2569 00b8 0133     		adds	r3, r3, #1
 2570 00ba DBB2     		uxtb	r3, r3
 518:fjol.cpp      ****       if(enc[i].ctldest > 3 && i == 0){enc[i].ctldest = 0;}
 2571              		.loc 7 518 22 view .LVU721
 2572 00bc 84F82830 		strb	r3, [r4, #40]
 519:fjol.cpp      ****       if(enc[i].ctldest > 7 && i == 1){enc[i].ctldest = 0;}
 2573              		.loc 7 519 7 is_stmt 1 view .LVU722
 519:fjol.cpp      ****       if(enc[i].ctldest > 7 && i == 1){enc[i].ctldest = 0;}
 2574              		.loc 7 519 29 is_stmt 0 view .LVU723
 2575 00c0 B5B9     		cbnz	r5, .L147
 2576 00c2 032B     		cmp	r3, #3
 2577 00c4 14D9     		bls	.L147
 519:fjol.cpp      ****       if(enc[i].ctldest > 7 && i == 1){enc[i].ctldest = 0;}
 2578              		.loc 7 519 40 is_stmt 1 discriminator 2 view .LVU724
 519:fjol.cpp      ****       if(enc[i].ctldest > 7 && i == 1){enc[i].ctldest = 0;}
 2579              		.loc 7 519 55 is_stmt 0 discriminator 2 view .LVU725
 2580 00c6 0023     		movs	r3, #0
 2581 00c8 87F82830 		strb	r3, [r7, #40]
ARM GAS  /tmp/ccxnfbgf.s 			page 84


 520:fjol.cpp      ****       led_takeover = 1;
 2582              		.loc 7 520 7 is_stmt 1 discriminator 2 view .LVU726
 2583              	.L148:
 521:fjol.cpp      ****       ledlastmillis = System::GetNow();
 2584              		.loc 7 521 7 view .LVU727
 521:fjol.cpp      ****       ledlastmillis = System::GetNow();
 2585              		.loc 7 521 20 is_stmt 0 view .LVU728
 2586 00cc 234B     		ldr	r3, .L194+32
 2587 00ce 4FF00108 		mov	r8, #1
 2588 00d2 83F80080 		strb	r8, [r3]
 522:fjol.cpp      ****       led_menu_step(enc[i].ctldest,green);
 2589              		.loc 7 522 7 is_stmt 1 view .LVU729
 522:fjol.cpp      ****       led_menu_step(enc[i].ctldest,green);
 2590              		.loc 7 522 37 is_stmt 0 view .LVU730
 2591 00d6 FFF7FEFF 		bl	_ZN5daisy6System6GetNowEv
 2592              	.LVL135:
 522:fjol.cpp      ****       led_menu_step(enc[i].ctldest,green);
 2593              		.loc 7 522 21 view .LVU731
 2594 00da 214B     		ldr	r3, .L194+36
 523:fjol.cpp      ****       //getorsetsettings(1,0); 
 2595              		.loc 7 523 20 view .LVU732
 2596 00dc 4146     		mov	r1, r8
 522:fjol.cpp      ****       led_menu_step(enc[i].ctldest,green);
 2597              		.loc 7 522 21 view .LVU733
 2598 00de 1860     		str	r0, [r3]
 523:fjol.cpp      ****       //getorsetsettings(1,0); 
 2599              		.loc 7 523 7 is_stmt 1 view .LVU734
 523:fjol.cpp      ****       //getorsetsettings(1,0); 
 2600              		.loc 7 523 20 is_stmt 0 view .LVU735
 2601 00e0 94F82800 		ldrb	r0, [r4, #40]	@ zero_extendqisi2
 2602 00e4 FFF7FEFF 		bl	_Z13led_menu_stephh
 2603              	.LVL136:
 527:fjol.cpp      ****     {
 2604              		.loc 7 527 5 is_stmt 1 view .LVU736
 2605              	.LBB800:
 2606              	.LBI800:
 2607              		.loc 1 79 17 view .LVU737
 2608              	.LBB801:
 2609              		.loc 1 79 35 view .LVU738
 2610              		.loc 1 79 35 is_stmt 0 view .LVU739
 2611              	.LBE801:
 2612              	.LBE800:
 527:fjol.cpp      ****     {
 2613              		.loc 7 527 37 view .LVU740
 2614 00e8 B37A     		ldrb	r3, [r6, #10]	@ zero_extendqisi2
 2615 00ea FF2B     		cmp	r3, #255
 2616 00ec 9CD1     		bne	.L146
 2617 00ee C1E7     		b	.L149
 2618              	.L147:
 520:fjol.cpp      ****       led_takeover = 1;
 2619              		.loc 7 520 7 is_stmt 1 view .LVU741
 520:fjol.cpp      ****       led_takeover = 1;
 2620              		.loc 7 520 29 is_stmt 0 view .LVU742
 2621 00f0 072B     		cmp	r3, #7
 2622 00f2 EBD9     		bls	.L148
 2623 00f4 002D     		cmp	r5, #0
 2624 00f6 E9D0     		beq	.L148
ARM GAS  /tmp/ccxnfbgf.s 			page 85


 520:fjol.cpp      ****       led_takeover = 1;
 2625              		.loc 7 520 40 is_stmt 1 discriminator 2 view .LVU743
 520:fjol.cpp      ****       led_takeover = 1;
 2626              		.loc 7 520 55 is_stmt 0 discriminator 2 view .LVU744
 2627 00f8 0023     		movs	r3, #0
 2628 00fa 87F85430 		strb	r3, [r7, #84]
 2629 00fe E5E7     		b	.L148
 2630              	.LVL137:
 2631              	.L191:
 520:fjol.cpp      ****       led_takeover = 1;
 2632              		.loc 7 520 55 discriminator 2 view .LVU745
 2633              	.LBE821:
 542:fjol.cpp      ****     algo_select = DSY_CLAMP(algo_select,0,3);
 2634              		.loc 7 542 5 is_stmt 1 view .LVU746
 543:fjol.cpp      ****      //PM algorithm select
 2635              		.loc 7 543 5 view .LVU747
 543:fjol.cpp      ****      //PM algorithm select
 2636              		.loc 7 543 17 is_stmt 0 view .LVU748
 2637 0100 184C     		ldr	r4, .L194+40
 542:fjol.cpp      ****     algo_select = DSY_CLAMP(algo_select,0,3);
 2638              		.loc 7 542 16 view .LVU749
 2639 0102 2378     		ldrb	r3, [r4]	@ zero_extendqisi2
 2640 0104 0133     		adds	r3, r3, #1
 543:fjol.cpp      ****      //PM algorithm select
 2641              		.loc 7 543 19 view .LVU750
 2642 0106 DBB2     		uxtb	r3, r3
 2643 0108 032B     		cmp	r3, #3
 2644 010a 28BF     		it	cs
 2645 010c 0323     		movcs	r3, #3
 543:fjol.cpp      ****      //PM algorithm select
 2646              		.loc 7 543 17 view .LVU751
 2647 010e 2370     		strb	r3, [r4]
 546:fjol.cpp      ****     led_takeover = 1;
 2648              		.loc 7 546 5 is_stmt 1 view .LVU752
 546:fjol.cpp      ****     led_takeover = 1;
 2649              		.loc 7 546 21 is_stmt 0 view .LVU753
 2650 0110 FFF7FEFF 		bl	_Z16select_algorithmv
 2651              	.LVL138:
 547:fjol.cpp      ****     ledlastmillis = System::GetNow();
 2652              		.loc 7 547 5 is_stmt 1 view .LVU754
 547:fjol.cpp      ****     ledlastmillis = System::GetNow();
 2653              		.loc 7 547 18 is_stmt 0 view .LVU755
 2654 0114 114B     		ldr	r3, .L194+32
 2655 0116 1D70     		strb	r5, [r3]
 548:fjol.cpp      ****     led_menu_step(algo_select,red);
 2656              		.loc 7 548 5 is_stmt 1 view .LVU756
 548:fjol.cpp      ****     led_menu_step(algo_select,red);
 2657              		.loc 7 548 35 is_stmt 0 view .LVU757
 2658 0118 FFF7FEFF 		bl	_ZN5daisy6System6GetNowEv
 2659              	.LVL139:
 548:fjol.cpp      ****     led_menu_step(algo_select,red);
 2660              		.loc 7 548 19 view .LVU758
 2661 011c 104B     		ldr	r3, .L194+36
 548:fjol.cpp      ****     led_menu_step(algo_select,red);
 2662              		.loc 7 548 35 view .LVU759
 2663 011e 0246     		mov	r2, r0
 549:fjol.cpp      ****     //getorsetsettings(save); //save settings
ARM GAS  /tmp/ccxnfbgf.s 			page 86


 2664              		.loc 7 549 18 view .LVU760
 2665 0120 0221     		movs	r1, #2
 2666 0122 2078     		ldrb	r0, [r4]	@ zero_extendqisi2
 548:fjol.cpp      ****     led_menu_step(algo_select,red);
 2667              		.loc 7 548 19 view .LVU761
 2668 0124 1A60     		str	r2, [r3]
 549:fjol.cpp      ****     //getorsetsettings(save); //save settings
 2669              		.loc 7 549 5 is_stmt 1 view .LVU762
 549:fjol.cpp      ****     //getorsetsettings(save); //save settings
 2670              		.loc 7 549 18 is_stmt 0 view .LVU763
 2671 0126 FFF7FEFF 		bl	_Z13led_menu_stephh
 2672              	.LVL140:
 2673 012a 8BE7     		b	.L153
 2674              	.LVL141:
 2675              	.L192:
 2676              	.LBB822:
 530:fjol.cpp      ****       if(enc[i].ctlcvdest > 7 && i == 1){enc[i].ctlcvdest = 0;}
 2677              		.loc 7 530 42 is_stmt 1 discriminator 2 view .LVU764
 530:fjol.cpp      ****       if(enc[i].ctlcvdest > 7 && i == 1){enc[i].ctlcvdest = 0;}
 2678              		.loc 7 530 59 is_stmt 0 discriminator 2 view .LVU765
 2679 012c 0023     		movs	r3, #0
 2680 012e 87F82930 		strb	r3, [r7, #41]
 531:fjol.cpp      ****       led_takeover = 1;
 2681              		.loc 7 531 7 is_stmt 1 discriminator 2 view .LVU766
 2682 0132 B2E7     		b	.L151
 2683              	.L193:
 531:fjol.cpp      ****       led_takeover = 1;
 2684              		.loc 7 531 42 discriminator 2 view .LVU767
 531:fjol.cpp      ****       led_takeover = 1;
 2685              		.loc 7 531 59 is_stmt 0 discriminator 2 view .LVU768
 2686 0134 0023     		movs	r3, #0
 2687 0136 87F85530 		strb	r3, [r7, #85]
 2688 013a AEE7     		b	.L151
 2689              	.L195:
 2690              		.align	2
 2691              	.L194:
 2692 013c 00000000 		.word	.LANCHOR4
 2693 0140 00000000 		.word	.LANCHOR7
 2694 0144 00000000 		.word	.LANCHOR8
 2695 0148 00000000 		.word	.LANCHOR9
 2696 014c 00000000 		.word	.LANCHOR10
 2697 0150 07000000 		.word	.LANCHOR10+7
 2698 0154 0E000000 		.word	.LANCHOR10+14
 2699 0158 15000000 		.word	.LANCHOR10+21
 2700 015c 00000000 		.word	led_takeover
 2701 0160 00000000 		.word	ledlastmillis
 2702 0164 00000000 		.word	algo_select
 2703              	.LBE822:
 2704              		.cfi_endproc
 2705              	.LFE4828:
 2707              		.section	.text._Z14updatecontrolsv,"ax",%progbits
 2708              		.align	1
 2709              		.p2align 2,,3
 2710              		.global	_Z14updatecontrolsv
 2711              		.syntax unified
 2712              		.thumb
 2713              		.thumb_func
ARM GAS  /tmp/ccxnfbgf.s 			page 87


 2715              	_Z14updatecontrolsv:
 2716              	.LFB4826:
 449:fjol.cpp      ****   float temp = 0;
 2717              		.loc 7 449 1 is_stmt 1 view -0
 2718              		.cfi_startproc
 2719              		@ args = 0, pretend = 0, frame = 0
 2720              		@ frame_needed = 0, uses_anonymous_args = 0
 450:fjol.cpp      ****   if(led_takeover == 0)
 2721              		.loc 7 450 3 view .LVU770
 2722              	.LVL142:
 451:fjol.cpp      ****   {
 2723              		.loc 7 451 3 view .LVU771
 449:fjol.cpp      ****   float temp = 0;
 2724              		.loc 7 449 1 is_stmt 0 view .LVU772
 2725 0000 38B5     		push	{r3, r4, r5, lr}
 2726              		.cfi_def_cfa_offset 16
 2727              		.cfi_offset 3, -16
 2728              		.cfi_offset 4, -12
 2729              		.cfi_offset 5, -8
 2730              		.cfi_offset 14, -4
 2731              	.LBB823:
 451:fjol.cpp      ****   {
 2732              		.loc 7 451 19 view .LVU773
 2733 0002 194B     		ldr	r3, .L210
 451:fjol.cpp      ****   {
 2734              		.loc 7 451 3 view .LVU774
 2735 0004 1B78     		ldrb	r3, [r3]	@ zero_extendqisi2
 2736              	.LBE823:
 449:fjol.cpp      ****   float temp = 0;
 2737              		.loc 7 449 1 view .LVU775
 2738 0006 2DED028B 		vpush.64	{d8}
 2739              		.cfi_def_cfa_offset 24
 2740              		.cfi_offset 80, -24
 2741              		.cfi_offset 81, -20
 2742              	.LBB837:
 451:fjol.cpp      ****   {
 2743              		.loc 7 451 3 view .LVU776
 2744 000a CBB9     		cbnz	r3, .L201
 2745 000c 174C     		ldr	r4, .L210+4
 2746              	.LBE837:
 450:fjol.cpp      ****   if(led_takeover == 0)
 2747              		.loc 7 450 9 view .LVU777
 2748 000e 9FED188A 		vldr.32	s16, .L210+8
 2749 0012 04F15805 		add	r5, r4, #88
 2750              	.LVL143:
 2751              	.L202:
 2752              	.LBB838:
 2753              	.LBB824:
 455:fjol.cpp      ****      if(enc[i].enc.Pressed() == 0)
 2754              		.loc 7 455 6 is_stmt 1 view .LVU778
 455:fjol.cpp      ****      if(enc[i].enc.Pressed() == 0)
 2755              		.loc 7 455 25 is_stmt 0 view .LVU779
 2756 0016 2046     		mov	r0, r4
 2757 0018 FFF7FEFF 		bl	_ZN5daisy7Encoder8DebounceEv
 2758              	.LVL144:
 456:fjol.cpp      ****      {temp = encoder_read(enc[i].enc.Increment());}
 2759              		.loc 7 456 6 is_stmt 1 view .LVU780
ARM GAS  /tmp/ccxnfbgf.s 			page 88


 2760              	.LBB825:
 2761              	.LBI825:
  40:libDaisy/src/hid/encoder.h **** 
  41:libDaisy/src/hid/encoder.h ****     /** Returns true if the encoder was just released. */
  42:libDaisy/src/hid/encoder.h ****     inline bool FallingEdge() const { return sw_.FallingEdge(); }
  43:libDaisy/src/hid/encoder.h **** 
  44:libDaisy/src/hid/encoder.h ****     /** Returns true while the encoder is held down.*/
  45:libDaisy/src/hid/encoder.h ****     inline bool Pressed() const { return sw_.Pressed(); }
 2762              		.loc 12 45 17 view .LVU781
 2763              	.LBE825:
 2764              	.LBE824:
 2765              	.LBE838:
 2766              		.loc 12 45 35 view .LVU782
 2767              	.LBB839:
 2768              	.LBB835:
 2769              	.LBB828:
 2770              	.LBB826:
 2771              	.LBI826:
 2772              		.loc 1 79 17 view .LVU783
 2773              	.LBB827:
 2774              		.loc 1 79 35 view .LVU784
 2775              		.loc 1 79 35 is_stmt 0 view .LVU785
 2776              	.LBE827:
 2777              	.LBE826:
 2778              	.LBE828:
 457:fjol.cpp      ****      if(temp != 0)
 2779              		.loc 7 457 7 is_stmt 1 view .LVU786
 2780              	.LBB829:
 2781              	.LBI829:
  36:libDaisy/src/hid/encoder.h **** 
 2782              		.loc 12 36 20 view .LVU787
 2783              	.LBB830:
  36:libDaisy/src/hid/encoder.h **** 
 2784              		.loc 12 36 40 view .LVU788
 2785              	.LBE830:
 2786              	.LBE829:
 456:fjol.cpp      ****      {temp = encoder_read(enc[i].enc.Increment());}
 2787              		.loc 7 456 6 is_stmt 0 view .LVU789
 2788 001c A37C     		ldrb	r3, [r4, #18]	@ zero_extendqisi2
 2789 001e FF2B     		cmp	r3, #255
 2790 0020 06D0     		beq	.L198
 2791              	.LBB833:
 2792              	.LBB831:
  36:libDaisy/src/hid/encoder.h **** 
 2793              		.loc 12 36 56 view .LVU790
 2794 0022 2379     		ldrb	r3, [r4, #4]	@ zero_extendqisi2
 2795 0024 1846     		mov	r0, r3
 2796 0026 9BB9     		cbnz	r3, .L208
 2797              	.L199:
  36:libDaisy/src/hid/encoder.h **** 
 2798              		.loc 12 36 56 view .LVU791
 2799              	.LBE831:
 2800              	.LBE833:
 457:fjol.cpp      ****      if(temp != 0)
 2801              		.loc 7 457 26 view .LVU792
 2802 0028 FFF7FEFF 		bl	_Z12encoder_reada
 2803              	.LVL145:
ARM GAS  /tmp/ccxnfbgf.s 			page 89


 2804 002c B0EE408A 		vmov.f32	s16, s0
 2805              	.LVL146:
 2806              	.L198:
 458:fjol.cpp      ****      {update_params(enc[i].ctldest,temp,0);}
 2807              		.loc 7 458 6 is_stmt 1 view .LVU793
 2808 0030 B5EE408A 		vcmp.f32	s16, #0
 2809 0034 F1EE10FA 		vmrs	APSR_nzcv, FPSCR
 2810 0038 0DD1     		bne	.L209
 2811              	.L200:
 453:fjol.cpp      ****    {
 2812              		.loc 7 453 4 discriminator 2 view .LVU794
 453:fjol.cpp      ****    {
 2813              		.loc 7 453 19 discriminator 2 view .LVU795
 2814 003a 2C34     		adds	r4, r4, #44
 2815 003c AC42     		cmp	r4, r5
 2816 003e EAD1     		bne	.L202
 2817              	.LVL147:
 2818              	.L201:
 453:fjol.cpp      ****    {
 2819              		.loc 7 453 19 is_stmt 0 discriminator 2 view .LVU796
 2820              	.LBE835:
 2821              	.LBE839:
 462:fjol.cpp      ****   updateadc();
 2822              		.loc 7 462 3 is_stmt 1 view .LVU797
 462:fjol.cpp      ****   updateadc();
 2823              		.loc 7 462 17 is_stmt 0 view .LVU798
 2824 0040 FFF7FEFF 		bl	_Z14updateSwitchesv
 2825              	.LVL148:
 463:fjol.cpp      **** }
 2826              		.loc 7 463 3 is_stmt 1 view .LVU799
 464:fjol.cpp      **** 
 2827              		.loc 7 464 1 is_stmt 0 view .LVU800
 2828 0044 BDEC028B 		vldm	sp!, {d8}
 2829              		.cfi_remember_state
 2830              		.cfi_restore 80
 2831              		.cfi_restore 81
 2832              		.cfi_def_cfa_offset 16
 2833 0048 BDE83840 		pop	{r3, r4, r5, lr}
 2834              		.cfi_restore 14
 2835              		.cfi_restore 5
 2836              		.cfi_restore 4
 2837              		.cfi_restore 3
 2838              		.cfi_def_cfa_offset 0
 463:fjol.cpp      **** }
 2839              		.loc 7 463 12 view .LVU801
 2840 004c FFF7FEBF 		b	_Z9updateadcv
 2841              	.LVL149:
 2842              	.L208:
 2843              		.cfi_restore_state
 2844              	.LBB840:
 2845              	.LBB836:
 457:fjol.cpp      ****      if(temp != 0)
 2846              		.loc 7 457 26 view .LVU802
 2847 0050 94F92400 		ldrsb	r0, [r4, #36]
 2848              	.LBB834:
 2849              	.LBB832:
 2850 0054 E8E7     		b	.L199
ARM GAS  /tmp/ccxnfbgf.s 			page 90


 2851              	.L209:
 457:fjol.cpp      ****      if(temp != 0)
 2852              		.loc 7 457 26 view .LVU803
 2853              	.LBE832:
 2854              	.LBE834:
 459:fjol.cpp      ****    }
 2855              		.loc 7 459 7 is_stmt 1 view .LVU804
 459:fjol.cpp      ****    }
 2856              		.loc 7 459 20 is_stmt 0 view .LVU805
 2857 0056 B0EE480A 		vmov.f32	s0, s16
 2858 005a 94F82800 		ldrb	r0, [r4, #40]	@ zero_extendqisi2
 2859 005e DFED040A 		vldr.32	s1, .L210+8
 2860 0062 FFF7FEFF 		bl	_Z13update_paramsiff
 2861              	.LVL150:
 2862 0066 E8E7     		b	.L200
 2863              	.L211:
 2864              		.align	2
 2865              	.L210:
 2866 0068 00000000 		.word	led_takeover
 2867 006c 00000000 		.word	.LANCHOR4
 2868 0070 00000000 		.word	0
 2869              	.LBE836:
 2870              	.LBE840:
 2871              		.cfi_endproc
 2872              	.LFE4826:
 2874              		.section	.text._Z15initializeaudiov,"ax",%progbits
 2875              		.align	1
 2876              		.p2align 2,,3
 2877              		.global	_Z15initializeaudiov
 2878              		.syntax unified
 2879              		.thumb
 2880              		.thumb_func
 2882              	_Z15initializeaudiov:
 2883              	.LFB4829:
 584:fjol.cpp      **** 
 585:fjol.cpp      **** void initializeaudio()
 586:fjol.cpp      **** {
 2884              		.loc 7 586 1 is_stmt 1 view -0
 2885              		.cfi_startproc
 2886              		@ args = 0, pretend = 0, frame = 0
 2887              		@ frame_needed = 0, uses_anonymous_args = 0
 587:fjol.cpp      **** 
 588:fjol.cpp      ****   //initialize operators and VCA envelopes
 589:fjol.cpp      ****   for(int i = 0;i<voicecount;i++)
 2888              		.loc 7 589 3 view .LVU807
 2889              	.LVL151:
 2890              	.LBB863:
 2891              		.loc 7 589 18 view .LVU808
 2892              	.LBE863:
 586:fjol.cpp      **** 
 2893              		.loc 7 586 1 is_stmt 0 view .LVU809
 2894 0000 2DE9F84F 		push	{r3, r4, r5, r6, r7, r8, r9, r10, fp, lr}
 2895              		.cfi_def_cfa_offset 40
 2896              		.cfi_offset 3, -40
 2897              		.cfi_offset 4, -36
 2898              		.cfi_offset 5, -32
 2899              		.cfi_offset 6, -28
ARM GAS  /tmp/ccxnfbgf.s 			page 91


 2900              		.cfi_offset 7, -24
 2901              		.cfi_offset 8, -20
 2902              		.cfi_offset 9, -16
 2903              		.cfi_offset 10, -12
 2904              		.cfi_offset 11, -8
 2905              		.cfi_offset 14, -4
 2906              	.LBB906:
 590:fjol.cpp      ****   {
 591:fjol.cpp      ****     voice[i].op1.Init(samplerate);
 592:fjol.cpp      ****     voice[i].op2.Init(samplerate);
 593:fjol.cpp      ****     voice[i].op3.Init(samplerate);
 594:fjol.cpp      ****     voice[i].op1.SetWaveform(Oscillator::WAVE_SIN);
 595:fjol.cpp      ****     voice[i].op2.SetWaveform(Oscillator::WAVE_SIN);
 596:fjol.cpp      ****     voice[i].op3.SetWaveform(Oscillator::WAVE_SIN);
 597:fjol.cpp      ****     voice[i].op1.SetAmp(pm1amp);
 2907              		.loc 7 597 24 view .LVU810
 2908 0004 5A4B     		ldr	r3, .L216
 2909 0006 5B4C     		ldr	r4, .L216+4
 2910 0008 DFF88881 		ldr	r8, .L216+36
 2911 000c DFF88891 		ldr	r9, .L216+40
 2912 0010 04F5387B 		add	fp, r4, #736
 2913              	.LBE906:
 586:fjol.cpp      **** 
 2914              		.loc 7 586 1 view .LVU811
 2915 0014 2DED048B 		vpush.64	{d8, d9}
 2916              		.cfi_def_cfa_offset 56
 2917              		.cfi_offset 80, -56
 2918              		.cfi_offset 81, -52
 2919              		.cfi_offset 82, -48
 2920              		.cfi_offset 83, -44
 2921              	.LBB907:
 2922              		.loc 7 597 24 view .LVU812
 2923 0018 D3ED009A 		vldr.32	s19, [r3]
 2924              	.LVL152:
 2925              	.L213:
 591:fjol.cpp      ****     voice[i].op2.Init(samplerate);
 2926              		.loc 7 591 5 is_stmt 1 discriminator 2 view .LVU813
 2927              	.LBB864:
 2928              	.LBB865:
  45:DaisySP/Source/Synthesis/oscillator.h ****         freq_      = 100.0f;
 2929              		.loc 10 45 27 is_stmt 0 discriminator 2 view .LVU814
 2930 001c B7EE009A 		vmov.f32	s18, #1.0e+0
 2931              	.LBE865:
 2932              	.LBE864:
 591:fjol.cpp      ****     voice[i].op2.Init(samplerate);
 2933              		.loc 7 591 22 discriminator 2 view .LVU815
 2934 0020 D9ED007A 		vldr.32	s15, [r9]
 2935              	.LVL153:
 2936              	.LBB870:
 2937              	.LBI864:
  42:DaisySP/Source/Synthesis/oscillator.h ****     {
 2938              		.loc 10 42 10 is_stmt 1 discriminator 2 view .LVU816
 2939              	.LBB866:
  44:DaisySP/Source/Synthesis/oscillator.h ****         sr_recip_  = 1.0f / sample_rate;
 2940              		.loc 10 44 9 discriminator 2 view .LVU817
  47:DaisySP/Source/Synthesis/oscillator.h ****         pw_        = 0.5f;
 2941              		.loc 10 47 20 is_stmt 0 discriminator 2 view .LVU818
ARM GAS  /tmp/ccxnfbgf.s 			page 92


 2942 0024 4FF07C56 		mov	r6, #1056964608
  46:DaisySP/Source/Synthesis/oscillator.h ****         amp_       = 0.5f;
 2943              		.loc 10 46 20 discriminator 2 view .LVU819
 2944 0028 9FED538A 		vldr.32	s16, .L216+8
  50:DaisySP/Source/Synthesis/oscillator.h ****         phase_inc_ = CalcPhaseInc(freq_);
 2945              		.loc 10 50 20 discriminator 2 view .LVU820
 2946 002c DFED538A 		vldr.32	s17, .L216+12
  51:DaisySP/Source/Synthesis/oscillator.h ****         waveform_  = WAVE_SIN;
 2947              		.loc 10 51 34 discriminator 2 view .LVU821
 2948 0030 A4F16000 		sub	r0, r4, #96
 2949              	.LVL154:
  45:DaisySP/Source/Synthesis/oscillator.h ****         freq_      = 100.0f;
 2950              		.loc 10 45 27 discriminator 2 view .LVU822
 2951 0034 89EE277A 		vdiv.f32	s14, s18, s15
  49:DaisySP/Source/Synthesis/oscillator.h ****         phase_     = 0.0f;
 2952              		.loc 10 49 20 discriminator 2 view .LVU823
 2953 0038 DFF860A1 		ldr	r10, .L216+44
  44:DaisySP/Source/Synthesis/oscillator.h ****         sr_recip_  = 1.0f / sample_rate;
 2954              		.loc 10 44 20 discriminator 2 view .LVU824
 2955 003c 44ED137A 		vstr.32	s15, [r4, #-76]
  45:DaisySP/Source/Synthesis/oscillator.h ****         freq_      = 100.0f;
 2956              		.loc 10 45 9 is_stmt 1 discriminator 2 view .LVU825
  53:DaisySP/Source/Synthesis/oscillator.h ****         eor_       = true;
 2957              		.loc 10 53 20 is_stmt 0 discriminator 2 view .LVU826
 2958 0040 0125     		movs	r5, #1
  50:DaisySP/Source/Synthesis/oscillator.h ****         phase_inc_ = CalcPhaseInc(freq_);
 2959              		.loc 10 50 20 discriminator 2 view .LVU827
 2960 0042 44ED118A 		vstr.32	s17, [r4, #-68]
  52:DaisySP/Source/Synthesis/oscillator.h ****         eoc_       = true;
 2961              		.loc 10 52 20 discriminator 2 view .LVU828
 2962 0046 0027     		movs	r7, #0
  46:DaisySP/Source/Synthesis/oscillator.h ****         amp_       = 0.5f;
 2963              		.loc 10 46 20 discriminator 2 view .LVU829
 2964 0048 04ED168A 		vstr.32	s16, [r4, #-88]
  47:DaisySP/Source/Synthesis/oscillator.h ****         pw_        = 0.5f;
 2965              		.loc 10 47 20 discriminator 2 view .LVU830
 2966 004c 44F85C6C 		str	r6, [r4, #-92]	@ float
  48:DaisySP/Source/Synthesis/oscillator.h ****         pw_rad_    = pw_ * TWOPI_F;
 2967              		.loc 10 48 20 discriminator 2 view .LVU831
 2968 0050 44F8546C 		str	r6, [r4, #-84]	@ float
  51:DaisySP/Source/Synthesis/oscillator.h ****         waveform_  = WAVE_SIN;
 2969              		.loc 10 51 34 discriminator 2 view .LVU832
 2970 0054 B0EE480A 		vmov.f32	s0, s16
  49:DaisySP/Source/Synthesis/oscillator.h ****         phase_     = 0.0f;
 2971              		.loc 10 49 20 discriminator 2 view .LVU833
 2972 0058 44F850AC 		str	r10, [r4, #-80]	@ float
  45:DaisySP/Source/Synthesis/oscillator.h ****         freq_      = 100.0f;
 2973              		.loc 10 45 20 discriminator 2 view .LVU834
 2974 005c 04ED127A 		vstr.32	s14, [r4, #-72]
  46:DaisySP/Source/Synthesis/oscillator.h ****         amp_       = 0.5f;
 2975              		.loc 10 46 9 is_stmt 1 discriminator 2 view .LVU835
  47:DaisySP/Source/Synthesis/oscillator.h ****         pw_        = 0.5f;
 2976              		.loc 10 47 9 discriminator 2 view .LVU836
  48:DaisySP/Source/Synthesis/oscillator.h ****         pw_rad_    = pw_ * TWOPI_F;
 2977              		.loc 10 48 9 discriminator 2 view .LVU837
  49:DaisySP/Source/Synthesis/oscillator.h ****         phase_     = 0.0f;
 2978              		.loc 10 49 9 discriminator 2 view .LVU838
ARM GAS  /tmp/ccxnfbgf.s 			page 93


  50:DaisySP/Source/Synthesis/oscillator.h ****         phase_inc_ = CalcPhaseInc(freq_);
 2979              		.loc 10 50 9 discriminator 2 view .LVU839
  51:DaisySP/Source/Synthesis/oscillator.h ****         waveform_  = WAVE_SIN;
 2980              		.loc 10 51 9 discriminator 2 view .LVU840
  51:DaisySP/Source/Synthesis/oscillator.h ****         waveform_  = WAVE_SIN;
 2981              		.loc 10 51 34 is_stmt 0 discriminator 2 view .LVU841
 2982 0060 FFF7FEFF 		bl	_ZN7daisysp10Oscillator12CalcPhaseIncEf
 2983              	.LVL155:
  51:DaisySP/Source/Synthesis/oscillator.h ****         waveform_  = WAVE_SIN;
 2984              		.loc 10 51 34 discriminator 2 view .LVU842
 2985              	.LBE866:
 2986              	.LBE870:
 592:fjol.cpp      ****     voice[i].op3.Init(samplerate);
 2987              		.loc 7 592 22 discriminator 2 view .LVU843
 2988 0064 D9ED007A 		vldr.32	s15, [r9]
 2989              	.LBB871:
 2990              	.LBB867:
  51:DaisySP/Source/Synthesis/oscillator.h ****         waveform_  = WAVE_SIN;
 2991              		.loc 10 51 34 discriminator 2 view .LVU844
 2992 0068 F0EE406A 		vmov.f32	s13, s0
 2993              	.LBE867:
 2994              	.LBE871:
 2995              	.LBB872:
 2996              	.LBB873:
 2997 006c A4F13000 		sub	r0, r4, #48
  45:DaisySP/Source/Synthesis/oscillator.h ****         freq_      = 100.0f;
 2998              		.loc 10 45 27 discriminator 2 view .LVU845
 2999 0070 89EE277A 		vdiv.f32	s14, s18, s15
  44:DaisySP/Source/Synthesis/oscillator.h ****         sr_recip_  = 1.0f / sample_rate;
 3000              		.loc 10 44 20 discriminator 2 view .LVU846
 3001 0074 44ED077A 		vstr.32	s15, [r4, #-28]
 3002              	.LBE873:
 3003              	.LBE872:
 3004              	.LBB878:
 3005              	.LBB868:
  53:DaisySP/Source/Synthesis/oscillator.h ****         eor_       = true;
 3006              		.loc 10 53 20 discriminator 2 view .LVU847
 3007 0078 04F8335C 		strb	r5, [r4, #-51]
  51:DaisySP/Source/Synthesis/oscillator.h ****         waveform_  = WAVE_SIN;
 3008              		.loc 10 51 20 discriminator 2 view .LVU848
 3009 007c 44ED106A 		vstr.32	s13, [r4, #-64]
  52:DaisySP/Source/Synthesis/oscillator.h ****         eoc_       = true;
 3010              		.loc 10 52 9 is_stmt 1 discriminator 2 view .LVU849
  54:DaisySP/Source/Synthesis/oscillator.h ****     }
 3011              		.loc 10 54 20 is_stmt 0 discriminator 2 view .LVU850
 3012 0080 04F8345C 		strb	r5, [r4, #-52]
 3013              	.LBE868:
 3014              	.LBE878:
 3015              	.LBB879:
 3016              	.LBB874:
  46:DaisySP/Source/Synthesis/oscillator.h ****         amp_       = 0.5f;
 3017              		.loc 10 46 20 discriminator 2 view .LVU851
 3018 0084 04ED0A8A 		vstr.32	s16, [r4, #-40]
  47:DaisySP/Source/Synthesis/oscillator.h ****         pw_        = 0.5f;
 3019              		.loc 10 47 20 discriminator 2 view .LVU852
 3020 0088 44F82C6C 		str	r6, [r4, #-44]	@ float
  51:DaisySP/Source/Synthesis/oscillator.h ****         waveform_  = WAVE_SIN;
ARM GAS  /tmp/ccxnfbgf.s 			page 94


 3021              		.loc 10 51 34 discriminator 2 view .LVU853
 3022 008c B0EE480A 		vmov.f32	s0, s16
  48:DaisySP/Source/Synthesis/oscillator.h ****         pw_rad_    = pw_ * TWOPI_F;
 3023              		.loc 10 48 20 discriminator 2 view .LVU854
 3024 0090 44F8246C 		str	r6, [r4, #-36]	@ float
  49:DaisySP/Source/Synthesis/oscillator.h ****         phase_     = 0.0f;
 3025              		.loc 10 49 20 discriminator 2 view .LVU855
 3026 0094 44F820AC 		str	r10, [r4, #-32]	@ float
  50:DaisySP/Source/Synthesis/oscillator.h ****         phase_inc_ = CalcPhaseInc(freq_);
 3027              		.loc 10 50 20 discriminator 2 view .LVU856
 3028 0098 44ED058A 		vstr.32	s17, [r4, #-20]
 3029              	.LBE874:
 3030              	.LBE879:
 3031              	.LBB880:
 3032              	.LBB869:
  52:DaisySP/Source/Synthesis/oscillator.h ****         eoc_       = true;
 3033              		.loc 10 52 20 discriminator 2 view .LVU857
 3034 009c 04F8607C 		strb	r7, [r4, #-96]
  53:DaisySP/Source/Synthesis/oscillator.h ****         eor_       = true;
 3035              		.loc 10 53 9 is_stmt 1 discriminator 2 view .LVU858
  54:DaisySP/Source/Synthesis/oscillator.h ****     }
 3036              		.loc 10 54 9 discriminator 2 view .LVU859
 3037              	.LVL156:
  54:DaisySP/Source/Synthesis/oscillator.h ****     }
 3038              		.loc 10 54 9 is_stmt 0 discriminator 2 view .LVU860
 3039              	.LBE869:
 3040              	.LBE880:
 592:fjol.cpp      ****     voice[i].op3.Init(samplerate);
 3041              		.loc 7 592 5 is_stmt 1 discriminator 2 view .LVU861
 3042              	.LBB881:
 3043              	.LBI872:
  42:DaisySP/Source/Synthesis/oscillator.h ****     {
 3044              		.loc 10 42 10 discriminator 2 view .LVU862
 3045              	.LBB875:
  44:DaisySP/Source/Synthesis/oscillator.h ****         sr_recip_  = 1.0f / sample_rate;
 3046              		.loc 10 44 9 discriminator 2 view .LVU863
  45:DaisySP/Source/Synthesis/oscillator.h ****         freq_      = 100.0f;
 3047              		.loc 10 45 9 discriminator 2 view .LVU864
  45:DaisySP/Source/Synthesis/oscillator.h ****         freq_      = 100.0f;
 3048              		.loc 10 45 20 is_stmt 0 discriminator 2 view .LVU865
 3049 00a0 04ED067A 		vstr.32	s14, [r4, #-24]
  46:DaisySP/Source/Synthesis/oscillator.h ****         amp_       = 0.5f;
 3050              		.loc 10 46 9 is_stmt 1 discriminator 2 view .LVU866
  47:DaisySP/Source/Synthesis/oscillator.h ****         pw_        = 0.5f;
 3051              		.loc 10 47 9 discriminator 2 view .LVU867
  48:DaisySP/Source/Synthesis/oscillator.h ****         pw_rad_    = pw_ * TWOPI_F;
 3052              		.loc 10 48 9 discriminator 2 view .LVU868
  49:DaisySP/Source/Synthesis/oscillator.h ****         phase_     = 0.0f;
 3053              		.loc 10 49 9 discriminator 2 view .LVU869
  50:DaisySP/Source/Synthesis/oscillator.h ****         phase_inc_ = CalcPhaseInc(freq_);
 3054              		.loc 10 50 9 discriminator 2 view .LVU870
  51:DaisySP/Source/Synthesis/oscillator.h ****         waveform_  = WAVE_SIN;
 3055              		.loc 10 51 9 discriminator 2 view .LVU871
  51:DaisySP/Source/Synthesis/oscillator.h ****         waveform_  = WAVE_SIN;
 3056              		.loc 10 51 34 is_stmt 0 discriminator 2 view .LVU872
 3057 00a4 FFF7FEFF 		bl	_ZN7daisysp10Oscillator12CalcPhaseIncEf
 3058              	.LVL157:
ARM GAS  /tmp/ccxnfbgf.s 			page 95


  51:DaisySP/Source/Synthesis/oscillator.h ****         waveform_  = WAVE_SIN;
 3059              		.loc 10 51 34 discriminator 2 view .LVU873
 3060              	.LBE875:
 3061              	.LBE881:
 593:fjol.cpp      ****     voice[i].op1.SetWaveform(Oscillator::WAVE_SIN);
 3062              		.loc 7 593 22 discriminator 2 view .LVU874
 3063 00a8 D9ED007A 		vldr.32	s15, [r9]
 3064              	.LBB882:
 3065              	.LBB876:
  51:DaisySP/Source/Synthesis/oscillator.h ****         waveform_  = WAVE_SIN;
 3066              		.loc 10 51 34 discriminator 2 view .LVU875
 3067 00ac F0EE406A 		vmov.f32	s13, s0
 3068              	.LBE876:
 3069              	.LBE882:
 3070              	.LBB883:
 3071              	.LBB884:
 3072 00b0 2046     		mov	r0, r4
  45:DaisySP/Source/Synthesis/oscillator.h ****         freq_      = 100.0f;
 3073              		.loc 10 45 27 discriminator 2 view .LVU876
 3074 00b2 89EE277A 		vdiv.f32	s14, s18, s15
  44:DaisySP/Source/Synthesis/oscillator.h ****         sr_recip_  = 1.0f / sample_rate;
 3075              		.loc 10 44 20 discriminator 2 view .LVU877
 3076 00b6 C4ED057A 		vstr.32	s15, [r4, #20]
 3077              	.LBE884:
 3078              	.LBE883:
 3079              	.LBB888:
 3080              	.LBB877:
  52:DaisySP/Source/Synthesis/oscillator.h ****         eoc_       = true;
 3081              		.loc 10 52 20 discriminator 2 view .LVU878
 3082 00ba 04F8307C 		strb	r7, [r4, #-48]
  51:DaisySP/Source/Synthesis/oscillator.h ****         waveform_  = WAVE_SIN;
 3083              		.loc 10 51 20 discriminator 2 view .LVU879
 3084 00be 44ED046A 		vstr.32	s13, [r4, #-16]
  52:DaisySP/Source/Synthesis/oscillator.h ****         eoc_       = true;
 3085              		.loc 10 52 9 is_stmt 1 discriminator 2 view .LVU880
  53:DaisySP/Source/Synthesis/oscillator.h ****         eor_       = true;
 3086              		.loc 10 53 9 discriminator 2 view .LVU881
  53:DaisySP/Source/Synthesis/oscillator.h ****         eor_       = true;
 3087              		.loc 10 53 20 is_stmt 0 discriminator 2 view .LVU882
 3088 00c2 04F8035C 		strb	r5, [r4, #-3]
  54:DaisySP/Source/Synthesis/oscillator.h ****     }
 3089              		.loc 10 54 9 is_stmt 1 discriminator 2 view .LVU883
  54:DaisySP/Source/Synthesis/oscillator.h ****     }
 3090              		.loc 10 54 20 is_stmt 0 discriminator 2 view .LVU884
 3091 00c6 04F8045C 		strb	r5, [r4, #-4]
 3092              	.LVL158:
  54:DaisySP/Source/Synthesis/oscillator.h ****     }
 3093              		.loc 10 54 20 discriminator 2 view .LVU885
 3094              	.LBE877:
 3095              	.LBE888:
 593:fjol.cpp      ****     voice[i].op1.SetWaveform(Oscillator::WAVE_SIN);
 3096              		.loc 7 593 5 is_stmt 1 discriminator 2 view .LVU886
 3097              	.LBB889:
 3098              	.LBI883:
  42:DaisySP/Source/Synthesis/oscillator.h ****     {
 3099              		.loc 10 42 10 discriminator 2 view .LVU887
 3100              	.LBB885:
ARM GAS  /tmp/ccxnfbgf.s 			page 96


  44:DaisySP/Source/Synthesis/oscillator.h ****         sr_recip_  = 1.0f / sample_rate;
 3101              		.loc 10 44 9 discriminator 2 view .LVU888
  45:DaisySP/Source/Synthesis/oscillator.h ****         freq_      = 100.0f;
 3102              		.loc 10 45 9 discriminator 2 view .LVU889
  46:DaisySP/Source/Synthesis/oscillator.h ****         amp_       = 0.5f;
 3103              		.loc 10 46 20 is_stmt 0 discriminator 2 view .LVU890
 3104 00ca 84ED028A 		vstr.32	s16, [r4, #8]
  51:DaisySP/Source/Synthesis/oscillator.h ****         waveform_  = WAVE_SIN;
 3105              		.loc 10 51 34 discriminator 2 view .LVU891
 3106 00ce B0EE480A 		vmov.f32	s0, s16
  47:DaisySP/Source/Synthesis/oscillator.h ****         pw_        = 0.5f;
 3107              		.loc 10 47 20 discriminator 2 view .LVU892
 3108 00d2 6660     		str	r6, [r4, #4]	@ float
  48:DaisySP/Source/Synthesis/oscillator.h ****         pw_rad_    = pw_ * TWOPI_F;
 3109              		.loc 10 48 20 discriminator 2 view .LVU893
 3110 00d4 E660     		str	r6, [r4, #12]	@ float
  49:DaisySP/Source/Synthesis/oscillator.h ****         phase_     = 0.0f;
 3111              		.loc 10 49 20 discriminator 2 view .LVU894
 3112 00d6 C4F810A0 		str	r10, [r4, #16]	@ float
  50:DaisySP/Source/Synthesis/oscillator.h ****         phase_inc_ = CalcPhaseInc(freq_);
 3113              		.loc 10 50 20 discriminator 2 view .LVU895
 3114 00da C4ED078A 		vstr.32	s17, [r4, #28]
  45:DaisySP/Source/Synthesis/oscillator.h ****         freq_      = 100.0f;
 3115              		.loc 10 45 20 discriminator 2 view .LVU896
 3116 00de 84ED067A 		vstr.32	s14, [r4, #24]
  46:DaisySP/Source/Synthesis/oscillator.h ****         amp_       = 0.5f;
 3117              		.loc 10 46 9 is_stmt 1 discriminator 2 view .LVU897
  47:DaisySP/Source/Synthesis/oscillator.h ****         pw_        = 0.5f;
 3118              		.loc 10 47 9 discriminator 2 view .LVU898
  48:DaisySP/Source/Synthesis/oscillator.h ****         pw_rad_    = pw_ * TWOPI_F;
 3119              		.loc 10 48 9 discriminator 2 view .LVU899
  49:DaisySP/Source/Synthesis/oscillator.h ****         phase_     = 0.0f;
 3120              		.loc 10 49 9 discriminator 2 view .LVU900
  50:DaisySP/Source/Synthesis/oscillator.h ****         phase_inc_ = CalcPhaseInc(freq_);
 3121              		.loc 10 50 9 discriminator 2 view .LVU901
  51:DaisySP/Source/Synthesis/oscillator.h ****         waveform_  = WAVE_SIN;
 3122              		.loc 10 51 9 discriminator 2 view .LVU902
  51:DaisySP/Source/Synthesis/oscillator.h ****         waveform_  = WAVE_SIN;
 3123              		.loc 10 51 34 is_stmt 0 discriminator 2 view .LVU903
 3124 00e2 FFF7FEFF 		bl	_ZN7daisysp10Oscillator12CalcPhaseIncEf
 3125              	.LVL159:
  51:DaisySP/Source/Synthesis/oscillator.h ****         waveform_  = WAVE_SIN;
 3126              		.loc 10 51 34 discriminator 2 view .LVU904
 3127 00e6 F0EE407A 		vmov.f32	s15, s0
 3128              	.LBE885:
 3129              	.LBE889:
 598:fjol.cpp      ****     envelope[i].env.Init(samplerate);
 3130              		.loc 7 598 25 discriminator 2 view .LVU905
 3131 00ea 4046     		mov	r0, r8
 3132              	.LBB890:
 3133              	.LBB886:
  52:DaisySP/Source/Synthesis/oscillator.h ****         eoc_       = true;
 3134              		.loc 10 52 20 discriminator 2 view .LVU906
 3135 00ec 2770     		strb	r7, [r4]
  53:DaisySP/Source/Synthesis/oscillator.h ****         eor_       = true;
 3136              		.loc 10 53 20 discriminator 2 view .LVU907
 3137 00ee 84F82D50 		strb	r5, [r4, #45]
ARM GAS  /tmp/ccxnfbgf.s 			page 97


 3138              	.LBE886:
 3139              	.LBE890:
 3140              		.loc 7 598 25 discriminator 2 view .LVU908
 3141 00f2 2946     		mov	r1, r5
 3142              	.LBB891:
 3143              	.LBB887:
  51:DaisySP/Source/Synthesis/oscillator.h ****         waveform_  = WAVE_SIN;
 3144              		.loc 10 51 20 discriminator 2 view .LVU909
 3145 00f4 C4ED087A 		vstr.32	s15, [r4, #32]
  52:DaisySP/Source/Synthesis/oscillator.h ****         eoc_       = true;
 3146              		.loc 10 52 9 is_stmt 1 discriminator 2 view .LVU910
  53:DaisySP/Source/Synthesis/oscillator.h ****         eor_       = true;
 3147              		.loc 10 53 9 discriminator 2 view .LVU911
  54:DaisySP/Source/Synthesis/oscillator.h ****     }
 3148              		.loc 10 54 9 discriminator 2 view .LVU912
  54:DaisySP/Source/Synthesis/oscillator.h ****     }
 3149              		.loc 10 54 20 is_stmt 0 discriminator 2 view .LVU913
 3150 00f8 84F82C50 		strb	r5, [r4, #44]
 3151              	.LVL160:
  54:DaisySP/Source/Synthesis/oscillator.h ****     }
 3152              		.loc 10 54 20 discriminator 2 view .LVU914
 3153              	.LBE887:
 3154              	.LBE891:
 594:fjol.cpp      ****     voice[i].op2.SetWaveform(Oscillator::WAVE_SIN);
 3155              		.loc 7 594 5 is_stmt 1 discriminator 2 view .LVU915
 3156              	.LBB892:
 3157              	.LBI892:
  72:DaisySP/Source/Synthesis/oscillator.h ****     {
 3158              		.loc 10 72 17 discriminator 2 view .LVU916
 3159              	.LBB893:
  74:DaisySP/Source/Synthesis/oscillator.h ****     }
 3160              		.loc 10 74 9 discriminator 2 view .LVU917
 3161              	.LBE893:
 3162              	.LBE892:
 3163              	.LBB895:
 3164              	.LBB896:
  74:DaisySP/Source/Synthesis/oscillator.h ****     }
 3165              		.loc 10 74 19 is_stmt 0 discriminator 2 view .LVU918
 3166 00fc 04F8307C 		strb	r7, [r4, #-48]
 3167              	.LBE896:
 3168              	.LBE895:
 3169              		.loc 7 598 25 discriminator 2 view .LVU919
 3170 0100 99ED000A 		vldr.32	s0, [r9]
 3171              	.LBB898:
 3172              	.LBB894:
  74:DaisySP/Source/Synthesis/oscillator.h ****     }
 3173              		.loc 10 74 19 discriminator 2 view .LVU920
 3174 0104 04F8607C 		strb	r7, [r4, #-96]
 3175              	.LVL161:
  74:DaisySP/Source/Synthesis/oscillator.h ****     }
 3176              		.loc 10 74 19 discriminator 2 view .LVU921
 3177              	.LBE894:
 3178              	.LBE898:
 595:fjol.cpp      ****     voice[i].op3.SetWaveform(Oscillator::WAVE_SIN);
 3179              		.loc 7 595 5 is_stmt 1 discriminator 2 view .LVU922
 3180              	.LBB899:
 3181              	.LBI895:
ARM GAS  /tmp/ccxnfbgf.s 			page 98


  72:DaisySP/Source/Synthesis/oscillator.h ****     {
 3182              		.loc 10 72 17 discriminator 2 view .LVU923
 3183              	.LBB897:
  74:DaisySP/Source/Synthesis/oscillator.h ****     }
 3184              		.loc 10 74 9 discriminator 2 view .LVU924
  74:DaisySP/Source/Synthesis/oscillator.h ****     }
 3185              		.loc 10 74 9 is_stmt 0 discriminator 2 view .LVU925
 3186              	.LBE897:
 3187              	.LBE899:
 596:fjol.cpp      ****     voice[i].op1.SetAmp(pm1amp);
 3188              		.loc 7 596 5 is_stmt 1 discriminator 2 view .LVU926
 596:fjol.cpp      ****     voice[i].op1.SetAmp(pm1amp);
 3189              		.loc 7 596 5 is_stmt 0 discriminator 2 view .LVU927
 3190              	.LBE907:
  74:DaisySP/Source/Synthesis/oscillator.h ****     }
 3191              		.loc 10 74 9 is_stmt 1 discriminator 2 view .LVU928
 3192              	.LBB908:
 597:fjol.cpp      ****     envelope[i].env.Init(samplerate);
 3193              		.loc 7 597 5 discriminator 2 view .LVU929
 3194              	.LBB900:
 3195              	.LBI900:
  69:DaisySP/Source/Synthesis/oscillator.h ****     /** Sets the waveform to be synthesized by the Process() function.
 3196              		.loc 10 69 17 discriminator 2 view .LVU930
 3197              	.LBB901:
  69:DaisySP/Source/Synthesis/oscillator.h ****     /** Sets the waveform to be synthesized by the Process() function.
 3198              		.loc 10 69 41 discriminator 2 view .LVU931
  69:DaisySP/Source/Synthesis/oscillator.h ****     /** Sets the waveform to be synthesized by the Process() function.
 3199              		.loc 10 69 46 is_stmt 0 discriminator 2 view .LVU932
 3200 0108 44ED179A 		vstr.32	s19, [r4, #-92]
 3201              	.LVL162:
  69:DaisySP/Source/Synthesis/oscillator.h ****     /** Sets the waveform to be synthesized by the Process() function.
 3202              		.loc 10 69 46 discriminator 2 view .LVU933
 3203              	.LBE901:
 3204              	.LBE900:
 3205              		.loc 7 598 5 is_stmt 1 discriminator 2 view .LVU934
 589:fjol.cpp      ****   {
 3206              		.loc 7 589 18 is_stmt 0 discriminator 2 view .LVU935
 3207 010c B834     		adds	r4, r4, #184
 3208              		.loc 7 598 25 discriminator 2 view .LVU936
 3209 010e FFF7FEFF 		bl	_ZN7daisysp4Adsr4InitEfi
 3210              	.LVL163:
 599:fjol.cpp      ****     envelope[i].env.SetSustainLevel(1);
 3211              		.loc 7 599 5 is_stmt 1 discriminator 2 view .LVU937
 3212              	.LBB902:
 3213              	.LBI902:
 3214              		.file 14 "DaisySP/Source/Control/adsr.h"
   1:DaisySP/Source/Control/adsr.h **** #pragma once
   2:DaisySP/Source/Control/adsr.h **** #ifndef DSY_ADSR_H
   3:DaisySP/Source/Control/adsr.h **** #define DSY_ADSR_H
   4:DaisySP/Source/Control/adsr.h **** 
   5:DaisySP/Source/Control/adsr.h **** #include <stdint.h>
   6:DaisySP/Source/Control/adsr.h **** #ifdef __cplusplus
   7:DaisySP/Source/Control/adsr.h **** 
   8:DaisySP/Source/Control/adsr.h **** namespace daisysp
   9:DaisySP/Source/Control/adsr.h **** {
  10:DaisySP/Source/Control/adsr.h **** /** Distinct stages that the phase of the envelope can be located in.
  11:DaisySP/Source/Control/adsr.h **** - IDLE   = located at phase location 0, and not currently running
ARM GAS  /tmp/ccxnfbgf.s 			page 99


  12:DaisySP/Source/Control/adsr.h **** - ATTACK  = First segment of envelope where phase moves from 0 to 1
  13:DaisySP/Source/Control/adsr.h **** - DECAY   = Second segment of envelope where phase moves from 1 to SUSTAIN value
  14:DaisySP/Source/Control/adsr.h **** - RELEASE =     Fourth segment of envelop where phase moves from SUSTAIN to 0
  15:DaisySP/Source/Control/adsr.h **** */
  16:DaisySP/Source/Control/adsr.h **** enum
  17:DaisySP/Source/Control/adsr.h **** {
  18:DaisySP/Source/Control/adsr.h ****     ADSR_SEG_IDLE    = 0,
  19:DaisySP/Source/Control/adsr.h ****     ADSR_SEG_ATTACK  = 1,
  20:DaisySP/Source/Control/adsr.h ****     ADSR_SEG_DECAY   = 2,
  21:DaisySP/Source/Control/adsr.h ****     ADSR_SEG_RELEASE = 4
  22:DaisySP/Source/Control/adsr.h **** };
  23:DaisySP/Source/Control/adsr.h **** 
  24:DaisySP/Source/Control/adsr.h **** 
  25:DaisySP/Source/Control/adsr.h **** /** adsr envelope module
  26:DaisySP/Source/Control/adsr.h **** 
  27:DaisySP/Source/Control/adsr.h **** Original author(s) : Paul Batchelor
  28:DaisySP/Source/Control/adsr.h **** 
  29:DaisySP/Source/Control/adsr.h **** Ported from Soundpipe by Ben Sergentanis, May 2020
  30:DaisySP/Source/Control/adsr.h ****  
  31:DaisySP/Source/Control/adsr.h **** Remake by Steffan DIedrichsen, May 2021
  32:DaisySP/Source/Control/adsr.h **** */
  33:DaisySP/Source/Control/adsr.h **** class Adsr
  34:DaisySP/Source/Control/adsr.h **** {
  35:DaisySP/Source/Control/adsr.h ****   public:
  36:DaisySP/Source/Control/adsr.h ****     Adsr() {}
  37:DaisySP/Source/Control/adsr.h ****     ~Adsr() {}
  38:DaisySP/Source/Control/adsr.h ****     /** Initializes the Adsr module.
  39:DaisySP/Source/Control/adsr.h ****         \param sample_rate - The sample rate of the audio engine being run. 
  40:DaisySP/Source/Control/adsr.h ****     */
  41:DaisySP/Source/Control/adsr.h ****     void Init(float sample_rate, int blockSize = 1);
  42:DaisySP/Source/Control/adsr.h ****     /**
  43:DaisySP/Source/Control/adsr.h ****      \function Retrigger forces the envelope back to attack phase
  44:DaisySP/Source/Control/adsr.h ****      \param hard  resets the history to zero, results in a click.
  45:DaisySP/Source/Control/adsr.h ****      */
  46:DaisySP/Source/Control/adsr.h ****     void Retrigger(bool hard);
  47:DaisySP/Source/Control/adsr.h ****     /** Processes one sample through the filter and returns one sample.
  48:DaisySP/Source/Control/adsr.h ****         \param gate - trigger the envelope, hold it to sustain 
  49:DaisySP/Source/Control/adsr.h ****     */
  50:DaisySP/Source/Control/adsr.h ****     float Process(bool gate);
  51:DaisySP/Source/Control/adsr.h ****     /** Sets time
  52:DaisySP/Source/Control/adsr.h ****         Set time per segment in seconds
  53:DaisySP/Source/Control/adsr.h ****     */
  54:DaisySP/Source/Control/adsr.h ****     void SetTime(int seg, float time);
  55:DaisySP/Source/Control/adsr.h ****     void SetAttackTime(float timeInS, float shape = 0.0f);
  56:DaisySP/Source/Control/adsr.h ****     void SetDecayTime(float timeInS);
  57:DaisySP/Source/Control/adsr.h ****     void SetReleaseTime(float timeInS);
  58:DaisySP/Source/Control/adsr.h **** 
  59:DaisySP/Source/Control/adsr.h ****   private:
  60:DaisySP/Source/Control/adsr.h ****     void SetTimeConstant(float timeInS, float& time, float& coeff);
  61:DaisySP/Source/Control/adsr.h **** 
  62:DaisySP/Source/Control/adsr.h ****   public:
  63:DaisySP/Source/Control/adsr.h ****     /** Sustain level
  64:DaisySP/Source/Control/adsr.h ****         \param sus_level - sets sustain level, 0...1.0
  65:DaisySP/Source/Control/adsr.h ****     */
  66:DaisySP/Source/Control/adsr.h ****     inline void SetSustainLevel(float sus_level)
 3215              		.loc 14 66 17 discriminator 2 view .LVU938
 3216              	.LBB903:
ARM GAS  /tmp/ccxnfbgf.s 			page 100


  67:DaisySP/Source/Control/adsr.h ****     {
  68:DaisySP/Source/Control/adsr.h ****         sus_level = (sus_level <= 0.f) ? -0.01f // forces envelope into idle
 3217              		.loc 14 68 9 discriminator 2 view .LVU939
  69:DaisySP/Source/Control/adsr.h ****                                        : (sus_level > 1.f) ? 1.f : sus_level;
  70:DaisySP/Source/Control/adsr.h ****         sus_level_ = sus_level;
 3218              		.loc 14 70 9 discriminator 2 view .LVU940
 3219              	.LBE903:
 3220              	.LBE902:
 600:fjol.cpp      ****     envelope[i].env.SetDecayTime(0);
 3221              		.loc 7 600 33 is_stmt 0 discriminator 2 view .LVU941
 3222 0112 4046     		mov	r0, r8
 3223 0114 B0EE680A 		vmov.f32	s0, s17
 3224              	.LBB905:
 3225              	.LBB904:
 3226              		.loc 14 70 20 discriminator 2 view .LVU942
 3227 0118 88ED009A 		vstr.32	s18, [r8]
 3228              	.LVL164:
 3229              		.loc 14 70 20 discriminator 2 view .LVU943
 3230              	.LBE904:
 3231              	.LBE905:
 3232              		.loc 7 600 5 is_stmt 1 discriminator 2 view .LVU944
 3233              		.loc 7 600 33 is_stmt 0 discriminator 2 view .LVU945
 3234 011c FFF7FEFF 		bl	_ZN7daisysp4Adsr12SetDecayTimeEf
 3235              	.LVL165:
 589:fjol.cpp      ****   {
 3236              		.loc 7 589 3 is_stmt 1 discriminator 2 view .LVU946
 589:fjol.cpp      ****   {
 3237              		.loc 7 589 18 discriminator 2 view .LVU947
 3238 0120 5C45     		cmp	r4, fp
 3239 0122 08F14008 		add	r8, r8, #64
 3240 0126 7FF479AF 		bne	.L213
 3241              	.LBE908:
 601:fjol.cpp      ****   }
 602:fjol.cpp      **** 
 603:fjol.cpp      ****   filtenvelope.env.Init(samplerate);
 3242              		.loc 7 603 3 view .LVU948
 3243              		.loc 7 603 24 is_stmt 0 view .LVU949
 3244 012a 154C     		ldr	r4, .L216+16
 3245 012c 99ED000A 		vldr.32	s0, [r9]
 3246 0130 2046     		mov	r0, r4
 3247 0132 FFF7FEFF 		bl	_ZN7daisysp5AdEnv4InitEf
 3248              	.LVL166:
 604:fjol.cpp      ****   filtenvelope.env.SetCurve(50); //set curve to inbetween lin and log
 3249              		.loc 7 604 3 is_stmt 1 view .LVU950
 3250              	.LBB909:
 3251              	.LBI909:
  62:DaisySP/Source/Control/adenv.h ****     /** Sets the minimum value of the envelope output.
 3252              		.loc 8 62 17 view .LVU951
 3253              	.LBB910:
  62:DaisySP/Source/Control/adenv.h ****     /** Sets the minimum value of the envelope output.
 3254              		.loc 8 62 42 view .LVU952
 3255              	.LBE910:
 3256              	.LBE909:
 3257              	.LBB913:
 3258              	.LBB914:
  66:DaisySP/Source/Control/adenv.h ****     /** Sets the maximum value of the envelope output.
 3259              		.loc 8 66 42 is_stmt 0 view .LVU953
ARM GAS  /tmp/ccxnfbgf.s 			page 101


 3260 0136 134B     		ldr	r3, .L216+20
 3261              	.LBE914:
 3262              	.LBE913:
 3263              	.LBB917:
 3264              	.LBB911:
  62:DaisySP/Source/Control/adenv.h ****     /** Sets the minimum value of the envelope output.
 3265              		.loc 8 62 56 view .LVU954
 3266 0138 134A     		ldr	r2, .L216+24
 3267              	.LBE911:
 3268              	.LBE917:
 3269              	.LBB918:
 3270              	.LBB915:
  66:DaisySP/Source/Control/adenv.h ****     /** Sets the maximum value of the envelope output.
 3271              		.loc 8 66 42 view .LVU955
 3272 013a 6361     		str	r3, [r4, #20]	@ float
 3273              	.LBE915:
 3274              	.LBE918:
 3275              	.LBB919:
 3276              	.LBB912:
  62:DaisySP/Source/Control/adenv.h ****     /** Sets the minimum value of the envelope output.
 3277              		.loc 8 62 56 view .LVU956
 3278 013c 2262     		str	r2, [r4, #32]	@ float
 3279              	.LVL167:
  62:DaisySP/Source/Control/adenv.h ****     /** Sets the minimum value of the envelope output.
 3280              		.loc 8 62 56 view .LVU957
 3281              	.LBE912:
 3282              	.LBE919:
 605:fjol.cpp      ****   filtenvelope.env.SetMin(0.001); //set it to minimum 20hz
 3283              		.loc 7 605 3 is_stmt 1 view .LVU958
 3284              	.LBB920:
 3285              	.LBI913:
  66:DaisySP/Source/Control/adenv.h ****     /** Sets the maximum value of the envelope output.
 3286              		.loc 8 66 17 view .LVU959
 3287              	.LBB916:
  66:DaisySP/Source/Control/adenv.h ****     /** Sets the maximum value of the envelope output.
 3288              		.loc 8 66 37 view .LVU960
  66:DaisySP/Source/Control/adenv.h ****     /** Sets the maximum value of the envelope output.
 3289              		.loc 8 66 37 is_stmt 0 view .LVU961
 3290              	.LBE916:
 3291              	.LBE920:
 606:fjol.cpp      **** 
 607:fjol.cpp      ****   //initialize filters
 608:fjol.cpp      ****   for(int i = 0;i<2;i++)
 3292              		.loc 7 608 3 is_stmt 1 view .LVU962
 3293              	.LBB921:
 3294              		.loc 7 608 18 view .LVU963
 609:fjol.cpp      ****   {
 610:fjol.cpp      ****     stfilter[i].filter.Init(samplerate);
 3295              		.loc 7 610 5 view .LVU964
 3296              		.loc 7 610 28 is_stmt 0 view .LVU965
 3297 013e 99ED000A 		vldr.32	s0, [r9]
 3298 0142 1248     		ldr	r0, .L216+28
 3299 0144 FFF7FEFF 		bl	_ZN7daisysp3Svf4InitEf
 3300              	.LVL168:
 611:fjol.cpp      ****     stfilter[i].filter.SetDrive(0);
 3301              		.loc 7 611 5 is_stmt 1 view .LVU966
 3302              		.loc 7 611 32 is_stmt 0 view .LVU967
ARM GAS  /tmp/ccxnfbgf.s 			page 102


 3303 0148 B0EE680A 		vmov.f32	s0, s17
 3304 014c 0F48     		ldr	r0, .L216+28
 3305 014e FFF7FEFF 		bl	_ZN7daisysp3Svf8SetDriveEf
 3306              	.LVL169:
 608:fjol.cpp      ****   {
 3307              		.loc 7 608 3 is_stmt 1 view .LVU968
 608:fjol.cpp      ****   {
 3308              		.loc 7 608 18 view .LVU969
 610:fjol.cpp      ****     stfilter[i].filter.SetDrive(0);
 3309              		.loc 7 610 5 view .LVU970
 610:fjol.cpp      ****     stfilter[i].filter.SetDrive(0);
 3310              		.loc 7 610 28 is_stmt 0 view .LVU971
 3311 0152 99ED000A 		vldr.32	s0, [r9]
 3312 0156 0E48     		ldr	r0, .L216+32
 3313 0158 FFF7FEFF 		bl	_ZN7daisysp3Svf4InitEf
 3314              	.LVL170:
 3315              		.loc 7 611 5 is_stmt 1 view .LVU972
 3316              		.loc 7 611 32 is_stmt 0 view .LVU973
 3317 015c B0EE680A 		vmov.f32	s0, s17
 3318 0160 0B48     		ldr	r0, .L216+32
 3319              	.LBE921:
 612:fjol.cpp      ****   }
 613:fjol.cpp      ****   
 614:fjol.cpp      **** }
 3320              		.loc 7 614 1 view .LVU974
 3321 0162 BDEC048B 		vldm	sp!, {d8-d9}
 3322              		.cfi_restore 82
 3323              		.cfi_restore 83
 3324              		.cfi_restore 80
 3325              		.cfi_restore 81
 3326              		.cfi_def_cfa_offset 40
 3327 0166 BDE8F84F 		pop	{r3, r4, r5, r6, r7, r8, r9, r10, fp, lr}
 3328              		.cfi_restore 14
 3329              		.cfi_restore 11
 3330              		.cfi_restore 10
 3331              		.cfi_restore 9
 3332              		.cfi_restore 8
 3333              		.cfi_restore 7
 3334              		.cfi_restore 6
 3335              		.cfi_restore 5
 3336              		.cfi_restore 4
 3337              		.cfi_restore 3
 3338              		.cfi_def_cfa_offset 0
 3339              	.LBB922:
 611:fjol.cpp      ****   }
 3340              		.loc 7 611 32 view .LVU975
 3341 016a FFF7FEBF 		b	_ZN7daisysp3Svf8SetDriveEf
 3342              	.LVL171:
 3343              	.L217:
 3344 016e 00BF     		.align	2
 3345              	.L216:
 3346 0170 00000000 		.word	pm1amp
 3347 0174 60000000 		.word	.LANCHOR0+96
 3348 0178 0000C842 		.word	1120403456
 3349 017c 00000000 		.word	0
 3350 0180 00000000 		.word	.LANCHOR6
 3351 0184 6F12833A 		.word	981668463
ARM GAS  /tmp/ccxnfbgf.s 			page 103


 3352 0188 00004842 		.word	1112014848
 3353 018c 00000000 		.word	.LANCHOR11
 3354 0190 58000000 		.word	.LANCHOR11+88
 3355 0194 00000000 		.word	.LANCHOR1
 3356 0198 00000000 		.word	samplerate
 3357 019c DB0F4940 		.word	1078530011
 3358              	.LBE922:
 3359              		.cfi_endproc
 3360              	.LFE4829:
 3362              		.section	.text._Z13initializeadcv,"ax",%progbits
 3363              		.align	1
 3364              		.p2align 2,,3
 3365              		.global	_Z13initializeadcv
 3366              		.syntax unified
 3367              		.thumb
 3368              		.thumb_func
 3370              	_Z13initializeadcv:
 3371              	.LFB4830:
 615:fjol.cpp      **** void initializeadc()
 616:fjol.cpp      **** {
 3372              		.loc 7 616 1 is_stmt 1 view -0
 3373              		.cfi_startproc
 3374              		@ args = 0, pretend = 0, frame = 40
 3375              		@ frame_needed = 0, uses_anonymous_args = 0
 617:fjol.cpp      ****   //init ADC
 618:fjol.cpp      ****   adcConfig.InitSingle(hw.GetPin(ctrl1cv_pin));
 3376              		.loc 7 618 3 view .LVU977
 616:fjol.cpp      ****   //init ADC
 3377              		.loc 7 616 1 is_stmt 0 view .LVU978
 3378 0000 10B5     		push	{r4, lr}
 3379              		.cfi_def_cfa_offset 8
 3380              		.cfi_offset 4, -8
 3381              		.cfi_offset 14, -4
 3382              		.loc 7 618 23 view .LVU979
 3383 0002 1620     		movs	r0, #22
 616:fjol.cpp      ****   //init ADC
 3384              		.loc 7 616 1 view .LVU980
 3385 0004 8CB0     		sub	sp, sp, #48
 3386              		.cfi_def_cfa_offset 56
 3387              		.loc 7 618 23 view .LVU981
 3388 0006 FFF7FEFF 		bl	_ZN5daisy9DaisySeed6GetPinEh
 3389              	.LVL172:
 3390 000a 0346     		mov	r3, r0	@ movhi
 3391 000c 2E4C     		ldr	r4, .L220
 3392 000e ADF80830 		strh	r3, [sp, #8]	@ movhi
 3393 0012 0299     		ldr	r1, [sp, #8]
 3394 0014 2046     		mov	r0, r4
 3395 0016 FFF7FEFF 		bl	_ZN5daisy16AdcChannelConfig10InitSingleE12dsy_gpio_pin
 3396              	.LVL173:
 619:fjol.cpp      ****   adcConfig.InitSingle(hw.GetPin(ctrl2cv_pin));
 3397              		.loc 7 619 3 is_stmt 1 view .LVU982
 3398              		.loc 7 619 23 is_stmt 0 view .LVU983
 3399 001a 1720     		movs	r0, #23
 3400 001c FFF7FEFF 		bl	_ZN5daisy9DaisySeed6GetPinEh
 3401              	.LVL174:
 3402 0020 0346     		mov	r3, r0	@ movhi
 3403 0022 2046     		mov	r0, r4
ARM GAS  /tmp/ccxnfbgf.s 			page 104


 3404 0024 ADF80C30 		strh	r3, [sp, #12]	@ movhi
 3405 0028 0399     		ldr	r1, [sp, #12]
 3406 002a FFF7FEFF 		bl	_ZN5daisy16AdcChannelConfig10InitSingleE12dsy_gpio_pin
 3407              	.LVL175:
 620:fjol.cpp      ****   adcConfig.InitMux(hw.GetPin(mux_pin),8,hw.GetPin(mux_a_pin),hw.GetPin(mux_b_pin),hw.GetPin(mux_c_
 3408              		.loc 7 620 3 is_stmt 1 view .LVU984
 3409              		.loc 7 620 20 is_stmt 0 view .LVU985
 3410 002e 1820     		movs	r0, #24
 3411 0030 FFF7FEFF 		bl	_ZN5daisy9DaisySeed6GetPinEh
 3412              	.LVL176:
 3413 0034 0346     		mov	r3, r0	@ movhi
 3414 0036 1F20     		movs	r0, #31
 3415 0038 ADF81030 		strh	r3, [sp, #16]	@ movhi
 3416 003c FFF7FEFF 		bl	_ZN5daisy9DaisySeed6GetPinEh
 3417              	.LVL177:
 3418 0040 0346     		mov	r3, r0	@ movhi
 3419 0042 1E20     		movs	r0, #30
 3420 0044 ADF81430 		strh	r3, [sp, #20]	@ movhi
 3421 0048 FFF7FEFF 		bl	_ZN5daisy9DaisySeed6GetPinEh
 3422              	.LVL178:
 3423 004c 0346     		mov	r3, r0	@ movhi
 3424 004e 1D20     		movs	r0, #29
 3425 0050 ADF81830 		strh	r3, [sp, #24]	@ movhi
 3426 0054 FFF7FEFF 		bl	_ZN5daisy9DaisySeed6GetPinEh
 3427              	.LVL179:
 3428 0058 BDF81810 		ldrh	r1, [sp, #24]
 3429 005c 0822     		movs	r2, #8
 3430 005e 059B     		ldr	r3, [sp, #20]
 3431 0060 ADF80400 		strh	r0, [sp, #4]	@ movhi
 3432 0064 2046     		mov	r0, r4
 3433 0066 ADF80010 		strh	r1, [sp]	@ movhi
 3434 006a 0499     		ldr	r1, [sp, #16]
 3435 006c FFF7FEFF 		bl	_ZN5daisy16AdcChannelConfig7InitMuxE12dsy_gpio_pinjS1_S1_S1_
 3436              	.LVL180:
 621:fjol.cpp      ****   adcConfig.InitSingle(hw.GetPin(voct1_pin));
 3437              		.loc 7 621 3 is_stmt 1 view .LVU986
 3438              		.loc 7 621 23 is_stmt 0 view .LVU987
 3439 0070 1C20     		movs	r0, #28
 3440 0072 FFF7FEFF 		bl	_ZN5daisy9DaisySeed6GetPinEh
 3441              	.LVL181:
 3442 0076 0346     		mov	r3, r0	@ movhi
 3443 0078 2046     		mov	r0, r4
 3444 007a ADF82030 		strh	r3, [sp, #32]	@ movhi
 3445 007e 0899     		ldr	r1, [sp, #32]
 3446 0080 FFF7FEFF 		bl	_ZN5daisy16AdcChannelConfig10InitSingleE12dsy_gpio_pin
 3447              	.LVL182:
 622:fjol.cpp      ****   adcConfig.InitSingle(hw.GetPin(voct2_pin));
 3448              		.loc 7 622 3 is_stmt 1 view .LVU988
 3449              		.loc 7 622 23 is_stmt 0 view .LVU989
 3450 0084 1B20     		movs	r0, #27
 3451 0086 FFF7FEFF 		bl	_ZN5daisy9DaisySeed6GetPinEh
 3452              	.LVL183:
 3453 008a 0346     		mov	r3, r0	@ movhi
 3454 008c 2046     		mov	r0, r4
 3455 008e ADF82430 		strh	r3, [sp, #36]	@ movhi
 3456 0092 0999     		ldr	r1, [sp, #36]
 3457 0094 FFF7FEFF 		bl	_ZN5daisy16AdcChannelConfig10InitSingleE12dsy_gpio_pin
ARM GAS  /tmp/ccxnfbgf.s 			page 105


 3458              	.LVL184:
 623:fjol.cpp      ****   adcConfig.InitSingle(hw.GetPin(voct3_pin));
 3459              		.loc 7 623 3 is_stmt 1 view .LVU990
 3460              		.loc 7 623 23 is_stmt 0 view .LVU991
 3461 0098 1A20     		movs	r0, #26
 3462 009a FFF7FEFF 		bl	_ZN5daisy9DaisySeed6GetPinEh
 3463              	.LVL185:
 3464 009e 0346     		mov	r3, r0	@ movhi
 3465 00a0 2046     		mov	r0, r4
 3466 00a2 ADF82830 		strh	r3, [sp, #40]	@ movhi
 3467 00a6 0A99     		ldr	r1, [sp, #40]
 3468 00a8 FFF7FEFF 		bl	_ZN5daisy16AdcChannelConfig10InitSingleE12dsy_gpio_pin
 3469              	.LVL186:
 624:fjol.cpp      ****   adcConfig.InitSingle(hw.GetPin(voct4_pin));
 3470              		.loc 7 624 3 is_stmt 1 view .LVU992
 3471              		.loc 7 624 23 is_stmt 0 view .LVU993
 3472 00ac 1920     		movs	r0, #25
 3473 00ae FFF7FEFF 		bl	_ZN5daisy9DaisySeed6GetPinEh
 3474              	.LVL187:
 3475 00b2 0346     		mov	r3, r0	@ movhi
 3476 00b4 2046     		mov	r0, r4
 3477 00b6 ADF82C30 		strh	r3, [sp, #44]	@ movhi
 3478 00ba 0B99     		ldr	r1, [sp, #44]
 625:fjol.cpp      **** }
 3479              		.loc 7 625 1 view .LVU994
 3480 00bc 0CB0     		add	sp, sp, #48
 3481              		.cfi_def_cfa_offset 8
 3482              		@ sp needed
 3483 00be BDE81040 		pop	{r4, lr}
 3484              		.cfi_restore 14
 3485              		.cfi_restore 4
 3486              		.cfi_def_cfa_offset 0
 624:fjol.cpp      ****   adcConfig.InitSingle(hw.GetPin(voct4_pin));
 3487              		.loc 7 624 23 view .LVU995
 3488 00c2 FFF7FEBF 		b	_ZN5daisy16AdcChannelConfig10InitSingleE12dsy_gpio_pin
 3489              	.LVL188:
 3490              	.L221:
 3491 00c6 00BF     		.align	2
 3492              	.L220:
 3493 00c8 00000000 		.word	.LANCHOR12
 3494              		.cfi_endproc
 3495              	.LFE4830:
 3497              		.section	.rodata._Z18initializecontrolsv.str1.4,"aMS",%progbits,1
 3498              		.align	2
 3499              	.LC4:
 3500 0000 04020503 		.ascii	"\004\002\005\003\007\006\001\000"
 3500      07060100 
 3501              		.section	.text._Z18initializecontrolsv,"ax",%progbits
 3502              		.align	1
 3503              		.p2align 2,,3
 3504              		.global	_Z18initializecontrolsv
 3505              		.syntax unified
 3506              		.thumb
 3507              		.thumb_func
 3509              	_Z18initializecontrolsv:
 3510              	.LFB4831:
 626:fjol.cpp      **** void initializecontrols()
ARM GAS  /tmp/ccxnfbgf.s 			page 106


 627:fjol.cpp      **** {
 3511              		.loc 7 627 1 is_stmt 1 view -0
 3512              		.cfi_startproc
 3513              		@ args = 0, pretend = 0, frame = 80
 3514              		@ frame_needed = 0, uses_anonymous_args = 0
 628:fjol.cpp      ****   uint8_t knob_mapping[8] = {4,2,5,3,7,6,1,0};
 3515              		.loc 7 628 3 view .LVU997
 627:fjol.cpp      ****   uint8_t knob_mapping[8] = {4,2,5,3,7,6,1,0};
 3516              		.loc 7 627 1 is_stmt 0 view .LVU998
 3517 0000 F0B5     		push	{r4, r5, r6, r7, lr}
 3518              		.cfi_def_cfa_offset 20
 3519              		.cfi_offset 4, -20
 3520              		.cfi_offset 5, -16
 3521              		.cfi_offset 6, -12
 3522              		.cfi_offset 7, -8
 3523              		.cfi_offset 14, -4
 3524              		.loc 7 628 11 view .LVU999
 3525 0002 A64B     		ldr	r3, .L230
 629:fjol.cpp      ****   float callbackrate = hw.AudioCallbackRate();
 630:fjol.cpp      ****   //how the fuck does this init work?? what object does it want??
 631:fjol.cpp      ****   // gate[0].gate.Init(&(hw.GetPin(gate1_pin)));
 632:fjol.cpp      ****   // gate[1].gate.Init(&(hw.GetPin(gate2_pin)));
 633:fjol.cpp      ****   // gate[2].gate.Init(&(hw.GetPin(gate3_pin)));
 634:fjol.cpp      ****   // gate[3].gate.Init(&(hw.GetPin(gate4_pin)));
 635:fjol.cpp      **** 
 636:fjol.cpp      ****   algo_sw.Init(hw.GetPin(sw2_pin),callbackrate);
 637:fjol.cpp      ****   shift_sw.Init(hw.GetPin(sw1_pin),callbackrate);
 638:fjol.cpp      ****   midi_sw.Init(hw.GetPin(midi_sw_pin),callbackrate);
 639:fjol.cpp      **** 
 640:fjol.cpp      ****   enc[0].enc.Init(hw.GetPin(ctl1_enc_a_pin),hw.GetPin(ctl1_enc_b_pin),hw.GetPin(ctl1_sw_pin),callba
 641:fjol.cpp      ****   enc[1].enc.Init(hw.GetPin(ctl2_enc_a_pin),hw.GetPin(ctl2_enc_b_pin),hw.GetPin(ctl2_sw_pin),callba
 3526              		.loc 7 641 18 view .LVU1000
 3527 0004 0124     		movs	r4, #1
 3528 0006 A64F     		ldr	r7, .L230+4
 3529 0008 A64E     		ldr	r6, .L230+8
 627:fjol.cpp      ****   uint8_t knob_mapping[8] = {4,2,5,3,7,6,1,0};
 3530              		.loc 7 627 1 view .LVU1001
 3531 000a 2DED028B 		vpush.64	{d8}
 3532              		.cfi_def_cfa_offset 28
 3533              		.cfi_offset 80, -28
 3534              		.cfi_offset 81, -24
 3535 000e 95B0     		sub	sp, sp, #84
 3536              		.cfi_def_cfa_offset 112
 628:fjol.cpp      ****   float callbackrate = hw.AudioCallbackRate();
 3537              		.loc 7 628 11 view .LVU1002
 3538 0010 93E80300 		ldm	r3, {r0, r1}
 3539 0014 0AAD     		add	r5, sp, #40
 3540 0016 85E80300 		stm	r5, {r0, r1}
 629:fjol.cpp      ****   float callbackrate = hw.AudioCallbackRate();
 3541              		.loc 7 629 3 is_stmt 1 view .LVU1003
 629:fjol.cpp      ****   float callbackrate = hw.AudioCallbackRate();
 3542              		.loc 7 629 44 is_stmt 0 view .LVU1004
 3543 001a A348     		ldr	r0, .L230+12
 3544 001c FFF7FEFF 		bl	_ZNK5daisy9DaisySeed17AudioCallbackRateEv
 3545              	.LVL189:
 636:fjol.cpp      ****   shift_sw.Init(hw.GetPin(sw1_pin),callbackrate);
 3546              		.loc 7 636 15 view .LVU1005
ARM GAS  /tmp/ccxnfbgf.s 			page 107


 3547 0020 0920     		movs	r0, #9
 629:fjol.cpp      ****   float callbackrate = hw.AudioCallbackRate();
 3548              		.loc 7 629 44 view .LVU1006
 3549 0022 B0EE408A 		vmov.f32	s16, s0
 3550              	.LVL190:
 636:fjol.cpp      ****   shift_sw.Init(hw.GetPin(sw1_pin),callbackrate);
 3551              		.loc 7 636 3 is_stmt 1 view .LVU1007
 636:fjol.cpp      ****   shift_sw.Init(hw.GetPin(sw1_pin),callbackrate);
 3552              		.loc 7 636 15 is_stmt 0 view .LVU1008
 3553 0026 FFF7FEFF 		bl	_ZN5daisy9DaisySeed6GetPinEh
 3554              	.LVL191:
 636:fjol.cpp      ****   shift_sw.Init(hw.GetPin(sw1_pin),callbackrate);
 3555              		.loc 7 636 15 view .LVU1009
 3556 002a 0346     		mov	r3, r0	@ movhi
 3557 002c 9F48     		ldr	r0, .L230+16
 3558 002e ADF80430 		strh	r3, [sp, #4]	@ movhi
 3559 0032 B0EE480A 		vmov.f32	s0, s16
 3560 0036 0199     		ldr	r1, [sp, #4]
 3561 0038 FFF7FEFF 		bl	_ZN5daisy6Switch4InitE12dsy_gpio_pinf
 3562              	.LVL192:
 637:fjol.cpp      ****   midi_sw.Init(hw.GetPin(midi_sw_pin),callbackrate);
 3563              		.loc 7 637 3 is_stmt 1 view .LVU1010
 637:fjol.cpp      ****   midi_sw.Init(hw.GetPin(midi_sw_pin),callbackrate);
 3564              		.loc 7 637 16 is_stmt 0 view .LVU1011
 3565 003c 0820     		movs	r0, #8
 3566 003e FFF7FEFF 		bl	_ZN5daisy9DaisySeed6GetPinEh
 3567              	.LVL193:
 3568 0042 0346     		mov	r3, r0	@ movhi
 3569 0044 B0EE480A 		vmov.f32	s0, s16
 3570 0048 9948     		ldr	r0, .L230+20
 3571 004a ADF80830 		strh	r3, [sp, #8]	@ movhi
 3572 004e 0299     		ldr	r1, [sp, #8]
 3573 0050 FFF7FEFF 		bl	_ZN5daisy6Switch4InitE12dsy_gpio_pinf
 3574              	.LVL194:
 638:fjol.cpp      **** 
 3575              		.loc 7 638 3 is_stmt 1 view .LVU1012
 638:fjol.cpp      **** 
 3576              		.loc 7 638 15 is_stmt 0 view .LVU1013
 3577 0054 2020     		movs	r0, #32
 3578 0056 FFF7FEFF 		bl	_ZN5daisy9DaisySeed6GetPinEh
 3579              	.LVL195:
 3580 005a 0346     		mov	r3, r0	@ movhi
 3581 005c B0EE480A 		vmov.f32	s0, s16
 3582 0060 9448     		ldr	r0, .L230+24
 3583 0062 ADF80C30 		strh	r3, [sp, #12]	@ movhi
 3584 0066 0399     		ldr	r1, [sp, #12]
 3585 0068 FFF7FEFF 		bl	_ZN5daisy6Switch4InitE12dsy_gpio_pinf
 3586              	.LVL196:
 640:fjol.cpp      ****   enc[1].enc.Init(hw.GetPin(ctl2_enc_a_pin),hw.GetPin(ctl2_enc_b_pin),hw.GetPin(ctl2_sw_pin),callba
 3587              		.loc 7 640 3 is_stmt 1 view .LVU1014
 640:fjol.cpp      ****   enc[1].enc.Init(hw.GetPin(ctl2_enc_a_pin),hw.GetPin(ctl2_enc_b_pin),hw.GetPin(ctl2_sw_pin),callba
 3588              		.loc 7 640 18 is_stmt 0 view .LVU1015
 3589 006c 0320     		movs	r0, #3
 3590 006e FFF7FEFF 		bl	_ZN5daisy9DaisySeed6GetPinEh
 3591              	.LVL197:
 3592 0072 0346     		mov	r3, r0	@ movhi
 3593 0074 0420     		movs	r0, #4
ARM GAS  /tmp/ccxnfbgf.s 			page 108


 3594 0076 ADF81030 		strh	r3, [sp, #16]	@ movhi
 3595 007a FFF7FEFF 		bl	_ZN5daisy9DaisySeed6GetPinEh
 3596              	.LVL198:
 3597 007e 0346     		mov	r3, r0	@ movhi
 3598 0080 0B20     		movs	r0, #11
 3599 0082 ADF81430 		strh	r3, [sp, #20]	@ movhi
 3600 0086 FFF7FEFF 		bl	_ZN5daisy9DaisySeed6GetPinEh
 3601              	.LVL199:
 3602 008a ADF81800 		strh	r0, [sp, #24]	@ movhi
 3603 008e B0EE480A 		vmov.f32	s0, s16
 3604 0092 069B     		ldr	r3, [sp, #24]
 3605 0094 8848     		ldr	r0, .L230+28
 3606 0096 DDE90412 		ldrd	r1, r2, [sp, #16]
 3607 009a FFF7FEFF 		bl	_ZN5daisy7Encoder4InitE12dsy_gpio_pinS1_S1_f
 3608              	.LVL200:
 3609              		.loc 7 641 3 is_stmt 1 view .LVU1016
 3610              		.loc 7 641 18 is_stmt 0 view .LVU1017
 3611 009e 0620     		movs	r0, #6
 3612 00a0 FFF7FEFF 		bl	_ZN5daisy9DaisySeed6GetPinEh
 3613              	.LVL201:
 3614 00a4 0346     		mov	r3, r0	@ movhi
 3615 00a6 0520     		movs	r0, #5
 3616 00a8 ADF81C30 		strh	r3, [sp, #28]	@ movhi
 3617 00ac FFF7FEFF 		bl	_ZN5daisy9DaisySeed6GetPinEh
 3618              	.LVL202:
 3619 00b0 0346     		mov	r3, r0	@ movhi
 3620 00b2 0720     		movs	r0, #7
 3621 00b4 ADF82030 		strh	r3, [sp, #32]	@ movhi
 3622 00b8 FFF7FEFF 		bl	_ZN5daisy9DaisySeed6GetPinEh
 3623              	.LVL203:
 3624 00bc ADF82400 		strh	r0, [sp, #36]	@ movhi
 3625 00c0 B0EE480A 		vmov.f32	s0, s16
 3626 00c4 099B     		ldr	r3, [sp, #36]
 3627 00c6 7D48     		ldr	r0, .L230+32
 3628 00c8 DDE90712 		ldrd	r1, r2, [sp, #28]
 3629 00cc FFF7FEFF 		bl	_ZN5daisy7Encoder4InitE12dsy_gpio_pinS1_S1_f
 3630              	.LVL204:
 642:fjol.cpp      **** 
 643:fjol.cpp      ****   for(int i = 0; i<8; i++)
 3631              		.loc 7 643 3 is_stmt 1 view .LVU1018
 3632              	.LBB923:
 3633              		.loc 7 643 19 view .LVU1019
 3634 00d0 12E0     		b	.L226
 3635              	.LVL205:
 3636              	.L223:
 644:fjol.cpp      ****   {
 645:fjol.cpp      ****     if(i<2){cv[i].input.Init(hw.adc.GetPtr(i),callbackrate,false,true,0.002);}
 646:fjol.cpp      ****     controls[i].input.Init(hw.adc.GetMuxPtr(2,knob_mapping[i]),callbackrate,false,true,0.002);
 3637              		.loc 7 646 27 is_stmt 0 discriminator 2 view .LVU1020
 3638 00d2 2A78     		ldrb	r2, [r5]	@ zero_extendqisi2
 3639 00d4 FFF7FEFF 		bl	_ZNK5daisy9AdcHandle9GetMuxPtrEhh
 3640              	.LVL206:
 3641              		.loc 7 646 27 discriminator 2 view .LVU1021
 3642 00d8 B0EE480A 		vmov.f32	s0, s16
 3643 00dc 0146     		mov	r1, r0
 3644 00de DFED780A 		vldr.32	s1, .L230+36
 3645 00e2 3046     		mov	r0, r6
ARM GAS  /tmp/ccxnfbgf.s 			page 109


 3646 00e4 0123     		movs	r3, #1
 3647 00e6 0022     		movs	r2, #0
 3648 00e8 FFF7FEFF 		bl	_ZN5daisy13AnalogControl4InitEPtfbbf
 3649              	.LVL207:
 643:fjol.cpp      ****   {
 3650              		.loc 7 643 3 is_stmt 1 discriminator 2 view .LVU1022
 643:fjol.cpp      ****   {
 3651              		.loc 7 643 19 discriminator 2 view .LVU1023
 3652 00ec 082C     		cmp	r4, #8
 3653 00ee 25D0     		beq	.L225
 3654              	.L224:
 3655              	.LVL208:
 643:fjol.cpp      ****   {
 3656              		.loc 7 643 19 is_stmt 0 discriminator 2 view .LVU1024
 3657 00f0 0134     		adds	r4, r4, #1
 3658 00f2 5C37     		adds	r7, r7, #92
 3659 00f4 0135     		adds	r5, r5, #1
 3660 00f6 5C36     		adds	r6, r6, #92
 3661              	.L226:
 3662              	.LVL209:
 645:fjol.cpp      ****     controls[i].input.Init(hw.adc.GetMuxPtr(2,knob_mapping[i]),callbackrate,false,true,0.002);
 3663              		.loc 7 645 5 is_stmt 1 view .LVU1025
 3664              		.loc 7 646 5 view .LVU1026
 645:fjol.cpp      ****     controls[i].input.Init(hw.adc.GetMuxPtr(2,knob_mapping[i]),callbackrate,false,true,0.002);
 3665              		.loc 7 645 5 is_stmt 0 view .LVU1027
 3666 00f8 631E     		subs	r3, r4, #1
 3667              	.LVL210:
 3668              		.loc 7 646 27 view .LVU1028
 3669 00fa 0221     		movs	r1, #2
 3670 00fc 7148     		ldr	r0, .L230+40
 645:fjol.cpp      ****     controls[i].input.Init(hw.adc.GetMuxPtr(2,knob_mapping[i]),callbackrate,false,true,0.002);
 3671              		.loc 7 645 5 view .LVU1029
 3672 00fe 012B     		cmp	r3, #1
 3673 0100 E7D8     		bhi	.L223
 645:fjol.cpp      ****     controls[i].input.Init(hw.adc.GetMuxPtr(2,knob_mapping[i]),callbackrate,false,true,0.002);
 3674              		.loc 7 645 13 is_stmt 1 discriminator 1 view .LVU1030
 645:fjol.cpp      ****     controls[i].input.Init(hw.adc.GetMuxPtr(2,knob_mapping[i]),callbackrate,false,true,0.002);
 3675              		.loc 7 645 29 is_stmt 0 discriminator 1 view .LVU1031
 3676 0102 D9B2     		uxtb	r1, r3
 3677 0104 FFF7FEFF 		bl	_ZNK5daisy9AdcHandle6GetPtrEh
 3678              	.LVL211:
 645:fjol.cpp      ****     controls[i].input.Init(hw.adc.GetMuxPtr(2,knob_mapping[i]),callbackrate,false,true,0.002);
 3679              		.loc 7 645 29 discriminator 1 view .LVU1032
 3680 0108 B0EE480A 		vmov.f32	s0, s16
 3681 010c 0146     		mov	r1, r0
 3682 010e DFED6C0A 		vldr.32	s1, .L230+36
 3683 0112 0123     		movs	r3, #1
 3684 0114 3846     		mov	r0, r7
 3685 0116 0022     		movs	r2, #0
 3686 0118 FFF7FEFF 		bl	_ZN5daisy13AnalogControl4InitEPtfbbf
 3687              	.LVL212:
 3688              		.loc 7 646 5 is_stmt 1 discriminator 1 view .LVU1033
 3689              		.loc 7 646 27 is_stmt 0 discriminator 1 view .LVU1034
 3690 011c 2A78     		ldrb	r2, [r5]	@ zero_extendqisi2
 3691 011e 0221     		movs	r1, #2
 3692 0120 6848     		ldr	r0, .L230+40
 3693 0122 FFF7FEFF 		bl	_ZNK5daisy9AdcHandle9GetMuxPtrEhh
ARM GAS  /tmp/ccxnfbgf.s 			page 110


 3694              	.LVL213:
 3695 0126 B0EE480A 		vmov.f32	s0, s16
 3696 012a 0146     		mov	r1, r0
 3697 012c DFED640A 		vldr.32	s1, .L230+36
 3698 0130 0123     		movs	r3, #1
 3699 0132 0022     		movs	r2, #0
 3700 0134 3046     		mov	r0, r6
 3701 0136 FFF7FEFF 		bl	_ZN5daisy13AnalogControl4InitEPtfbbf
 3702              	.LVL214:
 643:fjol.cpp      ****   {
 3703              		.loc 7 643 3 is_stmt 1 discriminator 1 view .LVU1035
 643:fjol.cpp      ****   {
 3704              		.loc 7 643 19 discriminator 1 view .LVU1036
 3705 013a D9E7     		b	.L224
 3706              	.L225:
 643:fjol.cpp      ****   {
 3707              		.loc 7 643 19 is_stmt 0 discriminator 1 view .LVU1037
 3708 013c 624D     		ldr	r5, .L230+44
 3709              	.LBE923:
 3710              	.LBB924:
 647:fjol.cpp      ****     
 648:fjol.cpp      ****   }
 649:fjol.cpp      ****   for(int i=3;i<7;i++)
 3711              		.loc 7 649 11 view .LVU1038
 3712 013e 0324     		movs	r4, #3
 3713              	.LVL215:
 3714              	.L227:
 650:fjol.cpp      ****   {
 651:fjol.cpp      ****     voct[i-3].input.Init(hw.adc.GetPtr(i),callbackrate,false,true,0);
 3715              		.loc 7 651 5 is_stmt 1 discriminator 2 view .LVU1039
 3716              		.loc 7 651 25 is_stmt 0 discriminator 2 view .LVU1040
 3717 0140 E1B2     		uxtb	r1, r4
 3718 0142 6048     		ldr	r0, .L230+40
 649:fjol.cpp      ****   {
 3719              		.loc 7 649 3 discriminator 2 view .LVU1041
 3720 0144 0134     		adds	r4, r4, #1
 3721              	.LVL216:
 3722              		.loc 7 651 25 discriminator 2 view .LVU1042
 3723 0146 FFF7FEFF 		bl	_ZNK5daisy9AdcHandle6GetPtrEh
 3724              	.LVL217:
 3725 014a B0EE480A 		vmov.f32	s0, s16
 3726 014e 0146     		mov	r1, r0
 3727 0150 DFED5E0A 		vldr.32	s1, .L230+48
 3728 0154 2846     		mov	r0, r5
 3729 0156 0123     		movs	r3, #1
 3730 0158 0022     		movs	r2, #0
 3731 015a FFF7FEFF 		bl	_ZN5daisy13AnalogControl4InitEPtfbbf
 3732              	.LVL218:
 649:fjol.cpp      ****   {
 3733              		.loc 7 649 3 is_stmt 1 discriminator 2 view .LVU1043
 649:fjol.cpp      ****   {
 3734              		.loc 7 649 16 discriminator 2 view .LVU1044
 3735 015e 072C     		cmp	r4, #7
 3736 0160 05F15C05 		add	r5, r5, #92
 3737 0164 ECD1     		bne	.L227
 3738              	.LBE924:
 652:fjol.cpp      ****   }
ARM GAS  /tmp/ccxnfbgf.s 			page 111


 653:fjol.cpp      ****   controls[0].param.Init(controls[0].input,0,1,Parameter::LOGARITHMIC); //pm2
 3739              		.loc 7 653 3 view .LVU1045
 3740              		.loc 7 653 38 is_stmt 0 view .LVU1046
 3741 0166 4F4D     		ldr	r5, .L230+8
 3742 0168 0CAC     		add	r4, sp, #48
 3743              	.LVL219:
 3744              		.loc 7 653 25 view .LVU1047
 3745 016a F7EE000A 		vmov.f32	s1, #1.0e+0
 3746 016e 9FED570A 		vldr.32	s0, .L230+48
 654:fjol.cpp      ****   controls[1].param.Init(controls[1].input,0,1,Parameter::LINEAR); //ratio2
 3747              		.loc 7 654 38 view .LVU1048
 3748 0172 0CAF     		add	r7, sp, #48
 653:fjol.cpp      ****   controls[1].param.Init(controls[1].input,0,1,Parameter::LINEAR); //ratio2
 3749              		.loc 7 653 38 view .LVU1049
 3750 0174 0FCD     		ldmia	r5!, {r0, r1, r2, r3}
 3751 0176 0FC4     		stmia	r4!, {r0, r1, r2, r3}
 3752 0178 95E80F00 		ldm	r5, {r0, r1, r2, r3}
 3753              		.loc 7 654 38 view .LVU1050
 3754 017c 05F14C06 		add	r6, r5, #76
 653:fjol.cpp      ****   controls[1].param.Init(controls[1].input,0,1,Parameter::LINEAR); //ratio2
 3755              		.loc 7 653 38 view .LVU1051
 3756 0180 84E80F00 		stm	r4, {r0, r1, r2, r3}
 653:fjol.cpp      ****   controls[1].param.Init(controls[1].input,0,1,Parameter::LINEAR); //ratio2
 3757              		.loc 7 653 25 view .LVU1052
 3758 0184 0CA9     		add	r1, sp, #48
 3759 0186 05F11000 		add	r0, r5, #16
 3760 018a 0222     		movs	r2, #2
 3761 018c FFF7FEFF 		bl	_ZN5daisy9Parameter4InitENS_13AnalogControlEffNS0_5CurveE
 3762              	.LVL220:
 3763              	.LBB925:
 3764              	.LBI925:
 3765              		.file 15 "libDaisy/src/hid/ctrl.h"
   1:libDaisy/src/hid/ctrl.h **** #pragma once
   2:libDaisy/src/hid/ctrl.h **** #ifndef DSY_KNOB_H
   3:libDaisy/src/hid/ctrl.h **** #define DSY_KNOB_H /**< & */
   4:libDaisy/src/hid/ctrl.h **** #include <stdint.h>
   5:libDaisy/src/hid/ctrl.h **** 
   6:libDaisy/src/hid/ctrl.h **** #ifdef __cplusplus
   7:libDaisy/src/hid/ctrl.h **** namespace daisy
   8:libDaisy/src/hid/ctrl.h **** {
   9:libDaisy/src/hid/ctrl.h **** /**
  10:libDaisy/src/hid/ctrl.h ****     @brief Hardware Interface for control inputs \n 
  11:libDaisy/src/hid/ctrl.h ****     Primarily designed for ADC input controls such as \n 
  12:libDaisy/src/hid/ctrl.h ****     potentiometers, and control voltage. \n 
  13:libDaisy/src/hid/ctrl.h ****     @author Stephen Hensley
  14:libDaisy/src/hid/ctrl.h ****     @date November 2019
  15:libDaisy/src/hid/ctrl.h ****     @ingroup controls
  16:libDaisy/src/hid/ctrl.h **** */
  17:libDaisy/src/hid/ctrl.h **** class AnalogControl
  18:libDaisy/src/hid/ctrl.h **** {
  19:libDaisy/src/hid/ctrl.h ****   public:
  20:libDaisy/src/hid/ctrl.h ****     /** Constructor */
  21:libDaisy/src/hid/ctrl.h ****     AnalogControl() {}
  22:libDaisy/src/hid/ctrl.h ****     /** destructor */
  23:libDaisy/src/hid/ctrl.h ****     ~AnalogControl() {}
 3766              		.loc 15 23 5 is_stmt 1 view .LVU1053
 3767              		.loc 15 23 5 is_stmt 0 view .LVU1054
ARM GAS  /tmp/ccxnfbgf.s 			page 112


 3768              	.LBE925:
 3769              		.loc 7 654 3 is_stmt 1 view .LVU1055
 3770              		.loc 7 654 25 is_stmt 0 view .LVU1056
 3771 0190 F7EE000A 		vmov.f32	s1, #1.0e+0
 3772 0194 9FED4D0A 		vldr.32	s0, .L230+48
 3773              		.loc 7 654 38 view .LVU1057
 3774 0198 0FCE     		ldmia	r6!, {r0, r1, r2, r3}
 3775 019a 0FC7     		stmia	r7!, {r0, r1, r2, r3}
 3776 019c 96E80F00 		ldm	r6, {r0, r1, r2, r3}
 655:fjol.cpp      ****   controls[2].param.Init(controls[2].input,0,1,Parameter::LOGARITHMIC); //pm3
 3777              		.loc 7 655 38 view .LVU1058
 3778 01a0 05F1A806 		add	r6, r5, #168
 3779 01a4 0CAF     		add	r7, sp, #48
 654:fjol.cpp      ****   controls[2].param.Init(controls[2].input,0,1,Parameter::LOGARITHMIC); //pm3
 3780              		.loc 7 654 38 view .LVU1059
 3781 01a6 84E80F00 		stm	r4, {r0, r1, r2, r3}
 654:fjol.cpp      ****   controls[2].param.Init(controls[2].input,0,1,Parameter::LOGARITHMIC); //pm3
 3782              		.loc 7 654 25 view .LVU1060
 3783 01aa 0CA9     		add	r1, sp, #48
 3784 01ac 05F16C00 		add	r0, r5, #108
 3785 01b0 0022     		movs	r2, #0
 3786 01b2 FFF7FEFF 		bl	_ZN5daisy9Parameter4InitENS_13AnalogControlEffNS0_5CurveE
 3787              	.LVL221:
 3788              	.LBB926:
 3789              	.LBI926:
 3790              		.loc 15 23 5 is_stmt 1 view .LVU1061
 3791              		.loc 15 23 5 is_stmt 0 view .LVU1062
 3792              	.LBE926:
 3793              		.loc 7 655 3 is_stmt 1 view .LVU1063
 3794              		.loc 7 655 25 is_stmt 0 view .LVU1064
 3795 01b6 F7EE000A 		vmov.f32	s1, #1.0e+0
 3796 01ba 9FED440A 		vldr.32	s0, .L230+48
 3797              		.loc 7 655 38 view .LVU1065
 3798 01be 0FCE     		ldmia	r6!, {r0, r1, r2, r3}
 3799 01c0 0FC7     		stmia	r7!, {r0, r1, r2, r3}
 3800 01c2 96E80F00 		ldm	r6, {r0, r1, r2, r3}
 656:fjol.cpp      ****   controls[3].param.Init(controls[3].input,0,1,Parameter::LINEAR); //ratio3
 3801              		.loc 7 656 38 view .LVU1066
 3802 01c6 05F58276 		add	r6, r5, #260
 3803 01ca 0CAF     		add	r7, sp, #48
 655:fjol.cpp      ****   controls[2].param.Init(controls[2].input,0,1,Parameter::LOGARITHMIC); //pm3
 3804              		.loc 7 655 38 view .LVU1067
 3805 01cc 84E80F00 		stm	r4, {r0, r1, r2, r3}
 655:fjol.cpp      ****   controls[2].param.Init(controls[2].input,0,1,Parameter::LOGARITHMIC); //pm3
 3806              		.loc 7 655 25 view .LVU1068
 3807 01d0 0CA9     		add	r1, sp, #48
 3808 01d2 05F1C800 		add	r0, r5, #200
 3809 01d6 0222     		movs	r2, #2
 3810 01d8 FFF7FEFF 		bl	_ZN5daisy9Parameter4InitENS_13AnalogControlEffNS0_5CurveE
 3811              	.LVL222:
 3812              	.LBB927:
 3813              	.LBI927:
 3814              		.loc 15 23 5 is_stmt 1 view .LVU1069
 3815              		.loc 15 23 5 is_stmt 0 view .LVU1070
 3816              	.LBE927:
 3817              		.loc 7 656 3 is_stmt 1 view .LVU1071
 3818              		.loc 7 656 25 is_stmt 0 view .LVU1072
ARM GAS  /tmp/ccxnfbgf.s 			page 113


 3819 01dc F7EE000A 		vmov.f32	s1, #1.0e+0
 3820 01e0 9FED3A0A 		vldr.32	s0, .L230+48
 3821              		.loc 7 656 38 view .LVU1073
 3822 01e4 0FCE     		ldmia	r6!, {r0, r1, r2, r3}
 3823 01e6 0FC7     		stmia	r7!, {r0, r1, r2, r3}
 3824 01e8 96E80F00 		ldm	r6, {r0, r1, r2, r3}
 657:fjol.cpp      ****   controls[4].param.Init(controls[4].input,0,3,Parameter::LINEAR); //attack
 3825              		.loc 7 657 38 view .LVU1074
 3826 01ec 05F5B076 		add	r6, r5, #352
 3827 01f0 0CAF     		add	r7, sp, #48
 656:fjol.cpp      ****   controls[3].param.Init(controls[3].input,0,1,Parameter::LINEAR); //ratio3
 3828              		.loc 7 656 38 view .LVU1075
 3829 01f2 84E80F00 		stm	r4, {r0, r1, r2, r3}
 656:fjol.cpp      ****   controls[3].param.Init(controls[3].input,0,1,Parameter::LINEAR); //ratio3
 3830              		.loc 7 656 25 view .LVU1076
 3831 01f6 0CA9     		add	r1, sp, #48
 3832 01f8 05F59270 		add	r0, r5, #292
 3833 01fc 0022     		movs	r2, #0
 3834 01fe FFF7FEFF 		bl	_ZN5daisy9Parameter4InitENS_13AnalogControlEffNS0_5CurveE
 3835              	.LVL223:
 3836              	.LBB928:
 3837              	.LBI928:
 3838              		.loc 15 23 5 is_stmt 1 view .LVU1077
 3839              		.loc 15 23 5 is_stmt 0 view .LVU1078
 3840              	.LBE928:
 3841              		.loc 7 657 3 is_stmt 1 view .LVU1079
 3842              		.loc 7 657 25 is_stmt 0 view .LVU1080
 3843 0202 F0EE080A 		vmov.f32	s1, #3.0e+0
 3844 0206 9FED310A 		vldr.32	s0, .L230+48
 3845              		.loc 7 657 38 view .LVU1081
 3846 020a 0FCE     		ldmia	r6!, {r0, r1, r2, r3}
 3847 020c 0FC7     		stmia	r7!, {r0, r1, r2, r3}
 3848 020e 96E80F00 		ldm	r6, {r0, r1, r2, r3}
 658:fjol.cpp      ****   controls[5].param.Init(controls[5].input,0,2,Parameter::LINEAR); //decay
 3849              		.loc 7 658 38 view .LVU1082
 3850 0212 05F5DE76 		add	r6, r5, #444
 3851 0216 0CAF     		add	r7, sp, #48
 657:fjol.cpp      ****   controls[4].param.Init(controls[4].input,0,3,Parameter::LINEAR); //attack
 3852              		.loc 7 657 38 view .LVU1083
 3853 0218 84E80F00 		stm	r4, {r0, r1, r2, r3}
 657:fjol.cpp      ****   controls[4].param.Init(controls[4].input,0,3,Parameter::LINEAR); //attack
 3854              		.loc 7 657 25 view .LVU1084
 3855 021c 0CA9     		add	r1, sp, #48
 3856 021e 05F5C070 		add	r0, r5, #384
 3857 0222 0022     		movs	r2, #0
 3858 0224 FFF7FEFF 		bl	_ZN5daisy9Parameter4InitENS_13AnalogControlEffNS0_5CurveE
 3859              	.LVL224:
 3860              	.LBB929:
 3861              	.LBI929:
 3862              		.loc 15 23 5 is_stmt 1 view .LVU1085
 3863              		.loc 15 23 5 is_stmt 0 view .LVU1086
 3864              	.LBE929:
 3865              		.loc 7 658 3 is_stmt 1 view .LVU1087
 3866              		.loc 7 658 25 is_stmt 0 view .LVU1088
 3867 0228 F0EE000A 		vmov.f32	s1, #2.0e+0
 3868 022c 9FED270A 		vldr.32	s0, .L230+48
 3869              		.loc 7 658 38 view .LVU1089
ARM GAS  /tmp/ccxnfbgf.s 			page 114


 3870 0230 0FCE     		ldmia	r6!, {r0, r1, r2, r3}
 3871 0232 0FC7     		stmia	r7!, {r0, r1, r2, r3}
 3872 0234 96E80F00 		ldm	r6, {r0, r1, r2, r3}
 659:fjol.cpp      ****   controls[6].param.Init(controls[6].input,20,20000,Parameter::LOGARITHMIC); //cutoff
 3873              		.loc 7 659 38 view .LVU1090
 3874 0238 05F50676 		add	r6, r5, #536
 3875 023c 0CAF     		add	r7, sp, #48
 658:fjol.cpp      ****   controls[5].param.Init(controls[5].input,0,2,Parameter::LINEAR); //decay
 3876              		.loc 7 658 38 view .LVU1091
 3877 023e 84E80F00 		stm	r4, {r0, r1, r2, r3}
 658:fjol.cpp      ****   controls[5].param.Init(controls[5].input,0,2,Parameter::LINEAR); //decay
 3878              		.loc 7 658 25 view .LVU1092
 3879 0242 0CA9     		add	r1, sp, #48
 3880 0244 05F5EE70 		add	r0, r5, #476
 3881 0248 0022     		movs	r2, #0
 3882 024a FFF7FEFF 		bl	_ZN5daisy9Parameter4InitENS_13AnalogControlEffNS0_5CurveE
 3883              	.LVL225:
 3884              	.LBB930:
 3885              	.LBI930:
 3886              		.loc 15 23 5 is_stmt 1 view .LVU1093
 3887              		.loc 15 23 5 is_stmt 0 view .LVU1094
 3888              	.LBE930:
 3889              		.loc 7 659 3 is_stmt 1 view .LVU1095
 3890              		.loc 7 659 25 is_stmt 0 view .LVU1096
 3891 024e B3EE040A 		vmov.f32	s0, #2.0e+1
 3892 0252 DFED1F0A 		vldr.32	s1, .L230+52
 3893              		.loc 7 659 38 view .LVU1097
 3894 0256 0FCE     		ldmia	r6!, {r0, r1, r2, r3}
 3895 0258 0FC7     		stmia	r7!, {r0, r1, r2, r3}
 3896 025a 96E80F00 		ldm	r6, {r0, r1, r2, r3}
 660:fjol.cpp      ****   controls[7].param.Init(controls[7].input,0,1,Parameter::LOGARITHMIC); //envfilter amplitude
 3897              		.loc 7 660 38 view .LVU1098
 3898 025e 05F51D76 		add	r6, r5, #628
 3899 0262 0CAF     		add	r7, sp, #48
 659:fjol.cpp      ****   controls[6].param.Init(controls[6].input,20,20000,Parameter::LOGARITHMIC); //cutoff
 3900              		.loc 7 659 38 view .LVU1099
 3901 0264 84E80F00 		stm	r4, {r0, r1, r2, r3}
 659:fjol.cpp      ****   controls[6].param.Init(controls[6].input,20,20000,Parameter::LOGARITHMIC); //cutoff
 3902              		.loc 7 659 25 view .LVU1100
 3903 0268 0CA9     		add	r1, sp, #48
 3904 026a 05F50E70 		add	r0, r5, #568
 3905 026e 0222     		movs	r2, #2
 3906 0270 FFF7FEFF 		bl	_ZN5daisy9Parameter4InitENS_13AnalogControlEffNS0_5CurveE
 3907              	.LVL226:
 3908              	.LBB931:
 3909              	.LBI931:
 3910              		.loc 15 23 5 is_stmt 1 view .LVU1101
 3911              		.loc 15 23 5 is_stmt 0 view .LVU1102
 3912              	.LBE931:
 3913              		.loc 7 660 3 is_stmt 1 view .LVU1103
 3914              		.loc 7 660 25 is_stmt 0 view .LVU1104
 3915 0274 F7EE000A 		vmov.f32	s1, #1.0e+0
 3916 0278 9FED140A 		vldr.32	s0, .L230+48
 3917              		.loc 7 660 38 view .LVU1105
 3918 027c 0FCE     		ldmia	r6!, {r0, r1, r2, r3}
 3919 027e 0FC7     		stmia	r7!, {r0, r1, r2, r3}
 3920 0280 96E80F00 		ldm	r6, {r0, r1, r2, r3}
ARM GAS  /tmp/ccxnfbgf.s 			page 115


 3921 0284 84E80F00 		stm	r4, {r0, r1, r2, r3}
 3922              		.loc 7 660 25 view .LVU1106
 3923 0288 0222     		movs	r2, #2
 3924 028a 0CA9     		add	r1, sp, #48
 3925 028c 05F52570 		add	r0, r5, #660
 3926 0290 FFF7FEFF 		bl	_ZN5daisy9Parameter4InitENS_13AnalogControlEffNS0_5CurveE
 3927              	.LVL227:
 3928              	.LBB932:
 3929              	.LBI932:
 3930              		.loc 15 23 5 is_stmt 1 view .LVU1107
 3931              		.loc 15 23 5 is_stmt 0 view .LVU1108
 3932              	.LBE932:
 661:fjol.cpp      **** }
 3933              		.loc 7 661 1 view .LVU1109
 3934 0294 15B0     		add	sp, sp, #84
 3935              		.cfi_def_cfa_offset 28
 3936              		@ sp needed
 3937 0296 BDEC028B 		vldm	sp!, {d8}
 3938              		.cfi_restore 80
 3939              		.cfi_restore 81
 3940              		.cfi_def_cfa_offset 20
 3941              	.LVL228:
 3942              		.loc 7 661 1 view .LVU1110
 3943 029a F0BD     		pop	{r4, r5, r6, r7, pc}
 3944              	.L231:
 3945              		.align	2
 3946              	.L230:
 3947 029c 00000000 		.word	.LC4
 3948 02a0 00000000 		.word	.LANCHOR5
 3949 02a4 00000000 		.word	.LANCHOR2
 3950 02a8 00000000 		.word	.LANCHOR13
 3951 02ac 00000000 		.word	.LANCHOR8
 3952 02b0 00000000 		.word	.LANCHOR7
 3953 02b4 00000000 		.word	.LANCHOR9
 3954 02b8 00000000 		.word	.LANCHOR4
 3955 02bc 2C000000 		.word	.LANCHOR4+44
 3956 02c0 6F12033B 		.word	990057071
 3957 02c4 18000000 		.word	.LANCHOR13+24
 3958 02c8 00000000 		.word	.LANCHOR14
 3959 02cc 00000000 		.word	0
 3960 02d0 00409C46 		.word	1184645120
 3961              		.cfi_endproc
 3962              	.LFE4831:
 3964              		.section	.text._Z6setpwmhh,"ax",%progbits
 3965              		.align	1
 3966              		.p2align 2,,3
 3967              		.global	_Z6setpwmhh
 3968              		.syntax unified
 3969              		.thumb
 3970              		.thumb_func
 3972              	_Z6setpwmhh:
 3973              	.LVL229:
 3974              	.LFB4832:
 662:fjol.cpp      **** 
 663:fjol.cpp      **** void setpwm(uint8_t channel, uint8_t pwm)
 664:fjol.cpp      **** {
 3975              		.loc 7 664 1 is_stmt 1 view -0
ARM GAS  /tmp/ccxnfbgf.s 			page 116


 3976              		.cfi_startproc
 3977              		@ args = 0, pretend = 0, frame = 8
 3978              		@ frame_needed = 0, uses_anonymous_args = 0
 665:fjol.cpp      ****   i2c.WriteDataAtAddress(PCA9622_I2C_ADDRESS,channel+2,2,&pwm,2,10);
 3979              		.loc 7 665 3 view .LVU1112
 664:fjol.cpp      ****   i2c.WriteDataAtAddress(PCA9622_I2C_ADDRESS,channel+2,2,&pwm,2,10);
 3980              		.loc 7 664 1 is_stmt 0 view .LVU1113
 3981 0000 30B5     		push	{r4, r5, lr}
 3982              		.cfi_def_cfa_offset 12
 3983              		.cfi_offset 4, -12
 3984              		.cfi_offset 5, -8
 3985              		.cfi_offset 14, -4
 3986 0002 87B0     		sub	sp, sp, #28
 3987              		.cfi_def_cfa_offset 40
 3988              		.loc 7 665 25 view .LVU1114
 3989 0004 0223     		movs	r3, #2
 3990 0006 0A25     		movs	r5, #10
 664:fjol.cpp      ****   i2c.WriteDataAtAddress(PCA9622_I2C_ADDRESS,channel+2,2,&pwm,2,10);
 3991              		.loc 7 664 1 view .LVU1115
 3992 0008 8C46     		mov	ip, r1
 3993              		.loc 7 665 25 view .LVU1116
 3994 000a 0DF11704 		add	r4, sp, #23
 3995 000e C218     		adds	r2, r0, r3
 3996 0010 6021     		movs	r1, #96
 3997              	.LVL230:
 3998              		.loc 7 665 25 view .LVU1117
 3999 0012 0548     		ldr	r0, .L234
 4000              	.LVL231:
 4001              		.loc 7 665 25 view .LVU1118
 4002 0014 0094     		str	r4, [sp]
 664:fjol.cpp      ****   i2c.WriteDataAtAddress(PCA9622_I2C_ADDRESS,channel+2,2,&pwm,2,10);
 4003              		.loc 7 664 1 view .LVU1119
 4004 0016 8DF817C0 		strb	ip, [sp, #23]
 4005              		.loc 7 665 25 view .LVU1120
 4006 001a CDE90135 		strd	r3, r5, [sp, #4]
 4007 001e FFF7FEFF 		bl	_ZN5daisy9I2CHandle18WriteDataAtAddressEtttPhtm
 4008              	.LVL232:
 666:fjol.cpp      **** }
 4009              		.loc 7 666 1 view .LVU1121
 4010 0022 07B0     		add	sp, sp, #28
 4011              		.cfi_def_cfa_offset 12
 4012              		@ sp needed
 4013 0024 30BD     		pop	{r4, r5, pc}
 4014              	.L235:
 4015 0026 00BF     		.align	2
 4016              	.L234:
 4017 0028 00000000 		.word	.LANCHOR15
 4018              		.cfi_endproc
 4019              	.LFE4832:
 4021              		.section	.text._Z12startPCA9622v,"ax",%progbits
 4022              		.align	1
 4023              		.p2align 2,,3
 4024              		.global	_Z12startPCA9622v
 4025              		.syntax unified
 4026              		.thumb
 4027              		.thumb_func
 4029              	_Z12startPCA9622v:
ARM GAS  /tmp/ccxnfbgf.s 			page 117


 4030              	.LFB4833:
 667:fjol.cpp      **** 
 668:fjol.cpp      **** void startPCA9622()
 669:fjol.cpp      **** {
 4031              		.loc 7 669 1 is_stmt 1 view -0
 4032              		.cfi_startproc
 4033              		@ args = 0, pretend = 0, frame = 8
 4034              		@ frame_needed = 0, uses_anonymous_args = 0
 670:fjol.cpp      ****   uint8_t generalsettings = 0;
 4035              		.loc 7 670 3 view .LVU1123
 669:fjol.cpp      ****   uint8_t generalsettings = 0;
 4036              		.loc 7 669 1 is_stmt 0 view .LVU1124
 4037 0000 F0B5     		push	{r4, r5, r6, r7, lr}
 4038              		.cfi_def_cfa_offset 20
 4039              		.cfi_offset 4, -20
 4040              		.cfi_offset 5, -16
 4041              		.cfi_offset 6, -12
 4042              		.cfi_offset 7, -8
 4043              		.cfi_offset 14, -4
 4044              		.loc 7 670 11 view .LVU1125
 4045 0002 0023     		movs	r3, #0
 669:fjol.cpp      ****   uint8_t generalsettings = 0;
 4046              		.loc 7 669 1 view .LVU1126
 4047 0004 87B0     		sub	sp, sp, #28
 4048              		.cfi_def_cfa_offset 48
 671:fjol.cpp      ****   uint8_t pwmsettings = 255;
 672:fjol.cpp      ****   //start PWM oscillator
 673:fjol.cpp      ****   i2c.WriteDataAtAddress(PCA9622_I2C_ADDRESS,PCA9622_I2C_ADDRESS,1,&generalsettings,1,10);
 4049              		.loc 7 673 25 view .LVU1127
 4050 0006 0124     		movs	r4, #1
 4051 0008 6022     		movs	r2, #96
 4052 000a 0A26     		movs	r6, #10
 4053 000c 0DF11605 		add	r5, sp, #22
 670:fjol.cpp      ****   uint8_t pwmsettings = 255;
 4054              		.loc 7 670 11 view .LVU1128
 4055 0010 8DF81630 		strb	r3, [sp, #22]
 671:fjol.cpp      ****   uint8_t pwmsettings = 255;
 4056              		.loc 7 671 3 is_stmt 1 view .LVU1129
 671:fjol.cpp      ****   uint8_t pwmsettings = 255;
 4057              		.loc 7 671 11 is_stmt 0 view .LVU1130
 4058 0014 FF23     		movs	r3, #255
 4059              		.loc 7 673 25 view .LVU1131
 4060 0016 1146     		mov	r1, r2
 4061 0018 1748     		ldr	r0, .L240
 671:fjol.cpp      ****   uint8_t pwmsettings = 255;
 4062              		.loc 7 671 11 view .LVU1132
 4063 001a 8DF81730 		strb	r3, [sp, #23]
 4064              		.loc 7 673 3 is_stmt 1 view .LVU1133
 4065              		.loc 7 673 25 is_stmt 0 view .LVU1134
 4066 001e 2346     		mov	r3, r4
 4067 0020 0095     		str	r5, [sp]
 4068 0022 0DF11707 		add	r7, sp, #23
 4069 0026 CDE90146 		strd	r4, r6, [sp, #4]
 4070 002a FFF7FEFF 		bl	_ZN5daisy9I2CHandle18WriteDataAtAddressEtttPhtm
 4071              	.LVL233:
 674:fjol.cpp      ****   System::Delay(1);
 4072              		.loc 7 674 3 is_stmt 1 view .LVU1135
ARM GAS  /tmp/ccxnfbgf.s 			page 118


 4073              		.loc 7 674 16 is_stmt 0 view .LVU1136
 4074 002e 2046     		mov	r0, r4
 4075 0030 FFF7FEFF 		bl	_ZN5daisy6System5DelayEm
 4076              	.LVL234:
 675:fjol.cpp      ****   //set mode2 register to zero
 676:fjol.cpp      ****   i2c.WriteDataAtAddress(PCA9622_I2C_ADDRESS,PCA9622_I2C_ADDRESS+1,1,&generalsettings,1,10);
 4077              		.loc 7 676 3 is_stmt 1 view .LVU1137
 4078              		.loc 7 676 25 is_stmt 0 view .LVU1138
 4079 0034 2346     		mov	r3, r4
 4080 0036 6122     		movs	r2, #97
 4081 0038 6021     		movs	r1, #96
 4082 003a 0F48     		ldr	r0, .L240
 4083 003c 0095     		str	r5, [sp]
 4084 003e CDE90146 		strd	r4, r6, [sp, #4]
 4085 0042 FFF7FEFF 		bl	_ZN5daisy9I2CHandle18WriteDataAtAddressEtttPhtm
 4086              	.LVL235:
 677:fjol.cpp      ****   System::Delay(1);
 4087              		.loc 7 677 3 is_stmt 1 view .LVU1139
 4088              		.loc 7 677 16 is_stmt 0 view .LVU1140
 4089 0046 2046     		mov	r0, r4
 4090 0048 1424     		movs	r4, #20
 4091 004a FFF7FEFF 		bl	_ZN5daisy6System5DelayEm
 4092              	.LVL236:
 678:fjol.cpp      ****   //Set LEDs to enable PWM output
 679:fjol.cpp      ****   for(int i = 0; i<4; i++)
 4093              		.loc 7 679 3 is_stmt 1 view .LVU1141
 4094              	.LBB933:
 4095              		.loc 7 679 19 view .LVU1142
 4096              	.L237:
 680:fjol.cpp      ****   {
 681:fjol.cpp      ****     i2c.WriteDataAtAddress(PCA9622_I2C_ADDRESS,0x14+i,1,&pwmsettings,1,10);
 4097              		.loc 7 681 5 discriminator 2 view .LVU1143
 4098              		.loc 7 681 27 is_stmt 0 discriminator 2 view .LVU1144
 4099 004e 0125     		movs	r5, #1
 4100 0050 2246     		mov	r2, r4
 4101 0052 0A26     		movs	r6, #10
 4102 0054 6021     		movs	r1, #96
 679:fjol.cpp      ****   {
 4103              		.loc 7 679 19 discriminator 2 view .LVU1145
 4104 0056 2C44     		add	r4, r4, r5
 4105              		.loc 7 681 27 discriminator 2 view .LVU1146
 4106 0058 2B46     		mov	r3, r5
 4107 005a 0748     		ldr	r0, .L240
 679:fjol.cpp      ****   {
 4108              		.loc 7 679 19 discriminator 2 view .LVU1147
 4109 005c A4B2     		uxth	r4, r4
 4110              		.loc 7 681 27 discriminator 2 view .LVU1148
 4111 005e 0097     		str	r7, [sp]
 4112 0060 CDE90156 		strd	r5, r6, [sp, #4]
 4113 0064 FFF7FEFF 		bl	_ZN5daisy9I2CHandle18WriteDataAtAddressEtttPhtm
 4114              	.LVL237:
 682:fjol.cpp      ****     System::Delay(1);
 4115              		.loc 7 682 5 is_stmt 1 discriminator 2 view .LVU1149
 4116              		.loc 7 682 18 is_stmt 0 discriminator 2 view .LVU1150
 4117 0068 2846     		mov	r0, r5
 4118 006a FFF7FEFF 		bl	_ZN5daisy6System5DelayEm
 4119              	.LVL238:
ARM GAS  /tmp/ccxnfbgf.s 			page 119


 679:fjol.cpp      ****   {
 4120              		.loc 7 679 3 is_stmt 1 discriminator 2 view .LVU1151
 679:fjol.cpp      ****   {
 4121              		.loc 7 679 19 discriminator 2 view .LVU1152
 4122 006e 182C     		cmp	r4, #24
 4123 0070 EDD1     		bne	.L237
 4124              	.LBE933:
 683:fjol.cpp      ****   }
 684:fjol.cpp      **** }
 4125              		.loc 7 684 1 is_stmt 0 view .LVU1153
 4126 0072 07B0     		add	sp, sp, #28
 4127              		.cfi_def_cfa_offset 20
 4128              		@ sp needed
 4129 0074 F0BD     		pop	{r4, r5, r6, r7, pc}
 4130              	.L241:
 4131 0076 00BF     		.align	2
 4132              	.L240:
 4133 0078 00000000 		.word	.LANCHOR15
 4134              		.cfi_endproc
 4135              	.LFE4833:
 4137              		.section	.text._Z11shiftvoicesv,"ax",%progbits
 4138              		.align	1
 4139              		.p2align 2,,3
 4140              		.global	_Z11shiftvoicesv
 4141              		.syntax unified
 4142              		.thumb
 4143              		.thumb_func
 4145              	_Z11shiftvoicesv:
 4146              	.LFB4834:
 685:fjol.cpp      **** 
 686:fjol.cpp      **** void shiftvoices()
 687:fjol.cpp      **** {
 4147              		.loc 7 687 1 is_stmt 1 view -0
 4148              		.cfi_startproc
 4149              		@ args = 0, pretend = 0, frame = 0
 4150              		@ frame_needed = 0, uses_anonymous_args = 0
 4151              		@ link register save eliminated.
 688:fjol.cpp      ****   uint8_t temp;
 4152              		.loc 7 688 3 view .LVU1155
 689:fjol.cpp      ****   temp = voicehist[3];
 4153              		.loc 7 689 3 view .LVU1156
 4154              		.loc 7 689 8 is_stmt 0 view .LVU1157
 4155 0000 054B     		ldr	r3, .L243
 4156 0002 D878     		ldrb	r0, [r3, #3]	@ zero_extendqisi2
 4157              	.LVL239:
 690:fjol.cpp      ****   voicehist[3] = voicehist[2];
 4158              		.loc 7 690 3 is_stmt 1 view .LVU1158
 4159              		.loc 7 690 16 is_stmt 0 view .LVU1159
 4160 0004 93F802C0 		ldrb	ip, [r3, #2]	@ zero_extendqisi2
 691:fjol.cpp      ****   voicehist[2] = voicehist[1];
 4161              		.loc 7 691 16 view .LVU1160
 4162 0008 5978     		ldrb	r1, [r3, #1]	@ zero_extendqisi2
 692:fjol.cpp      ****   voicehist[1] = voicehist[0];
 4163              		.loc 7 692 16 view .LVU1161
 4164 000a 1A78     		ldrb	r2, [r3]	@ zero_extendqisi2
 690:fjol.cpp      ****   voicehist[3] = voicehist[2];
 4165              		.loc 7 690 16 view .LVU1162
ARM GAS  /tmp/ccxnfbgf.s 			page 120


 4166 000c 83F803C0 		strb	ip, [r3, #3]
 691:fjol.cpp      ****   voicehist[2] = voicehist[1];
 4167              		.loc 7 691 3 is_stmt 1 view .LVU1163
 693:fjol.cpp      ****   voicehist[0] = temp;
 4168              		.loc 7 693 16 is_stmt 0 view .LVU1164
 4169 0010 1870     		strb	r0, [r3]
 691:fjol.cpp      ****   voicehist[2] = voicehist[1];
 4170              		.loc 7 691 16 view .LVU1165
 4171 0012 9970     		strb	r1, [r3, #2]
 692:fjol.cpp      ****   voicehist[1] = voicehist[0];
 4172              		.loc 7 692 3 is_stmt 1 view .LVU1166
 692:fjol.cpp      ****   voicehist[1] = voicehist[0];
 4173              		.loc 7 692 16 is_stmt 0 view .LVU1167
 4174 0014 5A70     		strb	r2, [r3, #1]
 4175              		.loc 7 693 3 is_stmt 1 view .LVU1168
 694:fjol.cpp      **** }
 4176              		.loc 7 694 1 is_stmt 0 view .LVU1169
 4177 0016 7047     		bx	lr
 4178              	.L244:
 4179              		.align	2
 4180              	.L243:
 4181 0018 00000000 		.word	voicehist
 4182              		.cfi_endproc
 4183              	.LFE4834:
 4185              		.section	.text._Z8voiceOFFh,"ax",%progbits
 4186              		.align	1
 4187              		.p2align 2,,3
 4188              		.global	_Z8voiceOFFh
 4189              		.syntax unified
 4190              		.thumb
 4191              		.thumb_func
 4193              	_Z8voiceOFFh:
 4194              	.LVL240:
 4195              	.LFB4835:
 695:fjol.cpp      **** 
 696:fjol.cpp      **** void voiceOFF(uint8_t note)
 697:fjol.cpp      **** {
 4196              		.loc 7 697 1 is_stmt 1 view -0
 4197              		.cfi_startproc
 4198              		@ args = 0, pretend = 0, frame = 0
 4199              		@ frame_needed = 0, uses_anonymous_args = 0
 4200              		@ link register save eliminated.
 698:fjol.cpp      ****   for(int i = 0; i<4; i++)
 4201              		.loc 7 698 3 view .LVU1171
 4202              	.LBB934:
 4203              		.loc 7 698 19 view .LVU1172
 4204              	.LBE934:
 697:fjol.cpp      ****   for(int i = 0; i<4; i++)
 4205              		.loc 7 697 1 is_stmt 0 view .LVU1173
 4206 0000 10B4     		push	{r4}
 4207              		.cfi_def_cfa_offset 4
 4208              		.cfi_offset 4, -4
 4209 0002 114C     		ldr	r4, .L257
 4210 0004 114A     		ldr	r2, .L257+4
 4211 0006 2346     		mov	r3, r4
 4212 0008 04F1040C 		add	ip, r4, #4
 4213              	.LVL241:
ARM GAS  /tmp/ccxnfbgf.s 			page 121


 4214              	.L247:
 4215              	.LBB935:
 699:fjol.cpp      ****   {
 700:fjol.cpp      ****     if((voicetrig[i] == 1) && (note == voicenote[i]))
 4216              		.loc 7 700 5 is_stmt 1 view .LVU1174
 698:fjol.cpp      ****   {
 4217              		.loc 7 698 3 view .LVU1175
 4218              		.loc 7 700 20 is_stmt 0 view .LVU1176
 4219 000c 13F8011B 		ldrb	r1, [r3], #1	@ zero_extendqisi2
 4220              	.LVL242:
 698:fjol.cpp      ****   {
 4221              		.loc 7 698 19 is_stmt 1 view .LVU1177
 4222              		.loc 7 700 5 is_stmt 0 view .LVU1178
 4223 0010 29B1     		cbz	r1, .L246
 4224              		.loc 7 700 28 discriminator 1 view .LVU1179
 4225 0012 1178     		ldrb	r1, [r2]	@ zero_extendqisi2
 4226 0014 8142     		cmp	r1, r0
 4227 0016 02D1     		bne	.L246
 701:fjol.cpp      ****     {
 702:fjol.cpp      ****       voicetrig[i] = 0;
 4228              		.loc 7 702 7 is_stmt 1 view .LVU1180
 4229              		.loc 7 702 20 is_stmt 0 view .LVU1181
 4230 0018 0021     		movs	r1, #0
 4231 001a 03F8011C 		strb	r1, [r3, #-1]
 4232              	.L246:
 698:fjol.cpp      ****   {
 4233              		.loc 7 698 19 discriminator 2 view .LVU1182
 4234 001e 6345     		cmp	r3, ip
 4235 0020 02F10102 		add	r2, r2, #1
 4236 0024 F2D1     		bne	.L247
 4237              	.LBE935:
 703:fjol.cpp      ****     }
 704:fjol.cpp      ****   }
 705:fjol.cpp      ****   if (gate_out && voicetrig[0] == 0 && voicetrig[1] == 0 && voicetrig[2] == 0 && voicetrig[3] == 0 
 4238              		.loc 7 705 3 is_stmt 1 view .LVU1183
 4239              		.loc 7 705 7 is_stmt 0 view .LVU1184
 4240 0026 0A4B     		ldr	r3, .L257+8
 4241              	.LVL243:
 4242              		.loc 7 705 3 view .LVU1185
 4243 0028 1A78     		ldrb	r2, [r3]	@ zero_extendqisi2
 4244 002a 52B1     		cbz	r2, .L245
 4245              		.loc 7 705 16 discriminator 1 view .LVU1186
 4246 002c 2278     		ldrb	r2, [r4]	@ zero_extendqisi2
 4247 002e 42B9     		cbnz	r2, .L245
 4248              		.loc 7 705 37 discriminator 2 view .LVU1187
 4249 0030 6278     		ldrb	r2, [r4, #1]	@ zero_extendqisi2
 4250 0032 32B9     		cbnz	r2, .L245
 4251              		.loc 7 705 58 discriminator 3 view .LVU1188
 4252 0034 A278     		ldrb	r2, [r4, #2]	@ zero_extendqisi2
 4253 0036 22B9     		cbnz	r2, .L245
 4254              		.loc 7 705 79 discriminator 4 view .LVU1189
 4255 0038 E278     		ldrb	r2, [r4, #3]	@ zero_extendqisi2
 4256 003a 12B9     		cbnz	r2, .L245
 706:fjol.cpp      ****   {
 707:fjol.cpp      ****     gate_out = 0;
 4257              		.loc 7 707 5 is_stmt 1 view .LVU1190
 708:fjol.cpp      ****     filtenv_trig = 0;
ARM GAS  /tmp/ccxnfbgf.s 			page 122


 4258              		.loc 7 708 18 is_stmt 0 view .LVU1191
 4259 003c 0549     		ldr	r1, .L257+12
 707:fjol.cpp      ****     filtenv_trig = 0;
 4260              		.loc 7 707 14 view .LVU1192
 4261 003e 1A70     		strb	r2, [r3]
 4262              		.loc 7 708 5 is_stmt 1 view .LVU1193
 4263              		.loc 7 708 18 is_stmt 0 view .LVU1194
 4264 0040 0A70     		strb	r2, [r1]
 4265              	.L245:
 709:fjol.cpp      ****   }
 710:fjol.cpp      **** 
 711:fjol.cpp      **** }
 4266              		.loc 7 711 1 view .LVU1195
 4267 0042 5DF8044B 		ldr	r4, [sp], #4
 4268              		.cfi_restore 4
 4269              		.cfi_def_cfa_offset 0
 4270 0046 7047     		bx	lr
 4271              	.L258:
 4272              		.align	2
 4273              	.L257:
 4274 0048 00000000 		.word	voicetrig
 4275 004c 00000000 		.word	voicenote
 4276 0050 00000000 		.word	gate_out
 4277 0054 00000000 		.word	filtenv_trig
 4278              		.cfi_endproc
 4279              	.LFE4835:
 4281              		.section	.text._Z7voiceONh,"ax",%progbits
 4282              		.align	1
 4283              		.p2align 2,,3
 4284              		.global	_Z7voiceONh
 4285              		.syntax unified
 4286              		.thumb
 4287              		.thumb_func
 4289              	_Z7voiceONh:
 4290              	.LVL244:
 4291              	.LFB4836:
 712:fjol.cpp      **** 
 713:fjol.cpp      **** 
 714:fjol.cpp      **** void voiceON(uint8_t note)
 715:fjol.cpp      **** {
 4292              		.loc 7 715 1 is_stmt 1 view -0
 4293              		.cfi_startproc
 4294              		@ args = 0, pretend = 0, frame = 0
 4295              		@ frame_needed = 0, uses_anonymous_args = 0
 716:fjol.cpp      ****   float freq_note = mtof(note - 1) * pbend * octaveindex[octave];
 4296              		.loc 7 716 3 view .LVU1197
 715:fjol.cpp      ****   float freq_note = mtof(note - 1) * pbend * octaveindex[octave];
 4297              		.loc 7 715 1 is_stmt 0 view .LVU1198
 4298 0000 38B5     		push	{r3, r4, r5, lr}
 4299              		.cfi_def_cfa_offset 16
 4300              		.cfi_offset 3, -16
 4301              		.cfi_offset 4, -12
 4302              		.cfi_offset 5, -8
 4303              		.cfi_offset 14, -4
 4304              		.loc 7 716 31 view .LVU1199
 4305 0002 431E     		subs	r3, r0, #1
 4306              	.LBB943:
ARM GAS  /tmp/ccxnfbgf.s 			page 123


 4307              	.LBB944:
 4308              		.file 16 "DaisySP/Source/Utility/dsp.h"
   1:DaisySP/Source/Utility/dsp.h **** /** Helpful defines, functions, and other utilities for use in/with daisysp modules.
   2:DaisySP/Source/Utility/dsp.h **** */
   3:DaisySP/Source/Utility/dsp.h **** #pragma once
   4:DaisySP/Source/Utility/dsp.h **** #ifndef DSY_CORE_DSP
   5:DaisySP/Source/Utility/dsp.h **** #define DSY_CORE_DSP
   6:DaisySP/Source/Utility/dsp.h **** #include <cassert>
   7:DaisySP/Source/Utility/dsp.h **** #include <cstdint>
   8:DaisySP/Source/Utility/dsp.h **** #include <random>
   9:DaisySP/Source/Utility/dsp.h **** #include <cmath>
  10:DaisySP/Source/Utility/dsp.h **** 
  11:DaisySP/Source/Utility/dsp.h **** /** PIs
  12:DaisySP/Source/Utility/dsp.h **** */
  13:DaisySP/Source/Utility/dsp.h **** #define PI_F 3.1415927410125732421875f
  14:DaisySP/Source/Utility/dsp.h **** #define TWOPI_F (2.0f * PI_F)
  15:DaisySP/Source/Utility/dsp.h **** #define HALFPI_F (PI_F * 0.5f)
  16:DaisySP/Source/Utility/dsp.h **** #define DSY_MIN(in, mn) (in < mn ? in : mn)
  17:DaisySP/Source/Utility/dsp.h **** #define DSY_MAX(in, mx) (in > mx ? in : mx)
  18:DaisySP/Source/Utility/dsp.h **** #define DSY_CLAMP(in, mn, mx) (DSY_MIN(DSY_MAX(in, mn), mx))
  19:DaisySP/Source/Utility/dsp.h **** #define DSY_COUNTOF(_arr) (sizeof(_arr) / sizeof(_arr[0]))
  20:DaisySP/Source/Utility/dsp.h **** 
  21:DaisySP/Source/Utility/dsp.h **** namespace daisysp
  22:DaisySP/Source/Utility/dsp.h **** {
  23:DaisySP/Source/Utility/dsp.h **** //Avoids division for random floats. e.g. rand() * kRandFrac
  24:DaisySP/Source/Utility/dsp.h **** static constexpr float kRandFrac = 1.f / (float)RAND_MAX;
  25:DaisySP/Source/Utility/dsp.h **** 
  26:DaisySP/Source/Utility/dsp.h **** //Convert from semitones to other units. e.g. 2 ^ (kOneTwelfth * x)
  27:DaisySP/Source/Utility/dsp.h **** static constexpr float kOneTwelfth = 1.f / 12.f;
  28:DaisySP/Source/Utility/dsp.h **** 
  29:DaisySP/Source/Utility/dsp.h **** /** efficient floating point min/max
  30:DaisySP/Source/Utility/dsp.h **** c/o stephen mccaul
  31:DaisySP/Source/Utility/dsp.h **** */
  32:DaisySP/Source/Utility/dsp.h **** inline float fmax(float a, float b)
  33:DaisySP/Source/Utility/dsp.h **** {
  34:DaisySP/Source/Utility/dsp.h ****     float r;
  35:DaisySP/Source/Utility/dsp.h **** #ifdef __arm__
  36:DaisySP/Source/Utility/dsp.h ****     asm("vmaxnm.f32 %[d], %[n], %[m]" : [d] "=t"(r) : [n] "t"(a), [m] "t"(b) :);
  37:DaisySP/Source/Utility/dsp.h **** #else
  38:DaisySP/Source/Utility/dsp.h ****     r = (a > b) ? a : b;
  39:DaisySP/Source/Utility/dsp.h **** #endif // __arm__
  40:DaisySP/Source/Utility/dsp.h ****     return r;
  41:DaisySP/Source/Utility/dsp.h **** }
  42:DaisySP/Source/Utility/dsp.h **** 
  43:DaisySP/Source/Utility/dsp.h **** inline float fmin(float a, float b)
  44:DaisySP/Source/Utility/dsp.h **** {
  45:DaisySP/Source/Utility/dsp.h ****     float r;
  46:DaisySP/Source/Utility/dsp.h **** #ifdef __arm__
  47:DaisySP/Source/Utility/dsp.h ****     asm("vminnm.f32 %[d], %[n], %[m]" : [d] "=t"(r) : [n] "t"(a), [m] "t"(b) :);
  48:DaisySP/Source/Utility/dsp.h **** #else
  49:DaisySP/Source/Utility/dsp.h ****     r = (a < b) ? a : b;
  50:DaisySP/Source/Utility/dsp.h **** #endif // __arm__
  51:DaisySP/Source/Utility/dsp.h ****     return r;
  52:DaisySP/Source/Utility/dsp.h **** }
  53:DaisySP/Source/Utility/dsp.h **** 
  54:DaisySP/Source/Utility/dsp.h **** /** quick fp clamp
  55:DaisySP/Source/Utility/dsp.h **** */
ARM GAS  /tmp/ccxnfbgf.s 			page 124


  56:DaisySP/Source/Utility/dsp.h **** inline float fclamp(float in, float min, float max)
  57:DaisySP/Source/Utility/dsp.h **** {
  58:DaisySP/Source/Utility/dsp.h ****     return fmin(fmax(in, min), max);
  59:DaisySP/Source/Utility/dsp.h **** }
  60:DaisySP/Source/Utility/dsp.h **** 
  61:DaisySP/Source/Utility/dsp.h **** /** From Musicdsp.org "Fast power and root estimates for 32bit floats)
  62:DaisySP/Source/Utility/dsp.h **** Original code by Stefan Stenzel
  63:DaisySP/Source/Utility/dsp.h **** These are approximations
  64:DaisySP/Source/Utility/dsp.h **** */
  65:DaisySP/Source/Utility/dsp.h **** inline float fastpower(float f, int n)
  66:DaisySP/Source/Utility/dsp.h **** {
  67:DaisySP/Source/Utility/dsp.h ****     long *lp, l;
  68:DaisySP/Source/Utility/dsp.h ****     lp = (long *)(&f);
  69:DaisySP/Source/Utility/dsp.h ****     l  = *lp;
  70:DaisySP/Source/Utility/dsp.h ****     l -= 0x3F800000;
  71:DaisySP/Source/Utility/dsp.h ****     l <<= (n - 1);
  72:DaisySP/Source/Utility/dsp.h ****     l += 0x3F800000;
  73:DaisySP/Source/Utility/dsp.h ****     *lp = l;
  74:DaisySP/Source/Utility/dsp.h ****     return f;
  75:DaisySP/Source/Utility/dsp.h **** }
  76:DaisySP/Source/Utility/dsp.h **** 
  77:DaisySP/Source/Utility/dsp.h **** inline float fastroot(float f, int n)
  78:DaisySP/Source/Utility/dsp.h **** {
  79:DaisySP/Source/Utility/dsp.h ****     long *lp, l;
  80:DaisySP/Source/Utility/dsp.h ****     lp = (long *)(&f);
  81:DaisySP/Source/Utility/dsp.h ****     l  = *lp;
  82:DaisySP/Source/Utility/dsp.h ****     l -= 0x3F800000;
  83:DaisySP/Source/Utility/dsp.h ****     l >>= (n = 1);
  84:DaisySP/Source/Utility/dsp.h ****     l += 0x3F800000;
  85:DaisySP/Source/Utility/dsp.h ****     *lp = l;
  86:DaisySP/Source/Utility/dsp.h ****     return f;
  87:DaisySP/Source/Utility/dsp.h **** }
  88:DaisySP/Source/Utility/dsp.h **** 
  89:DaisySP/Source/Utility/dsp.h **** /** From http://openaudio.blogspot.com/2017/02/faster-log10-and-pow.html
  90:DaisySP/Source/Utility/dsp.h **** No approximation, pow10f(x) gives a 90% speed increase over powf(10.f, x)
  91:DaisySP/Source/Utility/dsp.h **** */
  92:DaisySP/Source/Utility/dsp.h **** inline float pow10f(float f)
  93:DaisySP/Source/Utility/dsp.h **** {
  94:DaisySP/Source/Utility/dsp.h ****     return expf(2.302585092994046f * f);
  95:DaisySP/Source/Utility/dsp.h **** }
  96:DaisySP/Source/Utility/dsp.h **** 
  97:DaisySP/Source/Utility/dsp.h **** /* Original code for fastlog2f by Dr. Paul Beckmann from the ARM community forum, adapted from the 
  98:DaisySP/Source/Utility/dsp.h **** About 25% performance increase over std::log10f
  99:DaisySP/Source/Utility/dsp.h **** */
 100:DaisySP/Source/Utility/dsp.h **** inline float fastlog2f(float f)
 101:DaisySP/Source/Utility/dsp.h **** {
 102:DaisySP/Source/Utility/dsp.h ****     float frac;
 103:DaisySP/Source/Utility/dsp.h ****     int   exp;
 104:DaisySP/Source/Utility/dsp.h ****     frac = frexpf(fabsf(f), &exp);
 105:DaisySP/Source/Utility/dsp.h ****     f    = 1.23149591368684f;
 106:DaisySP/Source/Utility/dsp.h ****     f *= frac;
 107:DaisySP/Source/Utility/dsp.h ****     f += -4.11852516267426f;
 108:DaisySP/Source/Utility/dsp.h ****     f *= frac;
 109:DaisySP/Source/Utility/dsp.h ****     f += 6.02197014179219f;
 110:DaisySP/Source/Utility/dsp.h ****     f *= frac;
 111:DaisySP/Source/Utility/dsp.h ****     f += -3.13396450166353f;
 112:DaisySP/Source/Utility/dsp.h ****     f += exp;
ARM GAS  /tmp/ccxnfbgf.s 			page 125


 113:DaisySP/Source/Utility/dsp.h ****     return (f);
 114:DaisySP/Source/Utility/dsp.h **** }
 115:DaisySP/Source/Utility/dsp.h **** 
 116:DaisySP/Source/Utility/dsp.h **** inline float fastlog10f(float f)
 117:DaisySP/Source/Utility/dsp.h **** {
 118:DaisySP/Source/Utility/dsp.h ****     return fastlog2f(f) * 0.3010299956639812f;
 119:DaisySP/Source/Utility/dsp.h **** }
 120:DaisySP/Source/Utility/dsp.h **** 
 121:DaisySP/Source/Utility/dsp.h **** /** Midi to frequency helper
 122:DaisySP/Source/Utility/dsp.h **** */
 123:DaisySP/Source/Utility/dsp.h **** inline float mtof(float m)
 124:DaisySP/Source/Utility/dsp.h **** {
 125:DaisySP/Source/Utility/dsp.h ****     return powf(2, (m - 69.0f) / 12.0f) * 440.0f;
 4309              		.loc 16 125 23 view .LVU1200
 4310 0004 9FED2D7A 		vldr.32	s14, .L271
 4311              		.loc 16 125 16 view .LVU1201
 4312 0008 F2EE080A 		vmov.f32	s1, #1.2e+1
 4313              	.LBE944:
 4314              	.LBE943:
 715:fjol.cpp      ****   float freq_note = mtof(note - 1) * pbend * octaveindex[octave];
 4315              		.loc 7 715 1 view .LVU1202
 4316 000c 0446     		mov	r4, r0
 4317              	.LVL245:
 4318              	.LBB950:
 4319              	.LBI943:
 123:DaisySP/Source/Utility/dsp.h **** {
 4320              		.loc 16 123 14 is_stmt 1 view .LVU1203
 4321              	.LBB945:
 4322              		.loc 16 125 5 view .LVU1204
 4323              	.LBE945:
 4324              	.LBE950:
 4325              		.loc 7 716 31 is_stmt 0 view .LVU1205
 4326 000e 07EE903A 		vmov	s15, r3	@ int
 4327              	.LBB951:
 4328              	.LBB946:
 4329              		.loc 16 125 16 view .LVU1206
 4330 0012 B0EE000A 		vmov.f32	s0, #2.0e+0
 4331              	.LBE946:
 4332              	.LBE951:
 4333              		.loc 7 716 25 view .LVU1207
 4334 0016 F8EEE77A 		vcvt.f32.s32	s15, s15
 4335              	.LBB952:
 4336              	.LBB947:
 4337              		.loc 16 125 23 view .LVU1208
 4338 001a 77EEC77A 		vsub.f32	s15, s15, s14
 4339              		.loc 16 125 16 view .LVU1209
 4340 001e C7EEA00A 		vdiv.f32	s1, s15, s1
 4341 0022 FFF7FEFF 		bl	powf
 4342              	.LVL246:
 4343              		.loc 16 125 16 view .LVU1210
 4344              	.LBE947:
 4345              	.LBE952:
 4346              		.loc 7 716 58 view .LVU1211
 4347 0026 2649     		ldr	r1, .L271+4
 4348              		.loc 7 716 64 view .LVU1212
 4349 0028 264B     		ldr	r3, .L271+8
 4350              		.loc 7 716 58 view .LVU1213
ARM GAS  /tmp/ccxnfbgf.s 			page 126


 4351 002a 0978     		ldrb	r1, [r1]	@ zero_extendqisi2
 4352              	.LVL247:
 717:fjol.cpp      ****   
 718:fjol.cpp      ****   if (!gate_out)
 4353              		.loc 7 718 7 view .LVU1214
 4354 002c 264A     		ldr	r2, .L271+12
 716:fjol.cpp      ****   
 4355              		.loc 7 716 64 view .LVU1215
 4356 002e 03EB8103 		add	r3, r3, r1, lsl #2
 716:fjol.cpp      ****   
 4357              		.loc 7 716 36 view .LVU1216
 4358 0032 2648     		ldr	r0, .L271+16
 4359              		.loc 7 718 3 view .LVU1217
 4360 0034 1178     		ldrb	r1, [r2]	@ zero_extendqisi2
 716:fjol.cpp      ****   
 4361              		.loc 7 716 36 view .LVU1218
 4362 0036 D0ED006A 		vldr.32	s13, [r0]
 716:fjol.cpp      ****   
 4363              		.loc 7 716 64 view .LVU1219
 4364 003a 93ED007A 		vldr.32	s14, [r3]
 4365              	.LVL248:
 4366              		.loc 7 718 3 is_stmt 1 view .LVU1220
 4367 003e 19B9     		cbnz	r1, .L260
 719:fjol.cpp      ****   {
 720:fjol.cpp      ****     gate_out = 1;
 4368              		.loc 7 720 5 view .LVU1221
 4369              		.loc 7 720 14 is_stmt 0 view .LVU1222
 4370 0040 0123     		movs	r3, #1
 721:fjol.cpp      ****     filtenv_trig = 1;
 4371              		.loc 7 721 18 view .LVU1223
 4372 0042 2349     		ldr	r1, .L271+20
 720:fjol.cpp      ****     filtenv_trig = 1;
 4373              		.loc 7 720 14 view .LVU1224
 4374 0044 1370     		strb	r3, [r2]
 4375              		.loc 7 721 5 is_stmt 1 view .LVU1225
 4376              		.loc 7 721 18 is_stmt 0 view .LVU1226
 4377 0046 0B70     		strb	r3, [r1]
 4378              	.L260:
 722:fjol.cpp      ****   }
 723:fjol.cpp      ****   for(int i = 0; i<4; i++)
 4379              		.loc 7 723 3 is_stmt 1 view .LVU1227
 4380              	.LVL249:
 4381              	.LBB953:
 4382              		.loc 7 723 19 view .LVU1228
 724:fjol.cpp      ****   {
 725:fjol.cpp      ****     if(voicehist[0] == i+1 && !voicetrig[i])
 4383              		.loc 7 725 19 is_stmt 0 view .LVU1229
 4384 0048 2248     		ldr	r0, .L271+24
 723:fjol.cpp      ****   {
 4385              		.loc 7 723 11 view .LVU1230
 4386 004a 0023     		movs	r3, #0
 4387 004c 224D     		ldr	r5, .L271+28
 4388              		.loc 7 725 19 view .LVU1231
 4389 004e 90F800C0 		ldrb	ip, [r0]	@ zero_extendqisi2
 4390 0052 2A46     		mov	r2, r5
 4391              	.LVL250:
 4392              	.L261:
ARM GAS  /tmp/ccxnfbgf.s 			page 127


 4393              		.loc 7 725 5 is_stmt 1 view .LVU1232
 4394 0054 9E46     		mov	lr, r3
 4395              		.loc 7 725 25 is_stmt 0 view .LVU1233
 4396 0056 0133     		adds	r3, r3, #1
 4397              	.LVL251:
 723:fjol.cpp      ****   {
 4398              		.loc 7 723 19 is_stmt 1 view .LVU1234
 4399              		.loc 7 725 5 is_stmt 0 view .LVU1235
 4400 0058 9C45     		cmp	ip, r3
 4401 005a 04D0     		beq	.L270
 4402              	.L263:
 723:fjol.cpp      ****   {
 4403              		.loc 7 723 19 discriminator 1 view .LVU1236
 4404 005c 042B     		cmp	r3, #4
 4405 005e 02F10102 		add	r2, r2, #1
 4406 0062 F7D1     		bne	.L261
 4407              	.LVL252:
 4408              	.L259:
 723:fjol.cpp      ****   {
 4409              		.loc 7 723 19 discriminator 1 view .LVU1237
 4410              	.LBE953:
 726:fjol.cpp      ****     {
 727:fjol.cpp      ****       voicenote[i] = note;
 728:fjol.cpp      ****       voicetrig[i] = 1;
 729:fjol.cpp      ****       shiftvoices();
 730:fjol.cpp      ****       voicefreqtarget[i] = freq_note;
 731:fjol.cpp      ****       if(envelope[i].env.IsRunning())
 732:fjol.cpp      ****       {
 733:fjol.cpp      ****         envelope[i].env.Retrigger(0);
 734:fjol.cpp      ****       }
 735:fjol.cpp      ****       return;
 736:fjol.cpp      ****      }
 737:fjol.cpp      ****   }
 738:fjol.cpp      ****  
 739:fjol.cpp      **** }...
 4411              		.loc 7 739 1 view .LVU1238
 4412 0064 38BD     		pop	{r3, r4, r5, pc}
 4413              	.LVL253:
 4414              	.L270:
 4415              	.LBB964:
 725:fjol.cpp      ****     if(voicehist[0] == i+1 && !voicetrig[i])
 4416              		.loc 7 725 28 discriminator 1 view .LVU1239
 4417 0066 1178     		ldrb	r1, [r2]	@ zero_extendqisi2
 4418 0068 0029     		cmp	r1, #0
 4419 006a F7D1     		bne	.L263
 727:fjol.cpp      ****       voicenote[i] = note;
 4420              		.loc 7 727 7 is_stmt 1 view .LVU1240
 4421              	.LBE964:
 4422              	.LBB965:
 4423              	.LBB948:
 4424              		.loc 16 125 43 is_stmt 0 view .LVU1241
 4425 006c DFED1B7A 		vldr.32	s15, .L271+32
 4426              	.LBE948:
 4427              	.LBE965:
 4428              	.LBB966:
 730:fjol.cpp      ****       voicefreqtarget[i] = freq_note;
 4429              		.loc 7 730 26 view .LVU1242
ARM GAS  /tmp/ccxnfbgf.s 			page 128


 4430 0070 1B4A     		ldr	r2, .L271+36
 4431              	.LBE966:
 4432              	.LBB967:
 4433              	.LBB949:
 4434              		.loc 16 125 43 view .LVU1243
 4435 0072 60EE277A 		vmul.f32	s15, s0, s15
 4436              	.LBE949:
 4437              	.LBE967:
 4438              	.LBB968:
 4439              	.LBB954:
 4440              	.LBB955:
  71:DaisySP/Source/Control/adsr.h ****     }
  72:DaisySP/Source/Control/adsr.h ****     /** get the current envelope segment
  73:DaisySP/Source/Control/adsr.h ****         \return the segment of the envelope that the phase is currently located in.
  74:DaisySP/Source/Control/adsr.h ****     */
  75:DaisySP/Source/Control/adsr.h ****     inline uint8_t GetCurrentSegment() { return mode_; }
  76:DaisySP/Source/Control/adsr.h ****     /** Tells whether envelope is active
  77:DaisySP/Source/Control/adsr.h ****         \return true if the envelope is currently in any stage apart from idle.
  78:DaisySP/Source/Control/adsr.h ****     */
  79:DaisySP/Source/Control/adsr.h ****     inline bool IsRunning() const { return mode_ != ADSR_SEG_IDLE; }
 4441              		.loc 14 79 44 view .LVU1244
 4442 0076 1B4B     		ldr	r3, .L271+40
 4443              	.LVL254:
 4444              		.loc 14 79 44 view .LVU1245
 4445              	.LBE955:
 4446              	.LBE954:
 730:fjol.cpp      ****       voicefreqtarget[i] = freq_note;
 4447              		.loc 7 730 26 view .LVU1246
 4448 0078 02EB8E02 		add	r2, r2, lr, lsl #2
 4449              	.LBB958:
 4450              	.LBB956:
 4451              		.loc 14 79 44 view .LVU1247
 4452 007c 03EB8E13 		add	r3, r3, lr, lsl #6
 4453              	.LBE956:
 4454              	.LBE958:
 4455              	.LBE968:
 716:fjol.cpp      ****   float freq_note = mtof(note - 1) * pbend * octaveindex[octave];
 4456              		.loc 7 716 36 view .LVU1248
 4457 0080 67EEA67A 		vmul.f32	s15, s15, s13
 716:fjol.cpp      ****   float freq_note = mtof(note - 1) * pbend * octaveindex[octave];
 4458              		.loc 7 716 64 view .LVU1249
 4459 0084 67EE877A 		vmul.f32	s15, s15, s14
 4460              	.LBB969:
 730:fjol.cpp      ****       voicefreqtarget[i] = freq_note;
 4461              		.loc 7 730 26 view .LVU1250
 4462 0088 C2ED007A 		vstr.32	s15, [r2]
 4463              	.LBB959:
 4464              	.LBB960:
 689:fjol.cpp      ****   temp = voicehist[3];
 4465              		.loc 7 689 8 view .LVU1251
 4466 008c C278     		ldrb	r2, [r0, #3]	@ zero_extendqisi2
 693:fjol.cpp      ****   voicehist[0] = temp;
 4467              		.loc 7 693 16 view .LVU1252
 4468 008e 0270     		strb	r2, [r0]
 690:fjol.cpp      ****   voicehist[3] = voicehist[2];
 4469              		.loc 7 690 16 view .LVU1253
 4470 0090 8278     		ldrb	r2, [r0, #2]	@ zero_extendqisi2
ARM GAS  /tmp/ccxnfbgf.s 			page 129


 4471 0092 C270     		strb	r2, [r0, #3]
 691:fjol.cpp      ****   voicehist[2] = voicehist[1];
 4472              		.loc 7 691 16 view .LVU1254
 4473 0094 4278     		ldrb	r2, [r0, #1]	@ zero_extendqisi2
 692:fjol.cpp      ****   voicehist[1] = voicehist[0];
 4474              		.loc 7 692 16 view .LVU1255
 4475 0096 80F801C0 		strb	ip, [r0, #1]
 691:fjol.cpp      ****   voicehist[2] = voicehist[1];
 4476              		.loc 7 691 16 view .LVU1256
 4477 009a 8270     		strb	r2, [r0, #2]
 4478              	.LBE960:
 4479              	.LBE959:
 727:fjol.cpp      ****       voicenote[i] = note;
 4480              		.loc 7 727 20 view .LVU1257
 4481 009c 124A     		ldr	r2, .L271+44
 4482 009e 02F80E40 		strb	r4, [r2, lr]
 728:fjol.cpp      ****       voicetrig[i] = 1;
 4483              		.loc 7 728 7 is_stmt 1 view .LVU1258
 728:fjol.cpp      ****       voicetrig[i] = 1;
 4484              		.loc 7 728 20 is_stmt 0 view .LVU1259
 4485 00a2 0122     		movs	r2, #1
 4486 00a4 05F80E20 		strb	r2, [r5, lr]
 729:fjol.cpp      ****       shiftvoices();
 4487              		.loc 7 729 7 is_stmt 1 view .LVU1260
 4488              	.LBB962:
 4489              	.LBI959:
 686:fjol.cpp      **** void shiftvoices()
 4490              		.loc 7 686 6 view .LVU1261
 4491              	.LBB961:
 688:fjol.cpp      ****   uint8_t temp;
 4492              		.loc 7 688 3 view .LVU1262
 689:fjol.cpp      ****   temp = voicehist[3];
 4493              		.loc 7 689 3 view .LVU1263
 4494              	.LVL255:
 690:fjol.cpp      ****   voicehist[3] = voicehist[2];
 4495              		.loc 7 690 3 view .LVU1264
 691:fjol.cpp      ****   voicehist[2] = voicehist[1];
 4496              		.loc 7 691 3 view .LVU1265
 692:fjol.cpp      ****   voicehist[1] = voicehist[0];
 4497              		.loc 7 692 3 view .LVU1266
 693:fjol.cpp      ****   voicehist[0] = temp;
 4498              		.loc 7 693 3 view .LVU1267
 693:fjol.cpp      ****   voicehist[0] = temp;
 4499              		.loc 7 693 3 is_stmt 0 view .LVU1268
 4500              	.LBE961:
 4501              	.LBE962:
 730:fjol.cpp      ****       voicefreqtarget[i] = freq_note;
 4502              		.loc 7 730 7 is_stmt 1 view .LVU1269
 731:fjol.cpp      ****       if(envelope[i].env.IsRunning())
 4503              		.loc 7 731 7 view .LVU1270
 4504              	.LBB963:
 4505              	.LBI954:
 4506              		.loc 14 79 17 view .LVU1271
 4507              	.LBB957:
 4508              		.loc 14 79 37 view .LVU1272
 4509              		.loc 14 79 37 is_stmt 0 view .LVU1273
 4510              	.LBE957:
ARM GAS  /tmp/ccxnfbgf.s 			page 130


 4511              	.LBE963:
 731:fjol.cpp      ****       if(envelope[i].env.IsRunning())
 4512              		.loc 7 731 7 view .LVU1274
 4513 00a8 93F82C20 		ldrb	r2, [r3, #44]	@ zero_extendqisi2
 4514 00ac 002A     		cmp	r2, #0
 4515 00ae D9D0     		beq	.L259
 733:fjol.cpp      ****         envelope[i].env.Retrigger(0);
 4516              		.loc 7 733 9 is_stmt 1 view .LVU1275
 733:fjol.cpp      ****         envelope[i].env.Retrigger(0);
 4517              		.loc 7 733 34 is_stmt 0 view .LVU1276
 4518 00b0 1846     		mov	r0, r3
 4519              	.LBE969:
 4520              		.loc 7 739 1 view .LVU1277
 4521 00b2 BDE83840 		pop	{r3, r4, r5, lr}
 4522              		.cfi_restore 14
 4523              		.cfi_restore 5
 4524              		.cfi_restore 4
 4525              		.cfi_restore 3
 4526              		.cfi_def_cfa_offset 0
 4527              	.LVL256:
 4528              	.LBB970:
 733:fjol.cpp      ****         envelope[i].env.Retrigger(0);
 4529              		.loc 7 733 34 view .LVU1278
 4530 00b6 FFF7FEBF 		b	_ZN7daisysp4Adsr9RetriggerEb
 4531              	.LVL257:
 4532              	.L272:
 733:fjol.cpp      ****         envelope[i].env.Retrigger(0);
 4533              		.loc 7 733 34 view .LVU1279
 4534 00ba 00BF     		.align	2
 4535              	.L271:
 4536 00bc 00008A42 		.word	1116340224
 4537 00c0 00000000 		.word	octave
 4538 00c4 00000000 		.word	octaveindex
 4539 00c8 00000000 		.word	gate_out
 4540 00cc 00000000 		.word	pbend
 4541 00d0 00000000 		.word	filtenv_trig
 4542 00d4 00000000 		.word	voicehist
 4543 00d8 00000000 		.word	voicetrig
 4544 00dc 0000DC43 		.word	1138491392
 4545 00e0 00000000 		.word	voicefreqtarget
 4546 00e4 00000000 		.word	.LANCHOR1
 4547 00e8 00000000 		.word	voicenote
 4548              	.LBE970:
 4549              		.cfi_endproc
 4550              	.LFE4836:
 4552              		.section	.text._ZN5daisy11MidiHandlerINS_17MidiUartTransportEE5ParseEh,"axG",%progbits,_ZN5daisy11
 4553              		.align	1
 4554              		.p2align 2,,3
 4555              		.weak	_ZN5daisy11MidiHandlerINS_17MidiUartTransportEE5ParseEh
 4556              		.syntax unified
 4557              		.thumb
 4558              		.thumb_func
 4560              	_ZN5daisy11MidiHandlerINS_17MidiUartTransportEE5ParseEh:
 4561              	.LVL258:
 4562              	.LFB5274:
  86:libDaisy/src/hid/midi.h **** 
  87:libDaisy/src/hid/midi.h ****     struct Config
ARM GAS  /tmp/ccxnfbgf.s 			page 131


  88:libDaisy/src/hid/midi.h ****     {
  89:libDaisy/src/hid/midi.h ****         typename Transport::Config transport_config;
  90:libDaisy/src/hid/midi.h ****     };
  91:libDaisy/src/hid/midi.h **** 
  92:libDaisy/src/hid/midi.h ****     /** Initializes the MidiHandler 
  93:libDaisy/src/hid/midi.h ****      *  \param config Configuration structure used to define specifics to the MIDI Handler.
  94:libDaisy/src/hid/midi.h ****      */
  95:libDaisy/src/hid/midi.h ****     void Init(Config config)
  96:libDaisy/src/hid/midi.h ****     {
  97:libDaisy/src/hid/midi.h ****         config_ = config;
  98:libDaisy/src/hid/midi.h **** 
  99:libDaisy/src/hid/midi.h ****         transport_.Init(config_.transport_config);
 100:libDaisy/src/hid/midi.h **** 
 101:libDaisy/src/hid/midi.h ****         event_q_.Init();
 102:libDaisy/src/hid/midi.h ****         incoming_message_.type = MessageLast;
 103:libDaisy/src/hid/midi.h ****         pstate_                = ParserEmpty;
 104:libDaisy/src/hid/midi.h ****     }
 105:libDaisy/src/hid/midi.h **** 
 106:libDaisy/src/hid/midi.h ****     /** Starts listening on the selected input mode(s). MidiEvent Queue will begin to fill, and can
 107:libDaisy/src/hid/midi.h ****     void StartReceive() { transport_.StartRx(); }
 108:libDaisy/src/hid/midi.h **** 
 109:libDaisy/src/hid/midi.h ****     /** Start listening */
 110:libDaisy/src/hid/midi.h ****     void Listen()
 111:libDaisy/src/hid/midi.h ****     {
 112:libDaisy/src/hid/midi.h ****         uint32_t now;
 113:libDaisy/src/hid/midi.h ****         now = System::GetNow();
 114:libDaisy/src/hid/midi.h ****         while(transport_.Readable())
 115:libDaisy/src/hid/midi.h ****         {
 116:libDaisy/src/hid/midi.h ****             last_read_ = now;
 117:libDaisy/src/hid/midi.h ****             Parse(transport_.Rx());
 118:libDaisy/src/hid/midi.h ****         }
 119:libDaisy/src/hid/midi.h **** 
 120:libDaisy/src/hid/midi.h ****         // In case of UART Error, (particularly
 121:libDaisy/src/hid/midi.h ****         //  overrun error), UART disables itself.
 122:libDaisy/src/hid/midi.h ****         // Flush the buff, and restart.
 123:libDaisy/src/hid/midi.h ****         if(!transport_.RxActive())
 124:libDaisy/src/hid/midi.h ****         {
 125:libDaisy/src/hid/midi.h ****             pstate_ = ParserEmpty;
 126:libDaisy/src/hid/midi.h ****             transport_.FlushRx();
 127:libDaisy/src/hid/midi.h ****             StartReceive();
 128:libDaisy/src/hid/midi.h ****         }
 129:libDaisy/src/hid/midi.h ****     }
 130:libDaisy/src/hid/midi.h **** 
 131:libDaisy/src/hid/midi.h ****     /** Checks if there are unhandled messages in the queue 
 132:libDaisy/src/hid/midi.h ****     \return True if there are events to be handled, else false.
 133:libDaisy/src/hid/midi.h ****      */
 134:libDaisy/src/hid/midi.h ****     bool HasEvents() const { return event_q_.readable(); }
 135:libDaisy/src/hid/midi.h **** 
 136:libDaisy/src/hid/midi.h **** 
 137:libDaisy/src/hid/midi.h ****     /** Pops the oldest unhandled MidiEvent from the internal queue
 138:libDaisy/src/hid/midi.h ****     \return The event to be handled
 139:libDaisy/src/hid/midi.h ****      */
 140:libDaisy/src/hid/midi.h ****     MidiEvent PopEvent() { return event_q_.Read(); }
 141:libDaisy/src/hid/midi.h **** 
 142:libDaisy/src/hid/midi.h ****     /** SendMessage
 143:libDaisy/src/hid/midi.h ****     Send raw bytes as message
 144:libDaisy/src/hid/midi.h ****     */
ARM GAS  /tmp/ccxnfbgf.s 			page 132


 145:libDaisy/src/hid/midi.h ****     void SendMessage(uint8_t* bytes, size_t size)
 146:libDaisy/src/hid/midi.h ****     {
 147:libDaisy/src/hid/midi.h ****         transport_.Tx(bytes, size);
 148:libDaisy/src/hid/midi.h ****     }
 149:libDaisy/src/hid/midi.h **** 
 150:libDaisy/src/hid/midi.h ****     /** Feed in bytes to state machine from a queue.
 151:libDaisy/src/hid/midi.h ****     Populates internal FIFO queue with MIDI Messages
 152:libDaisy/src/hid/midi.h ****     For example with uart:
 153:libDaisy/src/hid/midi.h ****     midi.Parse(uart.PopRx());
 154:libDaisy/src/hid/midi.h ****     \param byte &
 155:libDaisy/src/hid/midi.h ****     */
 156:libDaisy/src/hid/midi.h ****     void Parse(uint8_t byte)
 4563              		.loc 9 156 10 is_stmt 1 view -0
 4564              		.cfi_startproc
 4565              		@ args = 0, pretend = 0, frame = 288
 4566              		@ frame_needed = 0, uses_anonymous_args = 0
 4567              		.loc 9 156 10 is_stmt 0 view .LVU1281
 4568 0000 2DE9F041 		push	{r4, r5, r6, r7, r8, lr}
 4569              		.cfi_def_cfa_offset 24
 4570              		.cfi_offset 4, -24
 4571              		.cfi_offset 5, -20
 4572              		.cfi_offset 6, -16
 4573              		.cfi_offset 7, -12
 4574              		.cfi_offset 8, -8
 4575              		.cfi_offset 14, -4
 157:libDaisy/src/hid/midi.h ****     {
 158:libDaisy/src/hid/midi.h ****         // reset parser when status byte is received
 159:libDaisy/src/hid/midi.h ****         if((byte & kStatusByteMask) && pstate_ != ParserSysEx)
 4576              		.loc 9 159 20 view .LVU1282
 4577 0004 00F51044 		add	r4, r0, #36864
 156:libDaisy/src/hid/midi.h ****     {
 4578              		.loc 9 156 10 view .LVU1283
 4579 0008 C8B0     		sub	sp, sp, #288
 4580              		.cfi_def_cfa_offset 312
 156:libDaisy/src/hid/midi.h ****     {
 4581              		.loc 9 156 10 view .LVU1284
 4582 000a 0546     		mov	r5, r0
 4583              		.loc 9 159 18 view .LVU1285
 4584 000c 94F8B430 		ldrb	r3, [r4, #180]	@ zero_extendqisi2
 4585              		.loc 9 159 9 view .LVU1286
 4586 0010 1942     		tst	r1, r3
 4587              		.loc 9 159 37 view .LVU1287
 4588 0012 0379     		ldrb	r3, [r0, #4]	@ zero_extendqisi2
 4589              		.loc 9 159 9 view .LVU1288
 4590 0014 18D0     		beq	.L274
 4591              		.loc 9 159 37 discriminator 1 view .LVU1289
 4592 0016 032B     		cmp	r3, #3
 4593 0018 1CD0     		beq	.L275
 160:libDaisy/src/hid/midi.h ****         {
 161:libDaisy/src/hid/midi.h ****             pstate_ = ParserEmpty;
 4594              		.loc 9 161 21 view .LVU1290
 4595 001a 0022     		movs	r2, #0
 4596 001c 0271     		strb	r2, [r0, #4]
 162:libDaisy/src/hid/midi.h ****         }
 163:libDaisy/src/hid/midi.h ****         switch(pstate_)
 164:libDaisy/src/hid/midi.h ****         {
 165:libDaisy/src/hid/midi.h ****             case ParserEmpty:
ARM GAS  /tmp/ccxnfbgf.s 			page 133


 166:libDaisy/src/hid/midi.h ****                 // check byte for valid Status Byte
 167:libDaisy/src/hid/midi.h ****                 if(byte & kStatusByteMask)
 168:libDaisy/src/hid/midi.h ****                 {
 169:libDaisy/src/hid/midi.h ****                     // Get MessageType, and Channel
 170:libDaisy/src/hid/midi.h ****                     incoming_message_.channel = byte & kChannelMask;
 4597              		.loc 9 170 54 view .LVU1291
 4598 001e 94F8B830 		ldrb	r3, [r4, #184]	@ zero_extendqisi2
 4599 0022 0B40     		ands	r3, r3, r1
 4600 0024 C360     		str	r3, [r0, #12]
 171:libDaisy/src/hid/midi.h ****                     incoming_message_.type    = static_cast<MidiMessageType>(
 172:libDaisy/src/hid/midi.h ****                         (byte & kMessageMask) >> 4);
 4601              		.loc 9 172 31 view .LVU1292
 4602 0026 94F8B530 		ldrb	r3, [r4, #181]	@ zero_extendqisi2
 4603              		.loc 9 172 47 view .LVU1293
 4604 002a 0B40     		ands	r3, r3, r1
 4605 002c 1B09     		lsrs	r3, r3, #4
 173:libDaisy/src/hid/midi.h **** 
 174:libDaisy/src/hid/midi.h ****                     // Validate, and move on.
 175:libDaisy/src/hid/midi.h ****                     if(incoming_message_.type < MessageLast)
 4606              		.loc 9 175 21 view .LVU1294
 4607 002e 092B     		cmp	r3, #9
 171:libDaisy/src/hid/midi.h ****                     incoming_message_.type    = static_cast<MidiMessageType>(
 4608              		.loc 9 171 47 view .LVU1295
 4609 0030 0372     		strb	r3, [r0, #8]
 4610              		.loc 9 175 21 view .LVU1296
 4611 0032 06D8     		bhi	.L273
 176:libDaisy/src/hid/midi.h ****                     {
 177:libDaisy/src/hid/midi.h ****                         pstate_ = ParserHasStatus;
 4612              		.loc 9 177 33 view .LVU1297
 4613 0034 0120     		movs	r0, #1
 4614              	.LVL259:
 178:libDaisy/src/hid/midi.h ****                         // Mark this status byte as running_status
 179:libDaisy/src/hid/midi.h ****                         running_status_ = incoming_message_.type;
 180:libDaisy/src/hid/midi.h **** 
 181:libDaisy/src/hid/midi.h ****                         if(running_status_ == SystemCommon)
 4615              		.loc 9 181 25 view .LVU1298
 4616 0036 072B     		cmp	r3, #7
 177:libDaisy/src/hid/midi.h ****                         // Mark this status byte as running_status
 4617              		.loc 9 177 33 view .LVU1299
 4618 0038 2871     		strb	r0, [r5, #4]
 179:libDaisy/src/hid/midi.h **** 
 4619              		.loc 9 179 41 view .LVU1300
 4620 003a 84F8A430 		strb	r3, [r4, #164]
 4621              		.loc 9 181 25 view .LVU1301
 4622 003e 00F0E880 		beq	.L331
 4623              	.LVL260:
 4624              	.L273:
 182:libDaisy/src/hid/midi.h ****                         {
 183:libDaisy/src/hid/midi.h ****                             incoming_message_.channel = 0;
 184:libDaisy/src/hid/midi.h ****                             //system real time = 1111 1xxx
 185:libDaisy/src/hid/midi.h ****                             if(byte & 0x08)
 186:libDaisy/src/hid/midi.h ****                             {
 187:libDaisy/src/hid/midi.h ****                                 incoming_message_.type = SystemRealTime;
 188:libDaisy/src/hid/midi.h ****                                 running_status_        = SystemRealTime;
 189:libDaisy/src/hid/midi.h ****                                 incoming_message_.srt_type
 190:libDaisy/src/hid/midi.h ****                                     = static_cast<SystemRealTimeType>(
 191:libDaisy/src/hid/midi.h ****                                         byte & kSystemRealTimeMask);
ARM GAS  /tmp/ccxnfbgf.s 			page 134


 192:libDaisy/src/hid/midi.h **** 
 193:libDaisy/src/hid/midi.h ****                                 //short circuit to start
 194:libDaisy/src/hid/midi.h ****                                 pstate_ = ParserEmpty;
 195:libDaisy/src/hid/midi.h ****                                 event_q_.Write(incoming_message_);
 196:libDaisy/src/hid/midi.h ****                             }
 197:libDaisy/src/hid/midi.h ****                             //system common
 198:libDaisy/src/hid/midi.h ****                             else
 199:libDaisy/src/hid/midi.h ****                             {
 200:libDaisy/src/hid/midi.h ****                                 incoming_message_.sc_type
 201:libDaisy/src/hid/midi.h ****                                     = static_cast<SystemCommonType>(byte
 202:libDaisy/src/hid/midi.h ****                                                                     & 0x07);
 203:libDaisy/src/hid/midi.h ****                                 //sysex
 204:libDaisy/src/hid/midi.h ****                                 if(incoming_message_.sc_type == SystemExclusive)
 205:libDaisy/src/hid/midi.h ****                                 {
 206:libDaisy/src/hid/midi.h ****                                     pstate_ = ParserSysEx;
 207:libDaisy/src/hid/midi.h ****                                     incoming_message_.sysex_message_len = 0;
 208:libDaisy/src/hid/midi.h ****                                 }
 209:libDaisy/src/hid/midi.h ****                                 //short circuit
 210:libDaisy/src/hid/midi.h ****                                 else if(incoming_message_.sc_type > SongSelect)
 211:libDaisy/src/hid/midi.h ****                                 {
 212:libDaisy/src/hid/midi.h ****                                     pstate_ = ParserEmpty;
 213:libDaisy/src/hid/midi.h ****                                     event_q_.Write(incoming_message_);
 214:libDaisy/src/hid/midi.h ****                                 }
 215:libDaisy/src/hid/midi.h ****                             }
 216:libDaisy/src/hid/midi.h ****                         }
 217:libDaisy/src/hid/midi.h ****                     }
 218:libDaisy/src/hid/midi.h ****                     // Else we'll keep waiting for a valid incoming status byte
 219:libDaisy/src/hid/midi.h ****                 }
 220:libDaisy/src/hid/midi.h ****                 else
 221:libDaisy/src/hid/midi.h ****                 {
 222:libDaisy/src/hid/midi.h ****                     // Handle as running status
 223:libDaisy/src/hid/midi.h ****                     incoming_message_.type    = running_status_;
 224:libDaisy/src/hid/midi.h ****                     incoming_message_.data[0] = byte & kDataByteMask;
 225:libDaisy/src/hid/midi.h ****                     //check for single byte running status, really this only applies to channel pre
 226:libDaisy/src/hid/midi.h ****                     if(running_status_ == ChannelPressure
 227:libDaisy/src/hid/midi.h ****                        || running_status_ == ProgramChange
 228:libDaisy/src/hid/midi.h ****                        || incoming_message_.sc_type == MTCQuarterFrame
 229:libDaisy/src/hid/midi.h ****                        || incoming_message_.sc_type == SongSelect)
 230:libDaisy/src/hid/midi.h ****                     {
 231:libDaisy/src/hid/midi.h ****                         //Send the single byte update
 232:libDaisy/src/hid/midi.h ****                         pstate_ = ParserEmpty;
 233:libDaisy/src/hid/midi.h ****                         event_q_.Write(incoming_message_);
 234:libDaisy/src/hid/midi.h ****                     }
 235:libDaisy/src/hid/midi.h ****                     else
 236:libDaisy/src/hid/midi.h ****                     {
 237:libDaisy/src/hid/midi.h ****                         pstate_
 238:libDaisy/src/hid/midi.h ****                             = ParserHasData0; //we need to get the 2nd byte yet.
 239:libDaisy/src/hid/midi.h ****                     }
 240:libDaisy/src/hid/midi.h ****                 }
 241:libDaisy/src/hid/midi.h ****                 break;
 242:libDaisy/src/hid/midi.h ****             case ParserHasStatus:
 243:libDaisy/src/hid/midi.h ****                 if((byte & kStatusByteMask) == 0)
 244:libDaisy/src/hid/midi.h ****                 {
 245:libDaisy/src/hid/midi.h ****                     incoming_message_.data[0] = byte & kDataByteMask;
 246:libDaisy/src/hid/midi.h ****                     if(running_status_ == ChannelPressure
 247:libDaisy/src/hid/midi.h ****                        || running_status_ == ProgramChange
 248:libDaisy/src/hid/midi.h ****                        || incoming_message_.sc_type == MTCQuarterFrame
ARM GAS  /tmp/ccxnfbgf.s 			page 135


 249:libDaisy/src/hid/midi.h ****                        || incoming_message_.sc_type == SongSelect)
 250:libDaisy/src/hid/midi.h ****                     {
 251:libDaisy/src/hid/midi.h ****                         //these are just one data byte, so we short circuit back to start
 252:libDaisy/src/hid/midi.h ****                         pstate_ = ParserEmpty;
 253:libDaisy/src/hid/midi.h ****                         event_q_.Write(incoming_message_);
 254:libDaisy/src/hid/midi.h ****                     }
 255:libDaisy/src/hid/midi.h ****                     else
 256:libDaisy/src/hid/midi.h ****                     {
 257:libDaisy/src/hid/midi.h ****                         pstate_ = ParserHasData0;
 258:libDaisy/src/hid/midi.h ****                     }
 259:libDaisy/src/hid/midi.h **** 
 260:libDaisy/src/hid/midi.h ****                     //ChannelModeMessages (reserved Control Changes)
 261:libDaisy/src/hid/midi.h ****                     if(running_status_ == ControlChange
 262:libDaisy/src/hid/midi.h ****                        && incoming_message_.data[0] > 119)
 263:libDaisy/src/hid/midi.h ****                     {
 264:libDaisy/src/hid/midi.h ****                         incoming_message_.type = ChannelMode;
 265:libDaisy/src/hid/midi.h ****                         running_status_        = ChannelMode;
 266:libDaisy/src/hid/midi.h ****                         incoming_message_.cm_type
 267:libDaisy/src/hid/midi.h ****                             = static_cast<ChannelModeType>(
 268:libDaisy/src/hid/midi.h ****                                 incoming_message_.data[0] - 120);
 269:libDaisy/src/hid/midi.h ****                     }
 270:libDaisy/src/hid/midi.h ****                 }
 271:libDaisy/src/hid/midi.h ****                 else
 272:libDaisy/src/hid/midi.h ****                 {
 273:libDaisy/src/hid/midi.h ****                     // invalid message go back to start ;p
 274:libDaisy/src/hid/midi.h ****                     pstate_ = ParserEmpty;
 275:libDaisy/src/hid/midi.h ****                 }
 276:libDaisy/src/hid/midi.h ****                 break;
 277:libDaisy/src/hid/midi.h ****             case ParserHasData0:
 278:libDaisy/src/hid/midi.h ****                 if((byte & kStatusByteMask) == 0)
 279:libDaisy/src/hid/midi.h ****                 {
 280:libDaisy/src/hid/midi.h ****                     incoming_message_.data[1] = byte & kDataByteMask;
 281:libDaisy/src/hid/midi.h **** 
 282:libDaisy/src/hid/midi.h ****                     //velocity 0 NoteOns are NoteOffs
 283:libDaisy/src/hid/midi.h ****                     if(running_status_ == NoteOn
 284:libDaisy/src/hid/midi.h ****                        && incoming_message_.data[1] == 0)
 285:libDaisy/src/hid/midi.h ****                     {
 286:libDaisy/src/hid/midi.h ****                         incoming_message_.type = NoteOff;
 287:libDaisy/src/hid/midi.h ****                     }
 288:libDaisy/src/hid/midi.h **** 
 289:libDaisy/src/hid/midi.h ****                     // At this point the message is valid, and we can add this MidiEvent to the que
 290:libDaisy/src/hid/midi.h ****                     event_q_.Write(incoming_message_);
 291:libDaisy/src/hid/midi.h ****                 }
 292:libDaisy/src/hid/midi.h ****                 else
 293:libDaisy/src/hid/midi.h ****                 {
 294:libDaisy/src/hid/midi.h ****                     // invalid message go back to start ;p
 295:libDaisy/src/hid/midi.h ****                     pstate_ = ParserEmpty;
 296:libDaisy/src/hid/midi.h ****                 }
 297:libDaisy/src/hid/midi.h ****                 // Regardless, of whether the data was valid or not we go back to empty
 298:libDaisy/src/hid/midi.h ****                 // because either the message is queued for handling or its not.
 299:libDaisy/src/hid/midi.h ****                 pstate_ = ParserEmpty;
 300:libDaisy/src/hid/midi.h ****                 break;
 301:libDaisy/src/hid/midi.h ****             case ParserSysEx:
 302:libDaisy/src/hid/midi.h ****                 // end of sysex
 303:libDaisy/src/hid/midi.h ****                 if(byte == 0xf7)
 304:libDaisy/src/hid/midi.h ****                 {
 305:libDaisy/src/hid/midi.h ****                     pstate_ = ParserEmpty;
ARM GAS  /tmp/ccxnfbgf.s 			page 136


 306:libDaisy/src/hid/midi.h ****                     event_q_.Write(incoming_message_);
 307:libDaisy/src/hid/midi.h ****                 }
 308:libDaisy/src/hid/midi.h ****                 else if(incoming_message_.sysex_message_len < SYSEX_BUFFER_LEN)
 309:libDaisy/src/hid/midi.h ****                 {
 310:libDaisy/src/hid/midi.h ****                     incoming_message_
 311:libDaisy/src/hid/midi.h ****                         .sysex_data[incoming_message_.sysex_message_len]
 312:libDaisy/src/hid/midi.h ****                         = byte;
 313:libDaisy/src/hid/midi.h ****                     incoming_message_.sysex_message_len++;
 314:libDaisy/src/hid/midi.h ****                 }
 315:libDaisy/src/hid/midi.h ****                 break;
 316:libDaisy/src/hid/midi.h ****             default: break;
 317:libDaisy/src/hid/midi.h ****         }
 318:libDaisy/src/hid/midi.h ****     }
 4625              		.loc 9 318 5 view .LVU1302
 4626 0042 48B0     		add	sp, sp, #288
 4627              		.cfi_remember_state
 4628              		.cfi_def_cfa_offset 24
 4629              		@ sp needed
 4630 0044 BDE8F081 		pop	{r4, r5, r6, r7, r8, pc}
 4631              	.LVL261:
 4632              	.L274:
 4633              		.cfi_restore_state
 163:libDaisy/src/hid/midi.h ****         {
 4634              		.loc 9 163 9 view .LVU1303
 4635 0048 032B     		cmp	r3, #3
 4636 004a FAD8     		bhi	.L273
 4637 004c DFE803F0 		tbb	[pc, r3]
 4638              	.L297:
 4639 0050 8D       		.byte	(.L283-.L297)/2
 4640 0051 11       		.byte	(.L287-.L297)/2
 4641 0052 58       		.byte	(.L292-.L297)/2
 4642 0053 02       		.byte	(.L275-.L297)/2
 4643              		.p2align 1
 4644              	.L275:
 303:libDaisy/src/hid/midi.h ****                 {
 4645              		.loc 9 303 17 view .LVU1304
 4646 0054 F729     		cmp	r1, #247
 4647 0056 00F0C380 		beq	.L332
 308:libDaisy/src/hid/midi.h ****                 {
 4648              		.loc 9 308 22 view .LVU1305
 4649 005a 95F99220 		ldrsb	r2, [r5, #146]
 308:libDaisy/src/hid/midi.h ****                 {
 4650              		.loc 9 308 43 view .LVU1306
 4651 005e 95F89230 		ldrb	r3, [r5, #146]	@ zero_extendqisi2
 308:libDaisy/src/hid/midi.h ****                 {
 4652              		.loc 9 308 22 view .LVU1307
 4653 0062 002A     		cmp	r2, #0
 4654 0064 EDDB     		blt	.L273
 312:libDaisy/src/hid/midi.h ****                     incoming_message_.sysex_message_len++;
 4655              		.loc 9 312 25 view .LVU1308
 4656 0066 EA18     		adds	r2, r5, r3
 313:libDaisy/src/hid/midi.h ****                 }
 4657              		.loc 9 313 21 view .LVU1309
 4658 0068 0133     		adds	r3, r3, #1
 312:libDaisy/src/hid/midi.h ****                     incoming_message_.sysex_message_len++;
 4659              		.loc 9 312 25 view .LVU1310
 4660 006a 9174     		strb	r1, [r2, #18]
ARM GAS  /tmp/ccxnfbgf.s 			page 137


 313:libDaisy/src/hid/midi.h ****                 }
 4661              		.loc 9 313 21 view .LVU1311
 4662 006c 85F89230 		strb	r3, [r5, #146]
 4663              		.loc 9 318 5 view .LVU1312
 4664 0070 E7E7     		b	.L273
 4665              	.L287:
 245:libDaisy/src/hid/midi.h ****                     if(running_status_ == ChannelPressure
 4666              		.loc 9 245 54 view .LVU1313
 4667 0072 94F8B680 		ldrb	r8, [r4, #182]	@ zero_extendqisi2
 4668 0076 01EA0808 		and	r8, r1, r8
 245:libDaisy/src/hid/midi.h ****                     if(running_status_ == ChannelPressure
 4669              		.loc 9 245 47 view .LVU1314
 4670 007a 85F81080 		strb	r8, [r5, #16]
 246:libDaisy/src/hid/midi.h ****                        || running_status_ == ProgramChange
 4671              		.loc 9 246 24 view .LVU1315
 4672 007e 94F8A470 		ldrb	r7, [r4, #164]	@ zero_extendqisi2
 246:libDaisy/src/hid/midi.h ****                        || running_status_ == ProgramChange
 4673              		.loc 9 246 21 view .LVU1316
 4674 0082 3B1F     		subs	r3, r7, #4
 4675 0084 012B     		cmp	r3, #1
 4676 0086 06D9     		bls	.L288
 248:libDaisy/src/hid/midi.h ****                        || incoming_message_.sc_type == SongSelect)
 4677              		.loc 9 248 24 view .LVU1317
 4678 0088 95F89330 		ldrb	r3, [r5, #147]	@ zero_extendqisi2
 249:libDaisy/src/hid/midi.h ****                     {
 4679              		.loc 9 249 24 view .LVU1318
 4680 008c 03F0FD03 		and	r3, r3, #253
 4681 0090 012B     		cmp	r3, #1
 4682 0092 40F0BB80 		bne	.L289
 4683              	.L288:
 252:libDaisy/src/hid/midi.h ****                         event_q_.Write(incoming_message_);
 4684              		.loc 9 252 33 view .LVU1319
 4685 0096 0023     		movs	r3, #0
 4686 0098 6E46     		mov	r6, sp
 4687 009a 9022     		movs	r2, #144
 4688 009c 05F10801 		add	r1, r5, #8
 4689              	.LVL262:
 252:libDaisy/src/hid/midi.h ****                         event_q_.Write(incoming_message_);
 4690              		.loc 9 252 33 view .LVU1320
 4691 00a0 3046     		mov	r0, r6
 4692              	.LVL263:
 252:libDaisy/src/hid/midi.h ****                         event_q_.Write(incoming_message_);
 4693              		.loc 9 252 33 view .LVU1321
 4694 00a2 2B71     		strb	r3, [r5, #4]
 4695              	.LVL264:
 252:libDaisy/src/hid/midi.h ****                         event_q_.Write(incoming_message_);
 4696              		.loc 9 252 33 view .LVU1322
 4697 00a4 FFF7FEFF 		bl	memcpy
 4698              	.LVL265:
 4699              	.LBB1007:
 4700              	.LBI1007:
 4701              		.file 17 "libDaisy/src/util/ringbuffer.h"
   1:libDaisy/src/util/ringbuffer.h **** #pragma once
   2:libDaisy/src/util/ringbuffer.h **** #ifndef DSY_RINGBUFFER_H
   3:libDaisy/src/util/ringbuffer.h **** #define DSY_RINGBUFFER_H
   4:libDaisy/src/util/ringbuffer.h **** 
   5:libDaisy/src/util/ringbuffer.h **** #include <algorithm>
ARM GAS  /tmp/ccxnfbgf.s 			page 138


   6:libDaisy/src/util/ringbuffer.h **** 
   7:libDaisy/src/util/ringbuffer.h **** namespace daisy
   8:libDaisy/src/util/ringbuffer.h **** {
   9:libDaisy/src/util/ringbuffer.h **** /** @addtogroup utility
  10:libDaisy/src/util/ringbuffer.h ****     @{
  11:libDaisy/src/util/ringbuffer.h **** */
  12:libDaisy/src/util/ringbuffer.h **** 
  13:libDaisy/src/util/ringbuffer.h **** /**
  14:libDaisy/src/util/ringbuffer.h **** Utility Ring Buffer \n 
  15:libDaisy/src/util/ringbuffer.h **** imported from pichenettes/stmlib
  16:libDaisy/src/util/ringbuffer.h **** */
  17:libDaisy/src/util/ringbuffer.h **** template <typename T, size_t size>
  18:libDaisy/src/util/ringbuffer.h **** class RingBuffer
  19:libDaisy/src/util/ringbuffer.h **** {
  20:libDaisy/src/util/ringbuffer.h ****   public:
  21:libDaisy/src/util/ringbuffer.h ****     RingBuffer() {}
  22:libDaisy/src/util/ringbuffer.h **** 
  23:libDaisy/src/util/ringbuffer.h ****     /** Initializes the Ring Buffer */
  24:libDaisy/src/util/ringbuffer.h ****     inline void Init() { read_ptr_ = write_ptr_ = 0; }
  25:libDaisy/src/util/ringbuffer.h **** 
  26:libDaisy/src/util/ringbuffer.h ****     /** \return The total size of the ring buffer */
  27:libDaisy/src/util/ringbuffer.h ****     inline size_t capacity() const { return size; }
  28:libDaisy/src/util/ringbuffer.h **** 
  29:libDaisy/src/util/ringbuffer.h ****     /** \return the number of samples that can be written to ring buffer without overwriting unread
  30:libDaisy/src/util/ringbuffer.h ****     inline size_t writable() const
  31:libDaisy/src/util/ringbuffer.h ****     {
  32:libDaisy/src/util/ringbuffer.h ****         return (read_ptr_ - write_ptr_ - 1) % size;
  33:libDaisy/src/util/ringbuffer.h ****     }
  34:libDaisy/src/util/ringbuffer.h **** 
  35:libDaisy/src/util/ringbuffer.h ****     /** \return number of unread elements in ring buffer */
  36:libDaisy/src/util/ringbuffer.h ****     inline size_t readable() const { return (write_ptr_ - read_ptr_) % size; }
  37:libDaisy/src/util/ringbuffer.h **** 
  38:libDaisy/src/util/ringbuffer.h ****     /** \returns True, if the buffer is empty. */
  39:libDaisy/src/util/ringbuffer.h ****     inline bool isEmpty() const { return write_ptr_ == read_ptr_; }
  40:libDaisy/src/util/ringbuffer.h **** 
  41:libDaisy/src/util/ringbuffer.h ****     /** Writes the value to the next available position in the ring buffer
  42:libDaisy/src/util/ringbuffer.h ****     \param v Value to write
  43:libDaisy/src/util/ringbuffer.h ****     */
  44:libDaisy/src/util/ringbuffer.h ****     inline void Write(T v)
 4702              		.loc 17 44 17 is_stmt 1 view .LVU1323
 4703              	.L290:
 4704              	.LBB1008:
  45:libDaisy/src/util/ringbuffer.h ****     {
  46:libDaisy/src/util/ringbuffer.h ****         while(!writable())
 4705              		.loc 17 46 24 view .LVU1324
 4706              	.LBB1009:
 4707              	.LBI1009:
  30:libDaisy/src/util/ringbuffer.h ****     {
 4708              		.loc 17 30 19 view .LVU1325
 4709              	.LBB1010:
  32:libDaisy/src/util/ringbuffer.h ****     }
 4710              		.loc 17 32 17 is_stmt 0 view .LVU1326
 4711 00a8 D4F89830 		ldr	r3, [r4, #152]
  32:libDaisy/src/util/ringbuffer.h ****     }
 4712              		.loc 17 32 29 view .LVU1327
 4713 00ac D4F89C20 		ldr	r2, [r4, #156]
 4714              	.LVL266:
ARM GAS  /tmp/ccxnfbgf.s 			page 139


  32:libDaisy/src/util/ringbuffer.h ****     }
 4715              		.loc 17 32 40 view .LVU1328
 4716 00b0 013B     		subs	r3, r3, #1
 4717 00b2 9B1A     		subs	r3, r3, r2
  32:libDaisy/src/util/ringbuffer.h ****     }
 4718              		.loc 17 32 47 view .LVU1329
 4719 00b4 DBB2     		uxtb	r3, r3
 4720              	.LBE1010:
 4721              	.LBE1009:
 4722              		.loc 17 46 24 view .LVU1330
 4723 00b6 002B     		cmp	r3, #0
 4724 00b8 F6D0     		beq	.L290
 4725              	.LVL267:
 4726              		.loc 17 46 24 view .LVU1331
 4727 00ba 9022     		movs	r2, #144
 4728 00bc 3146     		mov	r1, r6
 4729 00be 0DEB0200 		add	r0, sp, r2
 4730 00c2 FFF7FEFF 		bl	memcpy
 4731              	.LVL268:
 4732              	.LBB1011:
 4733              	.LBI1011:
  47:libDaisy/src/util/ringbuffer.h ****             ;
  48:libDaisy/src/util/ringbuffer.h ****         Overwrite(v);
  49:libDaisy/src/util/ringbuffer.h ****     }
  50:libDaisy/src/util/ringbuffer.h **** 
  51:libDaisy/src/util/ringbuffer.h ****     /** Writes the new element to the ring buffer, overwriting unread data if necessary. 
  52:libDaisy/src/util/ringbuffer.h ****     \param v Value to overwrite
  53:libDaisy/src/util/ringbuffer.h ****      */
  54:libDaisy/src/util/ringbuffer.h ****     inline void Overwrite(T v)
 4734              		.loc 17 54 17 is_stmt 1 view .LVU1332
 4735              	.LBB1012:
  55:libDaisy/src/util/ringbuffer.h ****     {
  56:libDaisy/src/util/ringbuffer.h ****         size_t w   = write_ptr_;
 4736              		.loc 17 56 16 is_stmt 0 view .LVU1333
 4737 00c6 D4F89C60 		ldr	r6, [r4, #156]
 4738              	.LVL269:
  57:libDaisy/src/util/ringbuffer.h ****         buffer_[w] = v;
 4739              		.loc 17 57 9 view .LVU1334
 4740 00ca 24A9     		add	r1, sp, #144
 4741 00cc 9022     		movs	r2, #144
 4742 00ce 06EBC600 		add	r0, r6, r6, lsl #3
  58:libDaisy/src/util/ringbuffer.h ****         write_ptr_ = (w + 1) % size;
 4743              		.loc 17 58 25 view .LVU1335
 4744 00d2 0136     		adds	r6, r6, #1
 4745              	.LVL270:
  57:libDaisy/src/util/ringbuffer.h ****         buffer_[w] = v;
 4746              		.loc 17 57 9 view .LVU1336
 4747 00d4 05EB0010 		add	r0, r5, r0, lsl #4
 4748              		.loc 17 58 30 view .LVU1337
 4749 00d8 F6B2     		uxtb	r6, r6
 4750              	.LVL271:
  57:libDaisy/src/util/ringbuffer.h ****         buffer_[w] = v;
 4751              		.loc 17 57 9 view .LVU1338
 4752 00da 9830     		adds	r0, r0, #152
 4753 00dc FFF7FEFF 		bl	memcpy
 4754              	.LVL272:
 4755              		.loc 17 58 20 view .LVU1339
ARM GAS  /tmp/ccxnfbgf.s 			page 140


 4756 00e0 C4F89C60 		str	r6, [r4, #156]
 4757              	.LVL273:
 4758              	.L291:
 4759              		.loc 17 58 20 view .LVU1340
 4760              	.LBE1012:
 4761              	.LBE1011:
 4762              	.LBE1008:
 4763              	.LBE1007:
 262:libDaisy/src/hid/midi.h ****                     {
 4764              		.loc 9 262 24 view .LVU1341
 4765 00e4 B8F1770F 		cmp	r8, #119
 4766 00e8 ABD9     		bls	.L273
 4767 00ea 032F     		cmp	r7, #3
 4768 00ec A9D1     		bne	.L273
 264:libDaisy/src/hid/midi.h ****                         running_status_        = ChannelMode;
 4769              		.loc 9 264 48 view .LVU1342
 4770 00ee 0923     		movs	r3, #9
 268:libDaisy/src/hid/midi.h ****                     }
 4771              		.loc 9 268 59 view .LVU1343
 4772 00f0 A8F17801 		sub	r1, r8, #120
 264:libDaisy/src/hid/midi.h ****                         running_status_        = ChannelMode;
 4773              		.loc 9 264 48 view .LVU1344
 4774 00f4 2B72     		strb	r3, [r5, #8]
 265:libDaisy/src/hid/midi.h ****                         incoming_message_.cm_type
 4775              		.loc 9 265 48 view .LVU1345
 4776 00f6 84F8A430 		strb	r3, [r4, #164]
 267:libDaisy/src/hid/midi.h ****                                 incoming_message_.data[0] - 120);
 4777              		.loc 9 267 29 view .LVU1346
 4778 00fa 85F89510 		strb	r1, [r5, #149]
 4779 00fe A0E7     		b	.L273
 4780              	.LVL274:
 4781              	.L292:
 280:libDaisy/src/hid/midi.h **** 
 4782              		.loc 9 280 54 view .LVU1347
 4783 0100 94F8B630 		ldrb	r3, [r4, #182]	@ zero_extendqisi2
 4784 0104 1940     		ands	r1, r1, r3
 4785              	.LVL275:
 280:libDaisy/src/hid/midi.h **** 
 4786              		.loc 9 280 47 view .LVU1348
 4787 0106 6974     		strb	r1, [r5, #17]
 283:libDaisy/src/hid/midi.h ****                        && incoming_message_.data[1] == 0)
 4788              		.loc 9 283 21 view .LVU1349
 4789 0108 94F8A430 		ldrb	r3, [r4, #164]	@ zero_extendqisi2
 284:libDaisy/src/hid/midi.h ****                     {
 4790              		.loc 9 284 24 view .LVU1350
 4791 010c 012B     		cmp	r3, #1
 4792 010e 02D1     		bne	.L293
 4793 0110 0029     		cmp	r1, #0
 4794 0112 00F08C80 		beq	.L333
 4795              	.L293:
 4796              	.LVL276:
 284:libDaisy/src/hid/midi.h ****                     {
 4797              		.loc 9 284 24 view .LVU1351
 4798 0116 6E46     		mov	r6, sp
 4799 0118 9022     		movs	r2, #144
 4800 011a 05F10801 		add	r1, r5, #8
 4801 011e 3046     		mov	r0, r6
ARM GAS  /tmp/ccxnfbgf.s 			page 141


 4802              	.LVL277:
 284:libDaisy/src/hid/midi.h ****                     {
 4803              		.loc 9 284 24 view .LVU1352
 4804 0120 FFF7FEFF 		bl	memcpy
 4805              	.LVL278:
 4806              	.LBB1013:
 4807              	.LBI1013:
  44:libDaisy/src/util/ringbuffer.h ****     {
 4808              		.loc 17 44 17 is_stmt 1 view .LVU1353
 4809              	.L294:
 4810              	.LBB1014:
  46:libDaisy/src/util/ringbuffer.h ****             ;
 4811              		.loc 17 46 24 view .LVU1354
 4812              	.LBB1015:
 4813              	.LBI1015:
  30:libDaisy/src/util/ringbuffer.h ****     {
 4814              		.loc 17 30 19 view .LVU1355
 4815              	.LBB1016:
  32:libDaisy/src/util/ringbuffer.h ****     }
 4816              		.loc 17 32 17 is_stmt 0 view .LVU1356
 4817 0124 D4F89830 		ldr	r3, [r4, #152]
  32:libDaisy/src/util/ringbuffer.h ****     }
 4818              		.loc 17 32 29 view .LVU1357
 4819 0128 D4F89C20 		ldr	r2, [r4, #156]
 4820              	.LVL279:
  32:libDaisy/src/util/ringbuffer.h ****     }
 4821              		.loc 17 32 40 view .LVU1358
 4822 012c 013B     		subs	r3, r3, #1
 4823 012e 9B1A     		subs	r3, r3, r2
  32:libDaisy/src/util/ringbuffer.h ****     }
 4824              		.loc 17 32 47 view .LVU1359
 4825 0130 DBB2     		uxtb	r3, r3
 4826              	.LBE1016:
 4827              	.LBE1015:
  46:libDaisy/src/util/ringbuffer.h ****             ;
 4828              		.loc 17 46 24 view .LVU1360
 4829 0132 002B     		cmp	r3, #0
 4830 0134 F6D0     		beq	.L294
 4831              	.LVL280:
  46:libDaisy/src/util/ringbuffer.h ****             ;
 4832              		.loc 17 46 24 view .LVU1361
 4833 0136 9022     		movs	r2, #144
 4834 0138 3146     		mov	r1, r6
 4835 013a 0DEB0200 		add	r0, sp, r2
 4836 013e FFF7FEFF 		bl	memcpy
 4837              	.LVL281:
 4838              	.LBB1017:
 4839              	.LBI1017:
  54:libDaisy/src/util/ringbuffer.h ****     {
 4840              		.loc 17 54 17 is_stmt 1 view .LVU1362
 4841              	.LBB1018:
  56:libDaisy/src/util/ringbuffer.h ****         buffer_[w] = v;
 4842              		.loc 17 56 16 is_stmt 0 view .LVU1363
 4843 0142 D4F89C60 		ldr	r6, [r4, #156]
 4844              	.LVL282:
  57:libDaisy/src/util/ringbuffer.h ****         write_ptr_ = (w + 1) % size;
 4845              		.loc 17 57 9 view .LVU1364
ARM GAS  /tmp/ccxnfbgf.s 			page 142


 4846 0146 24A9     		add	r1, sp, #144
 4847 0148 9022     		movs	r2, #144
 4848 014a 06EBC600 		add	r0, r6, r6, lsl #3
 4849              		.loc 17 58 25 view .LVU1365
 4850 014e 0136     		adds	r6, r6, #1
 4851              	.LVL283:
  57:libDaisy/src/util/ringbuffer.h ****         write_ptr_ = (w + 1) % size;
 4852              		.loc 17 57 9 view .LVU1366
 4853 0150 05EB0010 		add	r0, r5, r0, lsl #4
 4854              		.loc 17 58 30 view .LVU1367
 4855 0154 F6B2     		uxtb	r6, r6
 4856              	.LVL284:
  57:libDaisy/src/util/ringbuffer.h ****         write_ptr_ = (w + 1) % size;
 4857              		.loc 17 57 9 view .LVU1368
 4858 0156 9830     		adds	r0, r0, #152
 4859 0158 FFF7FEFF 		bl	memcpy
 4860              	.LVL285:
 4861              	.LBE1018:
 4862              	.LBE1017:
 4863              	.LBE1014:
 4864              	.LBE1013:
 299:libDaisy/src/hid/midi.h ****                 break;
 4865              		.loc 9 299 25 view .LVU1369
 4866 015c 0023     		movs	r3, #0
 4867              	.LBB1022:
 4868              	.LBB1021:
 4869              	.LBB1020:
 4870              	.LBB1019:
 4871              		.loc 17 58 20 view .LVU1370
 4872 015e C4F89C60 		str	r6, [r4, #156]
 4873              	.LVL286:
 4874              		.loc 17 58 20 view .LVU1371
 4875              	.LBE1019:
 4876              	.LBE1020:
 4877              	.LBE1021:
 4878              	.LBE1022:
 299:libDaisy/src/hid/midi.h ****                 break;
 4879              		.loc 9 299 25 view .LVU1372
 4880 0162 2B71     		strb	r3, [r5, #4]
 4881              		.loc 9 318 5 view .LVU1373
 4882 0164 48B0     		add	sp, sp, #288
 4883              		.cfi_remember_state
 4884              		.cfi_def_cfa_offset 24
 4885              		@ sp needed
 4886 0166 BDE8F081 		pop	{r4, r5, r6, r7, r8, pc}
 4887              	.LVL287:
 4888              	.L283:
 4889              		.cfi_restore_state
 223:libDaisy/src/hid/midi.h ****                     incoming_message_.data[0] = byte & kDataByteMask;
 4890              		.loc 9 223 49 view .LVU1374
 4891 016a 94F8A430 		ldrb	r3, [r4, #164]	@ zero_extendqisi2
 223:libDaisy/src/hid/midi.h ****                     incoming_message_.data[0] = byte & kDataByteMask;
 4892              		.loc 9 223 47 view .LVU1375
 4893 016e 2B72     		strb	r3, [r5, #8]
 226:libDaisy/src/hid/midi.h ****                        || running_status_ == ProgramChange
 4894              		.loc 9 226 21 view .LVU1376
 4895 0170 043B     		subs	r3, r3, #4
ARM GAS  /tmp/ccxnfbgf.s 			page 143


 224:libDaisy/src/hid/midi.h ****                     //check for single byte running status, really this only applies to channel pre
 4896              		.loc 9 224 54 view .LVU1377
 4897 0172 94F8B620 		ldrb	r2, [r4, #182]	@ zero_extendqisi2
 226:libDaisy/src/hid/midi.h ****                        || running_status_ == ProgramChange
 4898              		.loc 9 226 21 view .LVU1378
 4899 0176 012B     		cmp	r3, #1
 224:libDaisy/src/hid/midi.h ****                     //check for single byte running status, really this only applies to channel pre
 4900              		.loc 9 224 54 view .LVU1379
 4901 0178 01EA0201 		and	r1, r1, r2
 4902              	.LVL288:
 224:libDaisy/src/hid/midi.h ****                     //check for single byte running status, really this only applies to channel pre
 4903              		.loc 9 224 47 view .LVU1380
 4904 017c 2974     		strb	r1, [r5, #16]
 226:libDaisy/src/hid/midi.h ****                        || running_status_ == ProgramChange
 4905              		.loc 9 226 21 view .LVU1381
 4906 017e 05D9     		bls	.L284
 228:libDaisy/src/hid/midi.h ****                        || incoming_message_.sc_type == SongSelect)
 4907              		.loc 9 228 24 view .LVU1382
 4908 0180 95F89330 		ldrb	r3, [r5, #147]	@ zero_extendqisi2
 229:libDaisy/src/hid/midi.h ****                     {
 4909              		.loc 9 229 24 view .LVU1383
 4910 0184 03F0FD03 		and	r3, r3, #253
 4911 0188 012B     		cmp	r3, #1
 4912 018a 3CD1     		bne	.L285
 4913              	.L284:
 232:libDaisy/src/hid/midi.h ****                         event_q_.Write(incoming_message_);
 4914              		.loc 9 232 33 view .LVU1384
 4915 018c 0023     		movs	r3, #0
 4916 018e 6E46     		mov	r6, sp
 4917 0190 9022     		movs	r2, #144
 4918 0192 05F10801 		add	r1, r5, #8
 4919 0196 3046     		mov	r0, r6
 4920              	.LVL289:
 232:libDaisy/src/hid/midi.h ****                         event_q_.Write(incoming_message_);
 4921              		.loc 9 232 33 view .LVU1385
 4922 0198 2B71     		strb	r3, [r5, #4]
 4923              	.LVL290:
 232:libDaisy/src/hid/midi.h ****                         event_q_.Write(incoming_message_);
 4924              		.loc 9 232 33 view .LVU1386
 4925 019a FFF7FEFF 		bl	memcpy
 4926              	.LVL291:
 4927              	.LBB1023:
 4928              	.LBI1023:
  44:libDaisy/src/util/ringbuffer.h ****     {
 4929              		.loc 17 44 17 is_stmt 1 view .LVU1387
 4930              	.L286:
 4931              	.LBB1024:
  46:libDaisy/src/util/ringbuffer.h ****             ;
 4932              		.loc 17 46 24 view .LVU1388
 4933              	.LBB1025:
 4934              	.LBI1025:
  30:libDaisy/src/util/ringbuffer.h ****     {
 4935              		.loc 17 30 19 view .LVU1389
 4936              	.LBB1026:
  32:libDaisy/src/util/ringbuffer.h ****     }
 4937              		.loc 17 32 17 is_stmt 0 view .LVU1390
 4938 019e D4F89830 		ldr	r3, [r4, #152]
ARM GAS  /tmp/ccxnfbgf.s 			page 144


  32:libDaisy/src/util/ringbuffer.h ****     }
 4939              		.loc 17 32 29 view .LVU1391
 4940 01a2 D4F89C20 		ldr	r2, [r4, #156]
 4941              	.LVL292:
  32:libDaisy/src/util/ringbuffer.h ****     }
 4942              		.loc 17 32 40 view .LVU1392
 4943 01a6 013B     		subs	r3, r3, #1
 4944 01a8 9B1A     		subs	r3, r3, r2
  32:libDaisy/src/util/ringbuffer.h ****     }
 4945              		.loc 17 32 47 view .LVU1393
 4946 01aa DBB2     		uxtb	r3, r3
 4947              	.LBE1026:
 4948              	.LBE1025:
  46:libDaisy/src/util/ringbuffer.h ****             ;
 4949              		.loc 17 46 24 view .LVU1394
 4950 01ac 002B     		cmp	r3, #0
 4951 01ae F6D0     		beq	.L286
 4952              	.LVL293:
 4953              	.L330:
  46:libDaisy/src/util/ringbuffer.h ****             ;
 4954              		.loc 17 46 24 view .LVU1395
 4955 01b0 9022     		movs	r2, #144
 4956 01b2 3146     		mov	r1, r6
 4957 01b4 0DEB0200 		add	r0, sp, r2
 4958 01b8 FFF7FEFF 		bl	memcpy
 4959              	.LVL294:
 4960              	.LBE1024:
 4961              	.LBE1023:
 4962              	.LBB1027:
 4963              	.LBB1028:
 4964              	.LBB1029:
 4965              	.LBI1029:
  54:libDaisy/src/util/ringbuffer.h ****     {
 4966              		.loc 17 54 17 is_stmt 1 view .LVU1396
 4967              	.LBB1030:
  56:libDaisy/src/util/ringbuffer.h ****         buffer_[w] = v;
 4968              		.loc 17 56 16 is_stmt 0 view .LVU1397
 4969 01bc D4F89C60 		ldr	r6, [r4, #156]
 4970              	.LVL295:
  57:libDaisy/src/util/ringbuffer.h ****         write_ptr_ = (w + 1) % size;
 4971              		.loc 17 57 9 view .LVU1398
 4972 01c0 24A9     		add	r1, sp, #144
 4973 01c2 9022     		movs	r2, #144
 4974 01c4 06EBC600 		add	r0, r6, r6, lsl #3
 4975              		.loc 17 58 25 view .LVU1399
 4976 01c8 0136     		adds	r6, r6, #1
 4977              	.LVL296:
  57:libDaisy/src/util/ringbuffer.h ****         write_ptr_ = (w + 1) % size;
 4978              		.loc 17 57 9 view .LVU1400
 4979 01ca 05EB0010 		add	r0, r5, r0, lsl #4
 4980              		.loc 17 58 30 view .LVU1401
 4981 01ce F6B2     		uxtb	r6, r6
 4982              	.LVL297:
  57:libDaisy/src/util/ringbuffer.h ****         write_ptr_ = (w + 1) % size;
 4983              		.loc 17 57 9 view .LVU1402
 4984 01d0 9830     		adds	r0, r0, #152
 4985 01d2 FFF7FEFF 		bl	memcpy
ARM GAS  /tmp/ccxnfbgf.s 			page 145


 4986              	.LVL298:
 4987              		.loc 17 58 20 view .LVU1403
 4988 01d6 C4F89C60 		str	r6, [r4, #156]
 4989              		.loc 17 58 20 view .LVU1404
 4990              	.LBE1030:
 4991              	.LBE1029:
 4992              	.LBE1028:
 4993              	.LBE1027:
 4994              		.loc 9 318 5 view .LVU1405
 4995 01da 48B0     		add	sp, sp, #288
 4996              		.cfi_remember_state
 4997              		.cfi_def_cfa_offset 24
 4998              		@ sp needed
 4999 01dc BDE8F081 		pop	{r4, r5, r6, r7, r8, pc}
 5000              	.LVL299:
 5001              	.L332:
 5002              		.cfi_restore_state
 305:libDaisy/src/hid/midi.h ****                     event_q_.Write(incoming_message_);
 5003              		.loc 9 305 29 view .LVU1406
 5004 01e0 0023     		movs	r3, #0
 5005 01e2 6E46     		mov	r6, sp
 5006 01e4 9022     		movs	r2, #144
 5007 01e6 05F10801 		add	r1, r5, #8
 5008              	.LVL300:
 305:libDaisy/src/hid/midi.h ****                     event_q_.Write(incoming_message_);
 5009              		.loc 9 305 29 view .LVU1407
 5010 01ea 3046     		mov	r0, r6
 5011              	.LVL301:
 305:libDaisy/src/hid/midi.h ****                     event_q_.Write(incoming_message_);
 5012              		.loc 9 305 29 view .LVU1408
 5013 01ec 2B71     		strb	r3, [r5, #4]
 5014              	.LVL302:
 305:libDaisy/src/hid/midi.h ****                     event_q_.Write(incoming_message_);
 5015              		.loc 9 305 29 view .LVU1409
 5016 01ee FFF7FEFF 		bl	memcpy
 5017              	.LVL303:
 5018              	.LBB1034:
 5019              	.LBI1027:
  44:libDaisy/src/util/ringbuffer.h ****     {
 5020              		.loc 17 44 17 is_stmt 1 view .LVU1410
 5021              	.L296:
 5022              	.LBB1033:
  46:libDaisy/src/util/ringbuffer.h ****             ;
 5023              		.loc 17 46 24 view .LVU1411
 5024              	.LBB1031:
 5025              	.LBI1031:
  30:libDaisy/src/util/ringbuffer.h ****     {
 5026              		.loc 17 30 19 view .LVU1412
 5027              	.LBB1032:
  32:libDaisy/src/util/ringbuffer.h ****     }
 5028              		.loc 17 32 17 is_stmt 0 view .LVU1413
 5029 01f2 D4F89830 		ldr	r3, [r4, #152]
  32:libDaisy/src/util/ringbuffer.h ****     }
 5030              		.loc 17 32 29 view .LVU1414
 5031 01f6 D4F89C20 		ldr	r2, [r4, #156]
 5032              	.LVL304:
  32:libDaisy/src/util/ringbuffer.h ****     }
ARM GAS  /tmp/ccxnfbgf.s 			page 146


 5033              		.loc 17 32 40 view .LVU1415
 5034 01fa 013B     		subs	r3, r3, #1
 5035 01fc 9B1A     		subs	r3, r3, r2
  32:libDaisy/src/util/ringbuffer.h ****     }
 5036              		.loc 17 32 47 view .LVU1416
 5037 01fe DBB2     		uxtb	r3, r3
 5038              	.LBE1032:
 5039              	.LBE1031:
  46:libDaisy/src/util/ringbuffer.h ****             ;
 5040              		.loc 17 46 24 view .LVU1417
 5041 0200 002B     		cmp	r3, #0
 5042 0202 F6D0     		beq	.L296
 5043 0204 D4E7     		b	.L330
 5044              	.LVL305:
 5045              	.L285:
  46:libDaisy/src/util/ringbuffer.h ****             ;
 5046              		.loc 17 46 24 view .LVU1418
 5047              	.LBE1033:
 5048              	.LBE1034:
 238:libDaisy/src/hid/midi.h ****                     }
 5049              		.loc 9 238 29 view .LVU1419
 5050 0206 0223     		movs	r3, #2
 5051 0208 2B71     		strb	r3, [r5, #4]
 5052 020a 1AE7     		b	.L273
 5053              	.LVL306:
 5054              	.L289:
 257:libDaisy/src/hid/midi.h ****                     }
 5055              		.loc 9 257 33 view .LVU1420
 5056 020c 0223     		movs	r3, #2
 5057 020e 2B71     		strb	r3, [r5, #4]
 5058 0210 68E7     		b	.L291
 5059              	.LVL307:
 5060              	.L331:
 185:libDaisy/src/hid/midi.h ****                             {
 5061              		.loc 9 185 29 view .LVU1421
 5062 0212 11F00800 		ands	r0, r1, #8
 183:libDaisy/src/hid/midi.h ****                             //system real time = 1111 1xxx
 5063              		.loc 9 183 55 view .LVU1422
 5064 0216 EA60     		str	r2, [r5, #12]
 185:libDaisy/src/hid/midi.h ****                             {
 5065              		.loc 9 185 29 view .LVU1423
 5066 0218 36D1     		bne	.L334
 202:libDaisy/src/hid/midi.h ****                                 //sysex
 5067              		.loc 9 202 69 view .LVU1424
 5068 021a 01F00703 		and	r3, r1, #7
 201:libDaisy/src/hid/midi.h ****                                                                     & 0x07);
 5069              		.loc 9 201 37 view .LVU1425
 5070 021e 85F89330 		strb	r3, [r5, #147]
 204:libDaisy/src/hid/midi.h ****                                 {
 5071              		.loc 9 204 33 view .LVU1426
 5072 0222 3BB9     		cbnz	r3, .L281
 206:libDaisy/src/hid/midi.h ****                                     incoming_message_.sysex_message_len = 0;
 5073              		.loc 9 206 45 view .LVU1427
 5074 0224 0322     		movs	r2, #3
 207:libDaisy/src/hid/midi.h ****                                 }
 5075              		.loc 9 207 73 view .LVU1428
 5076 0226 85F89230 		strb	r3, [r5, #146]
ARM GAS  /tmp/ccxnfbgf.s 			page 147


 206:libDaisy/src/hid/midi.h ****                                     incoming_message_.sysex_message_len = 0;
 5077              		.loc 9 206 45 view .LVU1429
 5078 022a 2A71     		strb	r2, [r5, #4]
 5079 022c 09E7     		b	.L273
 5080              	.LVL308:
 5081              	.L333:
 286:libDaisy/src/hid/midi.h ****                     }
 5082              		.loc 9 286 48 view .LVU1430
 5083 022e 0023     		movs	r3, #0
 5084 0230 2B72     		strb	r3, [r5, #8]
 5085 0232 70E7     		b	.L293
 5086              	.LVL309:
 5087              	.L281:
 210:libDaisy/src/hid/midi.h ****                                 {
 5088              		.loc 9 210 38 view .LVU1431
 5089 0234 4B07     		lsls	r3, r1, #29
 5090 0236 7FF504AF 		bpl	.L273
 5091 023a 6E46     		mov	r6, sp
 212:libDaisy/src/hid/midi.h ****                                     event_q_.Write(incoming_message_);
 5092              		.loc 9 212 45 view .LVU1432
 5093 023c 2871     		strb	r0, [r5, #4]
 5094              	.LVL310:
 212:libDaisy/src/hid/midi.h ****                                     event_q_.Write(incoming_message_);
 5095              		.loc 9 212 45 view .LVU1433
 5096 023e 9022     		movs	r2, #144
 5097 0240 05F10801 		add	r1, r5, #8
 5098              	.LVL311:
 212:libDaisy/src/hid/midi.h ****                                     event_q_.Write(incoming_message_);
 5099              		.loc 9 212 45 view .LVU1434
 5100 0244 3046     		mov	r0, r6
 5101 0246 FFF7FEFF 		bl	memcpy
 5102              	.LVL312:
 5103              	.LBB1035:
 5104              	.LBI1035:
  44:libDaisy/src/util/ringbuffer.h ****     {
 5105              		.loc 17 44 17 is_stmt 1 view .LVU1435
 5106              	.L282:
 5107              	.LBB1036:
  46:libDaisy/src/util/ringbuffer.h ****             ;
 5108              		.loc 17 46 24 view .LVU1436
 5109              	.LBB1037:
 5110              	.LBI1037:
  30:libDaisy/src/util/ringbuffer.h ****     {
 5111              		.loc 17 30 19 view .LVU1437
 5112              	.LBB1038:
  32:libDaisy/src/util/ringbuffer.h ****     }
 5113              		.loc 17 32 17 is_stmt 0 view .LVU1438
 5114 024a D4F89830 		ldr	r3, [r4, #152]
  32:libDaisy/src/util/ringbuffer.h ****     }
 5115              		.loc 17 32 29 view .LVU1439
 5116 024e D4F89C20 		ldr	r2, [r4, #156]
 5117              	.LVL313:
  32:libDaisy/src/util/ringbuffer.h ****     }
 5118              		.loc 17 32 40 view .LVU1440
 5119 0252 013B     		subs	r3, r3, #1
 5120 0254 9B1A     		subs	r3, r3, r2
  32:libDaisy/src/util/ringbuffer.h ****     }
ARM GAS  /tmp/ccxnfbgf.s 			page 148


 5121              		.loc 17 32 47 view .LVU1441
 5122 0256 DBB2     		uxtb	r3, r3
 5123              	.LBE1038:
 5124              	.LBE1037:
  46:libDaisy/src/util/ringbuffer.h ****             ;
 5125              		.loc 17 46 24 view .LVU1442
 5126 0258 002B     		cmp	r3, #0
 5127 025a F6D0     		beq	.L282
 5128              	.LVL314:
 5129              	.L329:
  46:libDaisy/src/util/ringbuffer.h ****             ;
 5130              		.loc 17 46 24 view .LVU1443
 5131 025c 9022     		movs	r2, #144
 5132 025e 3146     		mov	r1, r6
 5133 0260 0DEB0200 		add	r0, sp, r2
 5134 0264 FFF7FEFF 		bl	memcpy
 5135              	.LVL315:
 5136              	.LBB1039:
 5137              	.LBI1039:
  54:libDaisy/src/util/ringbuffer.h ****     {
 5138              		.loc 17 54 17 is_stmt 1 view .LVU1444
 5139              	.LBB1040:
  56:libDaisy/src/util/ringbuffer.h ****         buffer_[w] = v;
 5140              		.loc 17 56 16 is_stmt 0 view .LVU1445
 5141 0268 D4F89C60 		ldr	r6, [r4, #156]
 5142              	.LVL316:
  57:libDaisy/src/util/ringbuffer.h ****         write_ptr_ = (w + 1) % size;
 5143              		.loc 17 57 9 view .LVU1446
 5144 026c 24A9     		add	r1, sp, #144
 5145 026e 9022     		movs	r2, #144
 5146 0270 06EBC600 		add	r0, r6, r6, lsl #3
 5147 0274 05EB0010 		add	r0, r5, r0, lsl #4
 5148 0278 9830     		adds	r0, r0, #152
 5149 027a FFF7FEFF 		bl	memcpy
 5150              	.LVL317:
 5151              		.loc 17 58 25 view .LVU1447
 5152 027e 731C     		adds	r3, r6, #1
 5153              		.loc 17 58 30 view .LVU1448
 5154 0280 DBB2     		uxtb	r3, r3
 5155              		.loc 17 58 20 view .LVU1449
 5156 0282 C4F89C30 		str	r3, [r4, #156]
 5157              	.LVL318:
 5158              		.loc 17 58 20 view .LVU1450
 5159              	.LBE1040:
 5160              	.LBE1039:
 5161              	.LBE1036:
 5162              	.LBE1035:
 5163 0286 DCE6     		b	.L273
 5164              	.LVL319:
 5165              	.L334:
 187:libDaisy/src/hid/midi.h ****                                 running_status_        = SystemRealTime;
 5166              		.loc 9 187 56 view .LVU1451
 5167 0288 0823     		movs	r3, #8
 5168 028a 6E46     		mov	r6, sp
 5169 028c 2B72     		strb	r3, [r5, #8]
 5170 028e 3046     		mov	r0, r6
 188:libDaisy/src/hid/midi.h ****                                 incoming_message_.srt_type
ARM GAS  /tmp/ccxnfbgf.s 			page 149


 5171              		.loc 9 188 56 view .LVU1452
 5172 0290 84F8A430 		strb	r3, [r4, #164]
 191:libDaisy/src/hid/midi.h **** 
 5173              		.loc 9 191 46 view .LVU1453
 5174 0294 94F8BA30 		ldrb	r3, [r4, #186]	@ zero_extendqisi2
 194:libDaisy/src/hid/midi.h ****                                 event_q_.Write(incoming_message_);
 5175              		.loc 9 194 41 view .LVU1454
 5176 0298 2A71     		strb	r2, [r5, #4]
 5177              	.LVL320:
 194:libDaisy/src/hid/midi.h ****                                 event_q_.Write(incoming_message_);
 5178              		.loc 9 194 41 view .LVU1455
 5179 029a 9022     		movs	r2, #144
 191:libDaisy/src/hid/midi.h **** 
 5180              		.loc 9 191 46 view .LVU1456
 5181 029c 1940     		ands	r1, r1, r3
 5182              	.LVL321:
 190:libDaisy/src/hid/midi.h ****                                         byte & kSystemRealTimeMask);
 5183              		.loc 9 190 37 view .LVU1457
 5184 029e 85F89410 		strb	r1, [r5, #148]
 5185 02a2 05F10801 		add	r1, r5, #8
 5186 02a6 FFF7FEFF 		bl	memcpy
 5187              	.LVL322:
 5188              	.LBB1041:
 5189              	.LBI1041:
  44:libDaisy/src/util/ringbuffer.h ****     {
 5190              		.loc 17 44 17 is_stmt 1 view .LVU1458
 5191              	.L280:
 5192              	.LBB1042:
  46:libDaisy/src/util/ringbuffer.h ****             ;
 5193              		.loc 17 46 24 view .LVU1459
 5194              	.LBB1043:
 5195              	.LBI1043:
  30:libDaisy/src/util/ringbuffer.h ****     {
 5196              		.loc 17 30 19 view .LVU1460
 5197              	.LBB1044:
  32:libDaisy/src/util/ringbuffer.h ****     }
 5198              		.loc 17 32 17 is_stmt 0 view .LVU1461
 5199 02aa D4F89830 		ldr	r3, [r4, #152]
  32:libDaisy/src/util/ringbuffer.h ****     }
 5200              		.loc 17 32 29 view .LVU1462
 5201 02ae D4F89C20 		ldr	r2, [r4, #156]
 5202              	.LVL323:
  32:libDaisy/src/util/ringbuffer.h ****     }
 5203              		.loc 17 32 40 view .LVU1463
 5204 02b2 013B     		subs	r3, r3, #1
 5205 02b4 9B1A     		subs	r3, r3, r2
  32:libDaisy/src/util/ringbuffer.h ****     }
 5206              		.loc 17 32 47 view .LVU1464
 5207 02b6 DBB2     		uxtb	r3, r3
 5208              	.LBE1044:
 5209              	.LBE1043:
  46:libDaisy/src/util/ringbuffer.h ****             ;
 5210              		.loc 17 46 24 view .LVU1465
 5211 02b8 002B     		cmp	r3, #0
 5212 02ba F6D0     		beq	.L280
 5213 02bc CEE7     		b	.L329
 5214              	.LBE1042:
ARM GAS  /tmp/ccxnfbgf.s 			page 150


 5215              	.LBE1041:
 5216              		.cfi_endproc
 5217              	.LFE5274:
 5219 02be 00BF     		.section	.rodata.main.str1.4,"aMS",%progbits,1
 5220              		.align	2
 5221              	.LC5:
 5222 0000 496E6974 		.ascii	"Initialize started\000"
 5222      69616C69 
 5222      7A652073 
 5222      74617274 
 5222      656400
 5223              		.section	.text.startup.main,"ax",%progbits
 5224              		.align	1
 5225              		.p2align 2,,3
 5226              		.global	main
 5227              		.syntax unified
 5228              		.thumb
 5229              		.thumb_func
 5231              	main:
 5232              	.LFB4811:
 184:fjol.cpp      **** {
 5233              		.loc 7 184 1 is_stmt 1 view -0
 5234              		.cfi_startproc
 5235              		@ args = 0, pretend = 0, frame = 152
 5236              		@ frame_needed = 0, uses_anonymous_args = 0
 185:fjol.cpp      ****   hw.PrintLine("Initialize started");
 5237              		.loc 7 185 3 view .LVU1467
 5238              	.LVL324:
 5239              	.LBB1103:
 5240              	.LBI1103:
  23:libDaisy/src/daisy_seed.h **** 
  24:libDaisy/src/daisy_seed.h ****     /** This function used to provide a pre-initialization configuraiton 
  25:libDaisy/src/daisy_seed.h ****      *  it has since been deprecated, and does nothing.
  26:libDaisy/src/daisy_seed.h ****      */
  27:libDaisy/src/daisy_seed.h ****     void Configure();
  28:libDaisy/src/daisy_seed.h **** 
  29:libDaisy/src/daisy_seed.h ****     /** 
  30:libDaisy/src/daisy_seed.h ****     Initializes the Daisy Seed and the following peripherals:
  31:libDaisy/src/daisy_seed.h ****     SDRAM, QSPI, 24-bit 48kHz Audio via AK4556, Internal USB,
  32:libDaisy/src/daisy_seed.h ****     as well as the built-in LED and Testpoint.
  33:libDaisy/src/daisy_seed.h **** 
  34:libDaisy/src/daisy_seed.h ****     ADCs, DACs, and other special peripherals (such as I2C, SPI, etc.)
  35:libDaisy/src/daisy_seed.h ****     can be initialized using their specific initializers within libdaisy
  36:libDaisy/src/daisy_seed.h ****     for a specific application.
  37:libDaisy/src/daisy_seed.h ****     */
  38:libDaisy/src/daisy_seed.h ****     void Init(bool boost = false);
  39:libDaisy/src/daisy_seed.h **** 
  40:libDaisy/src/daisy_seed.h ****     /** 
  41:libDaisy/src/daisy_seed.h ****     Deinitializes all peripherals automatically handled by `Init`.
  42:libDaisy/src/daisy_seed.h ****     */
  43:libDaisy/src/daisy_seed.h ****     void DeInit();
  44:libDaisy/src/daisy_seed.h **** 
  45:libDaisy/src/daisy_seed.h ****     /** 
  46:libDaisy/src/daisy_seed.h ****     Wait some ms before going on.
  47:libDaisy/src/daisy_seed.h ****     \param del Delay time in ms.
  48:libDaisy/src/daisy_seed.h ****     */
  49:libDaisy/src/daisy_seed.h ****     void DelayMs(size_t del);
ARM GAS  /tmp/ccxnfbgf.s 			page 151


  50:libDaisy/src/daisy_seed.h **** 
  51:libDaisy/src/daisy_seed.h ****     /** 
  52:libDaisy/src/daisy_seed.h ****     Returns the gpio_pin corresponding to the index 0-31.
  53:libDaisy/src/daisy_seed.h ****     For the given GPIO on the Daisy Seed (labeled 1-32 in docs).
  54:libDaisy/src/daisy_seed.h ****     */
  55:libDaisy/src/daisy_seed.h ****     static dsy_gpio_pin GetPin(uint8_t pin_idx);
  56:libDaisy/src/daisy_seed.h **** 
  57:libDaisy/src/daisy_seed.h ****     /** Begins the audio for the seeds builtin audio.
  58:libDaisy/src/daisy_seed.h ****     the specified callback will get called whenever
  59:libDaisy/src/daisy_seed.h ****     new data is ready to be prepared.
  60:libDaisy/src/daisy_seed.h ****     */
  61:libDaisy/src/daisy_seed.h ****     void StartAudio(AudioHandle::InterleavingAudioCallback cb);
  62:libDaisy/src/daisy_seed.h **** 
  63:libDaisy/src/daisy_seed.h ****     /** Begins the audio for the seeds builtin audio.
  64:libDaisy/src/daisy_seed.h ****     the specified callback will get called whenever
  65:libDaisy/src/daisy_seed.h ****     new data is ready to be prepared.
  66:libDaisy/src/daisy_seed.h ****     This will use the newer non-interleaved callback.
  67:libDaisy/src/daisy_seed.h ****     */
  68:libDaisy/src/daisy_seed.h ****     void StartAudio(AudioHandle::AudioCallback cb);
  69:libDaisy/src/daisy_seed.h **** 
  70:libDaisy/src/daisy_seed.h ****     /** Changes to a new interleaved callback
  71:libDaisy/src/daisy_seed.h ****      */
  72:libDaisy/src/daisy_seed.h ****     void ChangeAudioCallback(AudioHandle::InterleavingAudioCallback cb);
  73:libDaisy/src/daisy_seed.h **** 
  74:libDaisy/src/daisy_seed.h ****     /** Changes to a new multichannel callback
  75:libDaisy/src/daisy_seed.h ****      */
  76:libDaisy/src/daisy_seed.h ****     void ChangeAudioCallback(AudioHandle::AudioCallback cb);
  77:libDaisy/src/daisy_seed.h **** 
  78:libDaisy/src/daisy_seed.h ****     /** Stops the audio if it is running. */
  79:libDaisy/src/daisy_seed.h ****     void StopAudio();
  80:libDaisy/src/daisy_seed.h **** 
  81:libDaisy/src/daisy_seed.h ****     /** Updates the Audio Sample Rate, and reinitializes.
  82:libDaisy/src/daisy_seed.h ****      ** Audio must be stopped for this to work.
  83:libDaisy/src/daisy_seed.h ****      */
  84:libDaisy/src/daisy_seed.h ****     void SetAudioSampleRate(SaiHandle::Config::SampleRate samplerate);
  85:libDaisy/src/daisy_seed.h **** 
  86:libDaisy/src/daisy_seed.h ****     /** Returns the audio sample rate in Hz as a floating point number.
  87:libDaisy/src/daisy_seed.h ****      */
  88:libDaisy/src/daisy_seed.h ****     float AudioSampleRate();
  89:libDaisy/src/daisy_seed.h **** 
  90:libDaisy/src/daisy_seed.h ****     /** Sets the number of samples processed per channel by the audio callback.
  91:libDaisy/src/daisy_seed.h ****      */
  92:libDaisy/src/daisy_seed.h ****     void SetAudioBlockSize(size_t blocksize);
  93:libDaisy/src/daisy_seed.h **** 
  94:libDaisy/src/daisy_seed.h ****     /** Returns the number of samples per channel in a block of audio. */
  95:libDaisy/src/daisy_seed.h ****     size_t AudioBlockSize();
  96:libDaisy/src/daisy_seed.h **** 
  97:libDaisy/src/daisy_seed.h ****     /** Returns the rate in Hz that the Audio callback is called */
  98:libDaisy/src/daisy_seed.h ****     float AudioCallbackRate() const;
  99:libDaisy/src/daisy_seed.h **** 
 100:libDaisy/src/daisy_seed.h ****     /** Sets the state of the built in LED
 101:libDaisy/src/daisy_seed.h ****      */
 102:libDaisy/src/daisy_seed.h ****     void SetLed(bool state);
 103:libDaisy/src/daisy_seed.h **** 
 104:libDaisy/src/daisy_seed.h ****     /** Sets the state of the test point near pin 10
 105:libDaisy/src/daisy_seed.h ****      */
 106:libDaisy/src/daisy_seed.h ****     void SetTestPoint(bool state);
ARM GAS  /tmp/ccxnfbgf.s 			page 152


 107:libDaisy/src/daisy_seed.h **** 
 108:libDaisy/src/daisy_seed.h ****     /** Print formatted debug log message
 109:libDaisy/src/daisy_seed.h ****      */
 110:libDaisy/src/daisy_seed.h ****     template <typename... VA>
 111:libDaisy/src/daisy_seed.h ****     static void Print(const char* format, VA... va)
 112:libDaisy/src/daisy_seed.h ****     {
 113:libDaisy/src/daisy_seed.h ****         Log::Print(format, va...);
 114:libDaisy/src/daisy_seed.h ****     }
 115:libDaisy/src/daisy_seed.h **** 
 116:libDaisy/src/daisy_seed.h ****     /** Print formatted debug log message with automatic line termination
 117:libDaisy/src/daisy_seed.h ****     */
 118:libDaisy/src/daisy_seed.h ****     template <typename... VA>
 119:libDaisy/src/daisy_seed.h ****     static void PrintLine(const char* format, VA... va)
 5241              		.loc 2 119 17 view .LVU1468
 5242              	.LBE1103:
 184:fjol.cpp      **** {
 5243              		.loc 7 184 1 is_stmt 0 view .LVU1469
 5244 0000 2DE9F04F 		push	{r4, r5, r6, r7, r8, r9, r10, fp, lr}
 5245              		.cfi_def_cfa_offset 36
 5246              		.cfi_offset 4, -36
 5247              		.cfi_offset 5, -32
 5248              		.cfi_offset 6, -28
 5249              		.cfi_offset 7, -24
 5250              		.cfi_offset 8, -20
 5251              		.cfi_offset 9, -16
 5252              		.cfi_offset 10, -12
 5253              		.cfi_offset 11, -8
 5254              		.cfi_offset 14, -4
 5255              	.LBB1106:
 5256              	.LBB1104:
 120:libDaisy/src/daisy_seed.h ****     {
 121:libDaisy/src/daisy_seed.h ****         Log::PrintLine(format, va...);
 5257              		.loc 2 121 23 view .LVU1470
 5258 0004 9748     		ldr	r0, .L383
 5259              	.LBE1104:
 5260              	.LBE1106:
 184:fjol.cpp      **** {
 5261              		.loc 7 184 1 view .LVU1471
 5262 0006 C7B0     		sub	sp, sp, #284
 5263              		.cfi_def_cfa_offset 320
 5264              	.LBB1107:
 5265              	.LBB1105:
 5266              		.loc 2 121 23 view .LVU1472
 5267 0008 FFF7FEFF 		bl	_ZN5daisy6LoggerILNS_17LoggerDestinationE1EE9PrintLineEPKcz
 5268              	.LVL325:
 5269              		.loc 2 121 23 view .LVU1473
 5270              	.LBE1105:
 5271              	.LBE1107:
 187:fjol.cpp      ****   i2c.Init(i2c_config);
 5272              		.loc 7 187 3 is_stmt 1 view .LVU1474
 187:fjol.cpp      ****   i2c.Init(i2c_config);
 5273              		.loc 7 187 11 is_stmt 0 view .LVU1475
 5274 000c 9649     		ldr	r1, .L383+4
 5275 000e 9748     		ldr	r0, .L383+8
 5276 0010 FFF7FEFF 		bl	_ZN5daisy9I2CHandle4InitERKNS0_6ConfigE
 5277              	.LVL326:
 189:fjol.cpp      ****   initializeadc();
ARM GAS  /tmp/ccxnfbgf.s 			page 153


 5278              		.loc 7 189 3 is_stmt 1 view .LVU1476
 189:fjol.cpp      ****   initializeadc();
 5279              		.loc 7 189 16 is_stmt 0 view .LVU1477
 5280 0014 FFF7FEFF 		bl	_Z13initializeadcv
 5281              	.LVL327:
 191:fjol.cpp      ****   hw.adc.Init(&adcConfig, 1);
 5282              		.loc 7 191 3 is_stmt 1 view .LVU1478
 191:fjol.cpp      ****   hw.adc.Init(&adcConfig, 1);
 5283              		.loc 7 191 14 is_stmt 0 view .LVU1479
 5284 0018 0423     		movs	r3, #4
 5285 001a 0122     		movs	r2, #1
 5286 001c 9449     		ldr	r1, .L383+12
 5287 001e 9548     		ldr	r0, .L383+16
 5288 0020 FFF7FEFF 		bl	_ZN5daisy9AdcHandle4InitEPNS_16AdcChannelConfigEjNS0_12OverSamplingE
 5289              	.LVL328:
 193:fjol.cpp      ****   hw.Init();
 5290              		.loc 7 193 3 is_stmt 1 view .LVU1480
 193:fjol.cpp      ****   hw.Init();
 5291              		.loc 7 193 10 is_stmt 0 view .LVU1481
 5292 0024 0021     		movs	r1, #0
 5293 0026 9448     		ldr	r0, .L383+20
 5294 0028 FFF7FEFF 		bl	_ZN5daisy9DaisySeed4InitEb
 5295              	.LVL329:
 194:fjol.cpp      ****   hw.SetAudioBlockSize(2);
 5296              		.loc 7 194 3 is_stmt 1 view .LVU1482
 194:fjol.cpp      ****   hw.SetAudioBlockSize(2);
 5297              		.loc 7 194 23 is_stmt 0 view .LVU1483
 5298 002c 0221     		movs	r1, #2
 5299 002e 9248     		ldr	r0, .L383+20
 5300 0030 FFF7FEFF 		bl	_ZN5daisy9DaisySeed17SetAudioBlockSizeEj
 5301              	.LVL330:
 195:fjol.cpp      ****   initializecontrols();
 5302              		.loc 7 195 3 is_stmt 1 view .LVU1484
 195:fjol.cpp      ****   initializecontrols();
 5303              		.loc 7 195 21 is_stmt 0 view .LVU1485
 5304 0034 FFF7FEFF 		bl	_Z18initializecontrolsv
 5305              	.LVL331:
 197:fjol.cpp      ****   shift_sw.Debounce();
 5306              		.loc 7 197 3 is_stmt 1 view .LVU1486
 197:fjol.cpp      ****   shift_sw.Debounce();
 5307              		.loc 7 197 20 is_stmt 0 view .LVU1487
 5308 0038 9048     		ldr	r0, .L383+24
 5309 003a FFF7FEFF 		bl	_ZN5daisy6Switch8DebounceEv
 5310              	.LVL332:
 198:fjol.cpp      ****   if(shift_sw.Pressed())
 5311              		.loc 7 198 3 is_stmt 1 view .LVU1488
 5312              	.LBB1108:
 5313              	.LBI1108:
 5314              		.loc 1 79 17 view .LVU1489
 5315              	.LBB1109:
 5316              		.loc 1 79 35 view .LVU1490
 5317              		.loc 1 79 35 is_stmt 0 view .LVU1491
 5318              	.LBE1109:
 5319              	.LBE1108:
 198:fjol.cpp      ****   if(shift_sw.Pressed())
 5320              		.loc 7 198 3 view .LVU1492
 5321 003e 8F4B     		ldr	r3, .L383+24
ARM GAS  /tmp/ccxnfbgf.s 			page 154


 5322 0040 9B7A     		ldrb	r3, [r3, #10]	@ zero_extendqisi2
 5323 0042 FF2B     		cmp	r3, #255
 5324 0044 00F00A81 		beq	.L380
 5325              	.L336:
 203:fjol.cpp      ****   updatecontrols();
 5326              		.loc 7 203 3 is_stmt 1 view .LVU1493
 203:fjol.cpp      ****   updatecontrols();
 5327              		.loc 7 203 17 is_stmt 0 view .LVU1494
 5328 0048 FFF7FEFF 		bl	_Z14updatecontrolsv
 5329              	.LVL333:
 207:fjol.cpp      ****   samplerate = hw.AudioSampleRate();
 5330              		.loc 7 207 3 is_stmt 1 view .LVU1495
 207:fjol.cpp      ****   samplerate = hw.AudioSampleRate();
 5331              		.loc 7 207 34 is_stmt 0 view .LVU1496
 5332 004c 8A48     		ldr	r0, .L383+20
 5333 004e FFF7FEFF 		bl	_ZN5daisy9DaisySeed15AudioSampleRateEv
 5334              	.LVL334:
 207:fjol.cpp      ****   samplerate = hw.AudioSampleRate();
 5335              		.loc 7 207 14 view .LVU1497
 5336 0052 8B4B     		ldr	r3, .L383+28
 211:fjol.cpp      ****   startPCA9622();
 5337              		.loc 7 211 15 view .LVU1498
 5338 0054 0224     		movs	r4, #2
 5339 0056 22AD     		add	r5, sp, #136
 207:fjol.cpp      ****   samplerate = hw.AudioSampleRate();
 5340              		.loc 7 207 14 view .LVU1499
 5341 0058 83ED000A 		vstr.32	s0, [r3]
 208:fjol.cpp      ****   initializeaudio();
 5342              		.loc 7 208 3 is_stmt 1 view .LVU1500
 208:fjol.cpp      ****   initializeaudio();
 5343              		.loc 7 208 18 is_stmt 0 view .LVU1501
 5344 005c FFF7FEFF 		bl	_Z15initializeaudiov
 5345              	.LVL335:
 209:fjol.cpp      ****   hw.StartAudio(AudioCallback);
 5346              		.loc 7 209 3 is_stmt 1 view .LVU1502
 209:fjol.cpp      ****   hw.StartAudio(AudioCallback);
 5347              		.loc 7 209 16 is_stmt 0 view .LVU1503
 5348 0060 8849     		ldr	r1, .L383+32
 5349 0062 8548     		ldr	r0, .L383+20
 5350 0064 FFF7FEFF 		bl	_ZN5daisy9DaisySeed10StartAudioEPFvPKfPfjE
 5351              	.LVL336:
 211:fjol.cpp      ****   startPCA9622();
 5352              		.loc 7 211 3 is_stmt 1 view .LVU1504
 211:fjol.cpp      ****   startPCA9622();
 5353              		.loc 7 211 15 is_stmt 0 view .LVU1505
 5354 0068 FFF7FEFF 		bl	_Z12startPCA9622v
 5355              	.LVL337:
 213:fjol.cpp      ****   for(int i = 0; i<15;i++)
 5356              		.loc 7 213 3 is_stmt 1 view .LVU1506
 5357              	.LBB1110:
 213:fjol.cpp      ****   for(int i = 0; i<15;i++)
 5358              		.loc 7 213 19 view .LVU1507
 5359              	.L337:
 215:fjol.cpp      ****     setpwm(i,128);
 5360              		.loc 7 215 5 discriminator 2 view .LVU1508
 5361              	.LBB1111:
 5362              	.LBB1112:
ARM GAS  /tmp/ccxnfbgf.s 			page 155


 665:fjol.cpp      ****   i2c.WriteDataAtAddress(PCA9622_I2C_ADDRESS,channel+2,2,&pwm,2,10);
 5363              		.loc 7 665 25 is_stmt 0 discriminator 2 view .LVU1509
 5364 006c 4FF00209 		mov	r9, #2
 5365 0070 4FF00A08 		mov	r8, #10
 5366 0074 8027     		movs	r7, #128
 5367 0076 2246     		mov	r2, r4
 5368 0078 4B46     		mov	r3, r9
 5369 007a 6021     		movs	r1, #96
 5370 007c 7B48     		ldr	r0, .L383+8
 5371 007e 0026     		movs	r6, #0
 5372 0080 0095     		str	r5, [sp]
 5373 0082 8DF88870 		strb	r7, [sp, #136]
 5374              	.LVL338:
 665:fjol.cpp      ****   i2c.WriteDataAtAddress(PCA9622_I2C_ADDRESS,channel+2,2,&pwm,2,10);
 5375              		.loc 7 665 25 discriminator 2 view .LVU1510
 5376              	.LBE1112:
 5377              	.LBI1111:
 663:fjol.cpp      **** void setpwm(uint8_t channel, uint8_t pwm)
 5378              		.loc 7 663 6 is_stmt 1 discriminator 2 view .LVU1511
 5379              	.LBB1113:
 665:fjol.cpp      ****   i2c.WriteDataAtAddress(PCA9622_I2C_ADDRESS,channel+2,2,&pwm,2,10);
 5380              		.loc 7 665 3 discriminator 2 view .LVU1512
 665:fjol.cpp      ****   i2c.WriteDataAtAddress(PCA9622_I2C_ADDRESS,channel+2,2,&pwm,2,10);
 5381              		.loc 7 665 25 is_stmt 0 discriminator 2 view .LVU1513
 5382 0086 CDE90198 		strd	r9, r8, [sp, #4]
 5383 008a FFF7FEFF 		bl	_ZN5daisy9I2CHandle18WriteDataAtAddressEtttPhtm
 5384              	.LVL339:
 665:fjol.cpp      ****   i2c.WriteDataAtAddress(PCA9622_I2C_ADDRESS,channel+2,2,&pwm,2,10);
 5385              		.loc 7 665 25 discriminator 2 view .LVU1514
 5386              	.LBE1113:
 5387              	.LBE1111:
 216:fjol.cpp      ****     System::Delay(25);
 5388              		.loc 7 216 5 is_stmt 1 discriminator 2 view .LVU1515
 216:fjol.cpp      ****     System::Delay(25);
 5389              		.loc 7 216 18 is_stmt 0 discriminator 2 view .LVU1516
 5390 008e 1920     		movs	r0, #25
 5391 0090 FFF7FEFF 		bl	_ZN5daisy6System5DelayEm
 5392              	.LVL340:
 217:fjol.cpp      ****     setpwm(i,0);
 5393              		.loc 7 217 5 is_stmt 1 discriminator 2 view .LVU1517
 5394              	.LBB1114:
 5395              	.LBB1115:
 665:fjol.cpp      ****   i2c.WriteDataAtAddress(PCA9622_I2C_ADDRESS,channel+2,2,&pwm,2,10);
 5396              		.loc 7 665 25 is_stmt 0 discriminator 2 view .LVU1518
 5397 0094 2246     		mov	r2, r4
 5398              	.LBE1115:
 5399              	.LBE1114:
 213:fjol.cpp      ****   for(int i = 0; i<15;i++)
 5400              		.loc 7 213 19 discriminator 2 view .LVU1519
 5401 0096 0134     		adds	r4, r4, #1
 5402              	.LVL341:
 5403              	.LBB1119:
 5404              	.LBB1116:
 665:fjol.cpp      ****   i2c.WriteDataAtAddress(PCA9622_I2C_ADDRESS,channel+2,2,&pwm,2,10);
 5405              		.loc 7 665 25 discriminator 2 view .LVU1520
 5406 0098 4B46     		mov	r3, r9
 5407 009a 6021     		movs	r1, #96
ARM GAS  /tmp/ccxnfbgf.s 			page 156


 5408 009c 7348     		ldr	r0, .L383+8
 5409              	.LBE1116:
 5410              	.LBE1119:
 213:fjol.cpp      ****   for(int i = 0; i<15;i++)
 5411              		.loc 7 213 19 discriminator 2 view .LVU1521
 5412 009e A4B2     		uxth	r4, r4
 5413              	.LBB1120:
 5414              	.LBB1117:
 665:fjol.cpp      ****   i2c.WriteDataAtAddress(PCA9622_I2C_ADDRESS,channel+2,2,&pwm,2,10);
 5415              		.loc 7 665 25 discriminator 2 view .LVU1522
 5416 00a0 0095     		str	r5, [sp]
 5417 00a2 8DF88860 		strb	r6, [sp, #136]
 5418              	.LVL342:
 665:fjol.cpp      ****   i2c.WriteDataAtAddress(PCA9622_I2C_ADDRESS,channel+2,2,&pwm,2,10);
 5419              		.loc 7 665 25 discriminator 2 view .LVU1523
 5420              	.LBE1117:
 5421              	.LBI1114:
 663:fjol.cpp      **** void setpwm(uint8_t channel, uint8_t pwm)
 5422              		.loc 7 663 6 is_stmt 1 discriminator 2 view .LVU1524
 5423              	.LBB1118:
 665:fjol.cpp      ****   i2c.WriteDataAtAddress(PCA9622_I2C_ADDRESS,channel+2,2,&pwm,2,10);
 5424              		.loc 7 665 3 discriminator 2 view .LVU1525
 665:fjol.cpp      ****   i2c.WriteDataAtAddress(PCA9622_I2C_ADDRESS,channel+2,2,&pwm,2,10);
 5425              		.loc 7 665 25 is_stmt 0 discriminator 2 view .LVU1526
 5426 00a6 CDE90198 		strd	r9, r8, [sp, #4]
 5427 00aa FFF7FEFF 		bl	_ZN5daisy9I2CHandle18WriteDataAtAddressEtttPhtm
 5428              	.LVL343:
 665:fjol.cpp      ****   i2c.WriteDataAtAddress(PCA9622_I2C_ADDRESS,channel+2,2,&pwm,2,10);
 5429              		.loc 7 665 25 discriminator 2 view .LVU1527
 5430              	.LBE1118:
 5431              	.LBE1120:
 218:fjol.cpp      ****     System::Delay(25);
 5432              		.loc 7 218 5 is_stmt 1 discriminator 2 view .LVU1528
 218:fjol.cpp      ****     System::Delay(25);
 5433              		.loc 7 218 18 is_stmt 0 discriminator 2 view .LVU1529
 5434 00ae 1920     		movs	r0, #25
 5435 00b0 FFF7FEFF 		bl	_ZN5daisy6System5DelayEm
 5436              	.LVL344:
 213:fjol.cpp      ****   for(int i = 0; i<15;i++)
 5437              		.loc 7 213 3 is_stmt 1 discriminator 2 view .LVU1530
 213:fjol.cpp      ****   for(int i = 0; i<15;i++)
 5438              		.loc 7 213 19 discriminator 2 view .LVU1531
 5439 00b4 112C     		cmp	r4, #17
 5440 00b6 D9D1     		bne	.L337
 5441              	.LBE1110:
 220:fjol.cpp      ****   led_update(8);
 5442              		.loc 7 220 3 view .LVU1532
 220:fjol.cpp      ****   led_update(8);
 5443              		.loc 7 220 13 is_stmt 0 view .LVU1533
 5444 00b8 0820     		movs	r0, #8
 5445              	.LBB1121:
 5446              	.LBB1122:
  97:libDaisy/src/hid/midi.h **** 
 5447              		.loc 9 97 9 view .LVU1534
 5448 00ba 734F     		ldr	r7, .L383+36
 5449              	.LBE1122:
 5450              	.LBE1121:
ARM GAS  /tmp/ccxnfbgf.s 			page 157


 220:fjol.cpp      ****   led_update(8);
 5451              		.loc 7 220 13 view .LVU1535
 5452 00bc FFF7FEFF 		bl	_Z10led_updateh
 5453              	.LVL345:
 221:fjol.cpp      ****   MidiUartHandler::Config midi_config;
 5454              		.loc 7 221 3 is_stmt 1 view .LVU1536
 5455              	.LBB1151:
 5456              	.LBI1151:
  87:libDaisy/src/hid/midi.h ****     {
 5457              		.loc 9 87 12 view .LVU1537
 5458              	.LBB1152:
 5459              	.LBI1152:
  34:libDaisy/src/hid/midi.h ****         {
 5460              		.loc 9 34 9 view .LVU1538
 5461              	.LBE1152:
 5462              	.LBE1151:
  36:libDaisy/src/hid/midi.h ****             rx     = {DSY_GPIOB, 7};
 5463              		.loc 9 36 13 view .LVU1539
  37:libDaisy/src/hid/midi.h ****             tx     = {DSY_GPIOB, 6};
 5464              		.loc 9 37 13 view .LVU1540
  38:libDaisy/src/hid/midi.h ****         }
 5465              		.loc 9 38 13 view .LVU1541
 222:fjol.cpp      ****   midi.Init(midi_config);
 5466              		.loc 7 222 3 view .LVU1542
 5467              	.LBB1153:
 5468              	.LBI1121:
  95:libDaisy/src/hid/midi.h ****     {
 5469              		.loc 9 95 10 view .LVU1543
 5470              	.LBB1148:
 5471              	.LBB1123:
 5472              	.LBB1124:
 5473              	.LBB1125:
 5474              	.LBB1126:
 5475              	.LBB1127:
 5476              		.file 18 "libDaisy/src/per/uart.h"
   1:libDaisy/src/per/uart.h **** /* 
   2:libDaisy/src/per/uart.h **** TODO
   3:libDaisy/src/per/uart.h **** - UART1 defaults to DMA, add flexible config for DMA on all periphs
   4:libDaisy/src/per/uart.h **** - Transmit function improvements.
   5:libDaisy/src/per/uart.h **** - Overflow handling, etc. for Rx Queue.
   6:libDaisy/src/per/uart.h **** */
   7:libDaisy/src/per/uart.h **** 
   8:libDaisy/src/per/uart.h **** #pragma once
   9:libDaisy/src/per/uart.h **** #ifndef DSY_UART_H
  10:libDaisy/src/per/uart.h **** #define DSY_UART_H /**< macro */
  11:libDaisy/src/per/uart.h **** #include "daisy_core.h"
  12:libDaisy/src/per/uart.h **** 
  13:libDaisy/src/per/uart.h **** 
  14:libDaisy/src/per/uart.h **** namespace daisy
  15:libDaisy/src/per/uart.h **** {
  16:libDaisy/src/per/uart.h **** /** @addtogroup serial
  17:libDaisy/src/per/uart.h ****     @{
  18:libDaisy/src/per/uart.h ****     */
  19:libDaisy/src/per/uart.h **** 
  20:libDaisy/src/per/uart.h **** /** 
  21:libDaisy/src/per/uart.h ****     Uart Peripheral
  22:libDaisy/src/per/uart.h ****     @author shensley
ARM GAS  /tmp/ccxnfbgf.s 			page 158


  23:libDaisy/src/per/uart.h ****     @date March 2020
  24:libDaisy/src/per/uart.h ****     */
  25:libDaisy/src/per/uart.h **** class UartHandler
  26:libDaisy/src/per/uart.h **** {
  27:libDaisy/src/per/uart.h ****   public:
  28:libDaisy/src/per/uart.h ****     struct Config
  29:libDaisy/src/per/uart.h ****     {
  30:libDaisy/src/per/uart.h ****         enum class Peripheral
  31:libDaisy/src/per/uart.h ****         {
  32:libDaisy/src/per/uart.h ****             USART_1,
  33:libDaisy/src/per/uart.h ****             USART_2,
  34:libDaisy/src/per/uart.h ****             USART_3,
  35:libDaisy/src/per/uart.h ****             UART_4,
  36:libDaisy/src/per/uart.h ****             UART_5,
  37:libDaisy/src/per/uart.h ****             USART_6,
  38:libDaisy/src/per/uart.h ****             UART_7,
  39:libDaisy/src/per/uart.h ****             UART_8,
  40:libDaisy/src/per/uart.h ****             LPUART_1,
  41:libDaisy/src/per/uart.h ****         };
  42:libDaisy/src/per/uart.h **** 
  43:libDaisy/src/per/uart.h ****         enum class StopBits
  44:libDaisy/src/per/uart.h ****         {
  45:libDaisy/src/per/uart.h ****             BITS_0_5,
  46:libDaisy/src/per/uart.h ****             BITS_1,
  47:libDaisy/src/per/uart.h ****             BITS_1_5,
  48:libDaisy/src/per/uart.h ****             BITS_2,
  49:libDaisy/src/per/uart.h ****         };
  50:libDaisy/src/per/uart.h **** 
  51:libDaisy/src/per/uart.h ****         enum class Parity
  52:libDaisy/src/per/uart.h ****         {
  53:libDaisy/src/per/uart.h ****             NONE,
  54:libDaisy/src/per/uart.h ****             EVEN,
  55:libDaisy/src/per/uart.h ****             ODD,
  56:libDaisy/src/per/uart.h ****         };
  57:libDaisy/src/per/uart.h **** 
  58:libDaisy/src/per/uart.h ****         enum class Mode
  59:libDaisy/src/per/uart.h ****         {
  60:libDaisy/src/per/uart.h ****             RX,
  61:libDaisy/src/per/uart.h ****             TX,
  62:libDaisy/src/per/uart.h ****             TX_RX,
  63:libDaisy/src/per/uart.h ****         };
  64:libDaisy/src/per/uart.h **** 
  65:libDaisy/src/per/uart.h ****         enum class WordLength
  66:libDaisy/src/per/uart.h ****         {
  67:libDaisy/src/per/uart.h ****             BITS_7,
  68:libDaisy/src/per/uart.h ****             BITS_8,
  69:libDaisy/src/per/uart.h ****             BITS_9,
  70:libDaisy/src/per/uart.h ****         };
  71:libDaisy/src/per/uart.h **** 
  72:libDaisy/src/per/uart.h ****         struct
  73:libDaisy/src/per/uart.h ****         {
  74:libDaisy/src/per/uart.h ****             dsy_gpio_pin tx; /**< & */
  75:libDaisy/src/per/uart.h ****             dsy_gpio_pin rx; /**< & */
  76:libDaisy/src/per/uart.h ****         } pin_config;        /**< & */
  77:libDaisy/src/per/uart.h **** 
  78:libDaisy/src/per/uart.h ****         Config()
  79:libDaisy/src/per/uart.h ****         {
ARM GAS  /tmp/ccxnfbgf.s 			page 159


  80:libDaisy/src/per/uart.h ****             // user must init periph, pin_config, and mode
  81:libDaisy/src/per/uart.h ****             stopbits   = StopBits::BITS_1;
 5477              		.loc 18 81 24 is_stmt 0 view .LVU1544
 5478 00c0 0123     		movs	r3, #1
 5479              	.LBE1127:
 5480              	.LBE1126:
 5481              	.LBE1125:
 5482              	.LBE1124:
 5483              	.LBE1123:
  97:libDaisy/src/hid/midi.h **** 
 5484              		.loc 9 97 9 view .LVU1545
 5485 00c2 07F51044 		add	r4, r7, #36864
 5486              	.LBB1141:
 5487              	.LBB1137:
  58:libDaisy/src/hid/midi.h ****     }
 5488              		.loc 9 58 19 view .LVU1546
 5489 00c6 2946     		mov	r1, r5
 5490              	.LBB1134:
 5491              	.LBB1131:
 5492              	.LBB1128:
 5493              		.loc 18 81 24 view .LVU1547
 5494 00c8 2493     		str	r3, [sp, #144]
  82:libDaisy/src/per/uart.h ****             parity     = Parity::NONE;
  83:libDaisy/src/per/uart.h ****             wordlength = WordLength::BITS_8;
 5495              		.loc 18 83 24 view .LVU1548
 5496 00ca 2793     		str	r3, [sp, #156]
 5497              	.LBE1128:
 5498              	.LBE1131:
 5499              	.LBE1134:
 5500              	.LBE1137:
 5501              	.LBE1141:
  97:libDaisy/src/hid/midi.h **** 
 5502              		.loc 9 97 9 view .LVU1549
 5503 00cc A3F1F923 		sub	r3, r3, #-117376768
 5504              	.LBB1142:
 5505              	.LBB1138:
  58:libDaisy/src/hid/midi.h ****     }
 5506              		.loc 9 58 19 view .LVU1550
 5507 00d0 04F1B000 		add	r0, r4, #176
 5508              	.LBE1138:
 5509              	.LBE1142:
  97:libDaisy/src/hid/midi.h **** 
 5510              		.loc 9 97 9 view .LVU1551
 5511 00d4 C4F8A860 		str	r6, [r4, #168]
 5512 00d8 A3F57E03 		sub	r3, r3, #16646144
 5513              	.LBB1143:
 5514              	.LBB1139:
  50:libDaisy/src/hid/midi.h ****         uart_config.wordlength = UartHandler::Config::WordLength::BITS_8;
 5515              		.loc 9 50 32 view .LVU1552
 5516 00dc CDF89890 		str	r9, [sp, #152]
  54:libDaisy/src/hid/midi.h ****         uart_config.pin_config.rx = config.rx;
 5517              		.loc 9 54 35 view .LVU1553
 5518 00e0 2396     		str	r6, [sp, #140]
 5519              	.LBE1139:
 5520              	.LBE1143:
  97:libDaisy/src/hid/midi.h **** 
 5521              		.loc 9 97 9 view .LVU1554
ARM GAS  /tmp/ccxnfbgf.s 			page 160


 5522 00e2 C4F8AC30 		str	r3, [r4, #172]
 5523              	.LVL346:
 5524              	.LBB1144:
 5525              	.LBI1123:
  42:libDaisy/src/hid/midi.h ****     {
 5526              		.loc 9 42 17 is_stmt 1 view .LVU1555
 5527              	.LBB1140:
  44:libDaisy/src/hid/midi.h **** 
 5528              		.loc 9 44 9 view .LVU1556
 5529              	.LBB1135:
 5530              	.LBI1125:
  78:libDaisy/src/per/uart.h ****         {
 5531              		.loc 18 78 9 view .LVU1557
 5532              	.LBB1132:
 5533              	.LBB1129:
  81:libDaisy/src/per/uart.h ****             parity     = Parity::NONE;
 5534              		.loc 18 81 13 view .LVU1558
  82:libDaisy/src/per/uart.h ****             wordlength = WordLength::BITS_8;
 5535              		.loc 18 82 13 view .LVU1559
 5536              		.loc 18 83 13 view .LVU1560
  84:libDaisy/src/per/uart.h ****             baudrate   = 4800;
 5537              		.loc 18 84 13 view .LVU1561
 5538              		.loc 18 84 13 is_stmt 0 view .LVU1562
 5539              	.LBE1129:
 5540              	.LBE1132:
 5541              	.LBE1135:
  47:libDaisy/src/hid/midi.h ****         uart_config.stopbits   = UartHandler::Config::StopBits::BITS_1;
 5542              		.loc 9 47 9 is_stmt 1 view .LVU1563
  48:libDaisy/src/hid/midi.h ****         uart_config.parity     = UartHandler::Config::Parity::NONE;
 5543              		.loc 9 48 9 view .LVU1564
  49:libDaisy/src/hid/midi.h ****         uart_config.mode       = UartHandler::Config::Mode::TX_RX;
 5544              		.loc 9 49 9 view .LVU1565
  50:libDaisy/src/hid/midi.h ****         uart_config.wordlength = UartHandler::Config::WordLength::BITS_8;
 5545              		.loc 9 50 9 view .LVU1566
  51:libDaisy/src/hid/midi.h **** 
 5546              		.loc 9 51 9 view .LVU1567
  54:libDaisy/src/hid/midi.h ****         uart_config.pin_config.rx = config.rx;
 5547              		.loc 9 54 9 view .LVU1568
  55:libDaisy/src/hid/midi.h ****         uart_config.pin_config.tx = config.tx;
 5548              		.loc 9 55 9 view .LVU1569
  56:libDaisy/src/hid/midi.h **** 
 5549              		.loc 9 56 9 view .LVU1570
 5550              	.LBB1136:
 5551              	.LBB1133:
  79:libDaisy/src/per/uart.h ****             // user must init periph, pin_config, and mode
 5552              		.loc 18 79 9 is_stmt 0 view .LVU1571
 5553 00e6 03F57F03 		add	r3, r3, #16711680
 5554              	.LBB1130:
  82:libDaisy/src/per/uart.h ****             wordlength = WordLength::BITS_8;
 5555              		.loc 18 82 24 view .LVU1572
 5556 00ea 2596     		str	r6, [sp, #148]
 5557              	.LBE1130:
  79:libDaisy/src/per/uart.h ****             // user must init periph, pin_config, and mode
 5558              		.loc 18 79 9 view .LVU1573
 5559 00ec 03F57F43 		add	r3, r3, #65280
 5560 00f0 DFF8B0B1 		ldr	fp, .L383+64
 5561 00f4 DFF8B0A1 		ldr	r10, .L383+68
ARM GAS  /tmp/ccxnfbgf.s 			page 161


 5562 00f8 2293     		str	r3, [sp, #136]
 5563              	.LBE1133:
 5564              	.LBE1136:
  47:libDaisy/src/hid/midi.h ****         uart_config.stopbits   = UartHandler::Config::StopBits::BITS_1;
 5565              		.loc 9 47 32 view .LVU1574
 5566 00fa 47F61223 		movw	r3, #31250
 5567 00fe DFF8AC91 		ldr	r9, .L383+72
 5568 0102 2893     		str	r3, [sp, #160]
  58:libDaisy/src/hid/midi.h ****     }
 5569              		.loc 9 58 9 is_stmt 1 view .LVU1575
  58:libDaisy/src/hid/midi.h ****     }
 5570              		.loc 9 58 19 is_stmt 0 view .LVU1576
 5571 0104 FFF7FEFF 		bl	_ZN5daisy11UartHandler4InitERKNS0_6ConfigE
 5572              	.LVL347:
  58:libDaisy/src/hid/midi.h ****     }
 5573              		.loc 9 58 19 view .LVU1577
 5574              	.LBE1140:
 5575              	.LBE1144:
 5576              	.LBB1145:
 5577              	.LBI1145:
  24:libDaisy/src/util/ringbuffer.h **** 
 5578              		.loc 17 24 17 is_stmt 1 view .LVU1578
 5579              	.LBE1145:
 102:libDaisy/src/hid/midi.h ****         pstate_                = ParserEmpty;
 5580              		.loc 9 102 32 is_stmt 0 view .LVU1579
 5581 0108 87F80880 		strb	r8, [r7, #8]
 5582              	.LBE1148:
 5583              	.LBE1153:
 5584              	.LBB1154:
 5585              	.LBB1155:
 5586              	.LBB1156:
 5587              	.LBB1157:
  61:libDaisy/src/hid/midi.h ****     inline size_t  Readable() { return uart_.Readable(); }
 5588              		.loc 9 61 45 view .LVU1580
 5589 010c 04F1B000 		add	r0, r4, #176
 5590 0110 DFF89C81 		ldr	r8, .L383+76
 5591              	.LBE1157:
 5592              	.LBE1156:
 5593              	.LBE1155:
 5594              	.LBE1154:
 5595              	.LBB1164:
 5596              	.LBB1149:
 5597              	.LBB1147:
 5598              	.LBB1146:
  24:libDaisy/src/util/ringbuffer.h **** 
 5599              		.loc 17 24 49 view .LVU1581
 5600 0114 C4F89C60 		str	r6, [r4, #156]
  24:libDaisy/src/util/ringbuffer.h **** 
 5601              		.loc 17 24 36 view .LVU1582
 5602 0118 C4F89860 		str	r6, [r4, #152]
 5603              	.LVL348:
  24:libDaisy/src/util/ringbuffer.h **** 
 5604              		.loc 17 24 36 view .LVU1583
 5605              	.LBE1146:
 5606              	.LBE1147:
 5607              	.LBE1149:
 5608              	.LBE1164:
ARM GAS  /tmp/ccxnfbgf.s 			page 162


 223:fjol.cpp      ****   midi.StartReceive();
 5609              		.loc 7 223 3 is_stmt 1 view .LVU1584
 5610              	.LBB1165:
 5611              	.LBI1154:
 107:libDaisy/src/hid/midi.h **** 
 5612              		.loc 9 107 10 view .LVU1585
 5613              	.LBB1162:
 5614              	.LBB1160:
 5615              	.LBI1156:
  61:libDaisy/src/hid/midi.h ****     inline size_t  Readable() { return uart_.Readable(); }
 5616              		.loc 9 61 20 view .LVU1586
 5617              	.LBB1158:
  61:libDaisy/src/hid/midi.h ****     inline size_t  Readable() { return uart_.Readable(); }
 5618              		.loc 9 61 32 view .LVU1587
 5619              	.LBE1158:
 5620              	.LBE1160:
 5621              	.LBE1162:
 5622              	.LBE1165:
 5623              	.LBB1166:
 5624              	.LBB1150:
 103:libDaisy/src/hid/midi.h ****     }
 5625              		.loc 9 103 32 is_stmt 0 view .LVU1588
 5626 011c 3E71     		strb	r6, [r7, #4]
 5627              	.LBE1150:
 5628              	.LBE1166:
 5629              	.LBB1167:
 5630              	.LBB1163:
 5631              	.LBB1161:
 5632              	.LBB1159:
  61:libDaisy/src/hid/midi.h ****     inline size_t  Readable() { return uart_.Readable(); }
 5633              		.loc 9 61 45 view .LVU1589
 5634 011e FFF7FEFF 		bl	_ZN5daisy11UartHandler7StartRxEv
 5635              	.LVL349:
 5636              	.L351:
  61:libDaisy/src/hid/midi.h ****     inline size_t  Readable() { return uart_.Readable(); }
 5637              		.loc 9 61 45 view .LVU1590
 5638              	.LBE1159:
 5639              	.LBE1161:
 5640              	.LBE1163:
 5641              	.LBE1167:
 224:fjol.cpp      ****   while(1)
 5642              		.loc 7 224 3 is_stmt 1 view .LVU1591
 5643              	.LBB1168:
 226:fjol.cpp      ****     updatecontrols();
 5644              		.loc 7 226 5 view .LVU1592
 226:fjol.cpp      ****     updatecontrols();
 5645              		.loc 7 226 19 is_stmt 0 view .LVU1593
 5646 0122 FFF7FEFF 		bl	_Z14updatecontrolsv
 5647              	.LVL350:
 228:fjol.cpp      ****     midi.Listen();
 5648              		.loc 7 228 5 is_stmt 1 view .LVU1594
 5649              	.LBB1169:
 5650              	.LBI1169:
 110:libDaisy/src/hid/midi.h ****     {
 5651              		.loc 9 110 10 view .LVU1595
 5652              	.LBB1170:
 113:libDaisy/src/hid/midi.h ****         while(transport_.Readable())
ARM GAS  /tmp/ccxnfbgf.s 			page 163


 5653              		.loc 9 113 29 is_stmt 0 view .LVU1596
 5654 0126 FFF7FEFF 		bl	_ZN5daisy6System6GetNowEv
 5655              	.LVL351:
 5656 012a 0646     		mov	r6, r0
 5657              	.LVL352:
 113:libDaisy/src/hid/midi.h ****         while(transport_.Readable())
 5658              		.loc 9 113 29 view .LVU1597
 5659 012c 07E0     		b	.L340
 5660              	.LVL353:
 5661              	.L381:
 116:libDaisy/src/hid/midi.h ****             Parse(transport_.Rx());
 5662              		.loc 9 116 24 view .LVU1598
 5663 012e C4F8A060 		str	r6, [r4, #160]
 5664              	.LVL354:
 5665              	.LBB1171:
 5666              	.LBI1171:
  63:libDaisy/src/hid/midi.h ****     inline bool    RxActive() { return uart_.RxActive(); }
 5667              		.loc 9 63 20 is_stmt 1 view .LVU1599
 5668              	.LBB1172:
  63:libDaisy/src/hid/midi.h ****     inline bool    RxActive() { return uart_.RxActive(); }
 5669              		.loc 9 63 27 view .LVU1600
  63:libDaisy/src/hid/midi.h ****     inline bool    RxActive() { return uart_.RxActive(); }
 5670              		.loc 9 63 45 is_stmt 0 view .LVU1601
 5671 0132 FFF7FEFF 		bl	_ZN5daisy11UartHandler5PopRxEv
 5672              	.LVL355:
  63:libDaisy/src/hid/midi.h ****     inline bool    RxActive() { return uart_.RxActive(); }
 5673              		.loc 9 63 45 view .LVU1602
 5674 0136 0146     		mov	r1, r0
 5675              	.LBE1172:
 5676              	.LBE1171:
 117:libDaisy/src/hid/midi.h ****         }
 5677              		.loc 9 117 18 view .LVU1603
 5678 0138 5348     		ldr	r0, .L383+36
 5679 013a FFF7FEFF 		bl	_ZN5daisy11MidiHandlerINS_17MidiUartTransportEE5ParseEh
 5680              	.LVL356:
 5681              	.L340:
 114:libDaisy/src/hid/midi.h ****         {
 5682              		.loc 9 114 34 is_stmt 1 view .LVU1604
 5683              	.LBB1174:
 5684              	.LBI1174:
  62:libDaisy/src/hid/midi.h ****     inline uint8_t Rx() { return uart_.PopRx(); }
 5685              		.loc 9 62 20 view .LVU1605
 5686              	.LBB1175:
  62:libDaisy/src/hid/midi.h ****     inline uint8_t Rx() { return uart_.PopRx(); }
 5687              		.loc 9 62 33 view .LVU1606
  62:libDaisy/src/hid/midi.h ****     inline uint8_t Rx() { return uart_.PopRx(); }
 5688              		.loc 9 62 54 is_stmt 0 view .LVU1607
 5689 013e 5348     		ldr	r0, .L383+40
 5690              	.LVL357:
  62:libDaisy/src/hid/midi.h ****     inline uint8_t Rx() { return uart_.PopRx(); }
 5691              		.loc 9 62 54 view .LVU1608
 5692 0140 FFF7FEFF 		bl	_ZN5daisy11UartHandler8ReadableEv
 5693              	.LVL358:
  62:libDaisy/src/hid/midi.h ****     inline uint8_t Rx() { return uart_.PopRx(); }
 5694              		.loc 9 62 54 view .LVU1609
 5695 0144 0346     		mov	r3, r0
 5696              	.LBE1175:
ARM GAS  /tmp/ccxnfbgf.s 			page 164


 5697              	.LBE1174:
 5698              	.LBB1176:
 5699              	.LBB1173:
  63:libDaisy/src/hid/midi.h ****     inline bool    RxActive() { return uart_.RxActive(); }
 5700              		.loc 9 63 45 view .LVU1610
 5701 0146 5148     		ldr	r0, .L383+40
 5702              	.LBE1173:
 5703              	.LBE1176:
 114:libDaisy/src/hid/midi.h ****         {
 5704              		.loc 9 114 34 view .LVU1611
 5705 0148 002B     		cmp	r3, #0
 5706 014a F0D1     		bne	.L381
 5707              	.LVL359:
 5708              	.L339:
 114:libDaisy/src/hid/midi.h ****         {
 5709              		.loc 9 114 34 view .LVU1612
 5710              	.LBE1170:
 5711              	.LBE1169:
 230:fjol.cpp      ****     while(midi.HasEvents())
 5712              		.loc 7 230 5 is_stmt 1 view .LVU1613
 230:fjol.cpp      ****     while(midi.HasEvents())
 5713              		.loc 7 230 25 view .LVU1614
 5714              	.LBB1177:
 5715              	.LBI1177:
 134:libDaisy/src/hid/midi.h **** 
 5716              		.loc 9 134 10 view .LVU1615
 5717              	.LBB1178:
 5718              	.LBI1178:
  36:libDaisy/src/util/ringbuffer.h **** 
 5719              		.loc 17 36 19 view .LVU1616
 5720              	.LBB1179:
  36:libDaisy/src/util/ringbuffer.h **** 
 5721              		.loc 17 36 46 is_stmt 0 view .LVU1617
 5722 014c D4F89C30 		ldr	r3, [r4, #156]
  36:libDaisy/src/util/ringbuffer.h **** 
 5723              		.loc 17 36 59 view .LVU1618
 5724 0150 D4F89820 		ldr	r2, [r4, #152]
 5725              	.LVL360:
  36:libDaisy/src/util/ringbuffer.h **** 
 5726              		.loc 17 36 57 view .LVU1619
 5727 0154 9B1A     		subs	r3, r3, r2
  36:libDaisy/src/util/ringbuffer.h **** 
 5728              		.loc 17 36 72 view .LVU1620
 5729 0156 DBB2     		uxtb	r3, r3
 5730              	.LBE1179:
 5731              	.LBE1178:
 5732              	.LBE1177:
 230:fjol.cpp      ****     while(midi.HasEvents())
 5733              		.loc 7 230 25 view .LVU1621
 5734 0158 03B3     		cbz	r3, .L341
 5735              	.L342:
 5736              	.LBB1181:
 5737              	.LBB1182:
 5738              	.LBB1183:
  59:libDaisy/src/util/ringbuffer.h ****     }
  60:libDaisy/src/util/ringbuffer.h **** 
  61:libDaisy/src/util/ringbuffer.h ****     /** Reads the first available element from the ring buffer
ARM GAS  /tmp/ccxnfbgf.s 			page 165


  62:libDaisy/src/util/ringbuffer.h ****     \return read value
  63:libDaisy/src/util/ringbuffer.h ****      */
  64:libDaisy/src/util/ringbuffer.h ****     inline T Read()
  65:libDaisy/src/util/ringbuffer.h ****     {
  66:libDaisy/src/util/ringbuffer.h ****         while(!readable())
 5739              		.loc 17 66 24 is_stmt 1 view .LVU1622
 5740              	.LVL361:
 5741              	.LBB1184:
 5742              	.LBI1184:
  36:libDaisy/src/util/ringbuffer.h **** 
 5743              		.loc 17 36 19 view .LVU1623
 5744              	.LBB1185:
  36:libDaisy/src/util/ringbuffer.h **** 
 5745              		.loc 17 36 46 is_stmt 0 view .LVU1624
 5746 015a D4F89C30 		ldr	r3, [r4, #156]
  36:libDaisy/src/util/ringbuffer.h **** 
 5747              		.loc 17 36 59 view .LVU1625
 5748 015e D4F89820 		ldr	r2, [r4, #152]
 5749              	.LVL362:
  36:libDaisy/src/util/ringbuffer.h **** 
 5750              		.loc 17 36 57 view .LVU1626
 5751 0162 9B1A     		subs	r3, r3, r2
  36:libDaisy/src/util/ringbuffer.h **** 
 5752              		.loc 17 36 72 view .LVU1627
 5753 0164 DBB2     		uxtb	r3, r3
 5754              	.LBE1185:
 5755              	.LBE1184:
 5756              		.loc 17 66 24 view .LVU1628
 5757 0166 002B     		cmp	r3, #0
 5758 0168 F7D0     		beq	.L342
 5759              	.LVL363:
 5760              	.LBB1186:
 5761              	.LBI1186:
  67:libDaisy/src/util/ringbuffer.h ****             ;
  68:libDaisy/src/util/ringbuffer.h ****         return ImmediateRead();
  69:libDaisy/src/util/ringbuffer.h ****     }
  70:libDaisy/src/util/ringbuffer.h **** 
  71:libDaisy/src/util/ringbuffer.h ****     /** Reads next element from ring buffer immediately
  72:libDaisy/src/util/ringbuffer.h ****     \return read value
  73:libDaisy/src/util/ringbuffer.h ****      */
  74:libDaisy/src/util/ringbuffer.h ****     inline T ImmediateRead()
 5762              		.loc 17 74 14 is_stmt 1 view .LVU1629
 5763              	.LBB1187:
  75:libDaisy/src/util/ringbuffer.h ****     {
  76:libDaisy/src/util/ringbuffer.h ****         size_t r      = read_ptr_;
 5764              		.loc 17 76 16 is_stmt 0 view .LVU1630
 5765 016a D4F89860 		ldr	r6, [r4, #152]
 5766              	.LVL364:
  77:libDaisy/src/util/ringbuffer.h ****         T      result = buffer_[r];
 5767              		.loc 17 77 16 view .LVU1631
 5768 016e 9022     		movs	r2, #144
 5769              	.LVL365:
 5770              		.loc 17 77 16 view .LVU1632
 5771 0170 2846     		mov	r0, r5
 5772 0172 06EBC601 		add	r1, r6, r6, lsl #3
  78:libDaisy/src/util/ringbuffer.h ****         read_ptr_     = (r + 1) % size;
 5773              		.loc 17 78 28 view .LVU1633
ARM GAS  /tmp/ccxnfbgf.s 			page 166


 5774 0176 0136     		adds	r6, r6, #1
 5775              	.LVL366:
  77:libDaisy/src/util/ringbuffer.h ****         T      result = buffer_[r];
 5776              		.loc 17 77 16 view .LVU1634
 5777 0178 07EB0111 		add	r1, r7, r1, lsl #4
 5778              		.loc 17 78 33 view .LVU1635
 5779 017c F6B2     		uxtb	r6, r6
  77:libDaisy/src/util/ringbuffer.h ****         T      result = buffer_[r];
 5780              		.loc 17 77 16 view .LVU1636
 5781 017e 9831     		adds	r1, r1, #152
 5782 0180 FFF7FEFF 		bl	memcpy
 5783              	.LVL367:
  77:libDaisy/src/util/ringbuffer.h ****         T      result = buffer_[r];
 5784              		.loc 17 77 16 view .LVU1637
 5785              	.LBE1187:
 5786              	.LBE1186:
 5787              	.LBE1183:
 5788              	.LBE1182:
 5789              	.LBE1181:
 232:fjol.cpp      ****       HandleMidiMessage(midi.PopEvent());
 5790              		.loc 7 232 24 view .LVU1638
 5791 0184 26A9     		add	r1, sp, #152
 5792 0186 8022     		movs	r2, #128
 5793 0188 6846     		mov	r0, sp
 5794              	.LBB1192:
 5795              	.LBB1191:
 5796              	.LBB1190:
 5797              	.LBB1189:
 5798              	.LBB1188:
 5799              		.loc 17 78 23 view .LVU1639
 5800 018a C4F89860 		str	r6, [r4, #152]
 5801              	.LVL368:
 5802              		.loc 17 78 23 view .LVU1640
 5803              	.LBE1188:
 5804              	.LBE1189:
 5805              	.LBE1190:
 5806              	.LBE1191:
 5807              	.LBE1192:
 232:fjol.cpp      ****       HandleMidiMessage(midi.PopEvent());
 5808              		.loc 7 232 24 view .LVU1641
 5809 018e FFF7FEFF 		bl	memcpy
 5810              	.LVL369:
 5811 0192 95E80F00 		ldm	r5, {r0, r1, r2, r3}
 5812 0196 FFF7FEFF 		bl	_Z17HandleMidiMessageN5daisy9MidiEventE
 5813              	.LVL370:
 230:fjol.cpp      ****     while(midi.HasEvents())
 5814              		.loc 7 230 5 is_stmt 1 view .LVU1642
 230:fjol.cpp      ****     while(midi.HasEvents())
 5815              		.loc 7 230 25 view .LVU1643
 5816              	.LBB1193:
 134:libDaisy/src/hid/midi.h **** 
 5817              		.loc 9 134 10 view .LVU1644
 5818              	.LBB1180:
  36:libDaisy/src/util/ringbuffer.h **** 
 5819              		.loc 17 36 19 view .LVU1645
 5820 019a D7E7     		b	.L339
 5821              	.LVL371:
ARM GAS  /tmp/ccxnfbgf.s 			page 167


 5822              	.L341:
  36:libDaisy/src/util/ringbuffer.h **** 
 5823              		.loc 17 36 19 is_stmt 0 view .LVU1646
 5824              	.LBE1180:
 5825              	.LBE1193:
 234:fjol.cpp      ****     if(led_takeover == 0)
 5826              		.loc 7 234 5 is_stmt 1 view .LVU1647
 5827              	.LBB1194:
 5828 019c 98F80060 		ldrb	r6, [r8]	@ zero_extendqisi2
 5829 01a0 2EB3     		cbz	r6, .L344
 5830              	.L349:
 5831              	.LBE1194:
 247:fjol.cpp      ****     if( led_takeover == 1 && ((System::GetNow()- ledlastmillis) >= 500) )
 5832              		.loc 7 247 46 is_stmt 0 view .LVU1648
 5833 01a2 FFF7FEFF 		bl	_ZN5daisy6System6GetNowEv
 5834              	.LVL372:
 247:fjol.cpp      ****     if( led_takeover == 1 && ((System::GetNow()- ledlastmillis) >= 500) )
 5835              		.loc 7 247 48 view .LVU1649
 5836 01a6 DBF80030 		ldr	r3, [fp]
 5837 01aa C01A     		subs	r0, r0, r3
 247:fjol.cpp      ****     if( led_takeover == 1 && ((System::GetNow()- ledlastmillis) >= 500) )
 5838              		.loc 7 247 27 view .LVU1650
 5839 01ac B0F5FA7F 		cmp	r0, #500
 5840 01b0 4DD2     		bcs	.L382
 5841              	.L350:
 255:fjol.cpp      ****     if ((System::GetNow() - lastMillis) >= glidetime)
 5842              		.loc 7 255 5 is_stmt 1 view .LVU1651
 255:fjol.cpp      ****     if ((System::GetNow() - lastMillis) >= glidetime)
 5843              		.loc 7 255 24 is_stmt 0 view .LVU1652
 5844 01b2 FFF7FEFF 		bl	_ZN5daisy6System6GetNowEv
 5845              	.LVL373:
 255:fjol.cpp      ****     if ((System::GetNow() - lastMillis) >= glidetime)
 5846              		.loc 7 255 27 view .LVU1653
 5847 01b6 DAF80030 		ldr	r3, [r10]
 255:fjol.cpp      ****     if ((System::GetNow() - lastMillis) >= glidetime)
 5848              		.loc 7 255 5 view .LVU1654
 5849 01ba 99ED007A 		vldr.32	s14, [r9]
 255:fjol.cpp      ****     if ((System::GetNow() - lastMillis) >= glidetime)
 5850              		.loc 7 255 27 view .LVU1655
 5851 01be C01A     		subs	r0, r0, r3
 255:fjol.cpp      ****     if ((System::GetNow() - lastMillis) >= glidetime)
 5852              		.loc 7 255 41 view .LVU1656
 5853 01c0 07EE900A 		vmov	s15, r0	@ int
 5854 01c4 F8EE677A 		vcvt.f32.u32	s15, s15
 255:fjol.cpp      ****     if ((System::GetNow() - lastMillis) >= glidetime)
 5855              		.loc 7 255 5 view .LVU1657
 5856 01c8 F4EEC77A 		vcmpe.f32	s15, s14
 5857 01cc F1EE10FA 		vmrs	APSR_nzcv, FPSCR
 5858 01d0 A7DB     		blt	.L351
 257:fjol.cpp      ****       lastMillis = System::GetNow(); //get ready for the next iteration
 5859              		.loc 7 257 7 is_stmt 1 view .LVU1658
 257:fjol.cpp      ****       lastMillis = System::GetNow(); //get ready for the next iteration
 5860              		.loc 7 257 34 is_stmt 0 view .LVU1659
 5861 01d2 FFF7FEFF 		bl	_ZN5daisy6System6GetNowEv
 5862              	.LVL374:
 5863              	.LBB1202:
 5864              	.LBB1203:
ARM GAS  /tmp/ccxnfbgf.s 			page 168


 5865              	.LBB1204:
 353:fjol.cpp      ****   if (glidetime > 0)
 5866              		.loc 7 353 17 view .LVU1660
 5867 01d6 D9ED007A 		vldr.32	s15, [r9]
 5868              	.LBE1204:
 5869              	.LBE1203:
 5870              	.LBE1202:
 257:fjol.cpp      ****       lastMillis = System::GetNow(); //get ready for the next iteration
 5871              		.loc 7 257 18 view .LVU1661
 5872 01da CAF80000 		str	r0, [r10]
 258:fjol.cpp      ****       glideval();
 5873              		.loc 7 258 7 is_stmt 1 view .LVU1662
 5874              	.LBB1211:
 5875              	.LBI1202:
 350:fjol.cpp      **** void glideval()
 5876              		.loc 7 350 6 view .LVU1663
 5877              	.LBB1209:
 352:fjol.cpp      ****   int voicenumb = 4;
 5878              		.loc 7 352 3 view .LVU1664
 5879              	.LVL375:
 353:fjol.cpp      ****   if (glidetime > 0)
 5880              		.loc 7 353 3 view .LVU1665
 5881              	.LBB1207:
 5882 01de F5EEC07A 		vcmpe.f32	s15, #0
 5883 01e2 F1EE10FA 		vmrs	APSR_nzcv, FPSCR
 5884 01e6 21DD     		ble	.L378
 5885              	.LBE1207:
 5886 01e8 FFF7FEFF 		bl	_Z8glidevalv.part.0
 5887              	.LVL376:
 5888 01ec 99E7     		b	.L351
 5889              	.LVL377:
 5890              	.L344:
 353:fjol.cpp      ****   if (glidetime > 0)
 5891              		.loc 7 353 3 is_stmt 0 view .LVU1666
 5892 01ee 284B     		ldr	r3, .L383+44
 5893              	.L348:
 5894              	.LVL378:
 353:fjol.cpp      ****   if (glidetime > 0)
 5895              		.loc 7 353 3 view .LVU1667
 5896              	.LBE1209:
 5897              	.LBE1211:
 5898              	.LBB1212:
 5899              	.LBB1195:
 238:fjol.cpp      ****         if(params_changed[i] == 1 && !(midi_sw.Pressed()) && !(algo_sw.Pressed()) && !(shift_sw.Pre
 5900              		.loc 7 238 9 is_stmt 1 view .LVU1668
 5901              	.LBB1196:
 5902              	.LBI1196:
 5903              		.loc 1 79 17 view .LVU1669
 5904              	.LBB1197:
 5905              		.loc 1 79 35 view .LVU1670
 5906              		.loc 1 79 35 is_stmt 0 view .LVU1671
 5907              	.LBE1197:
 5908              	.LBE1196:
 238:fjol.cpp      ****         if(params_changed[i] == 1 && !(midi_sw.Pressed()) && !(algo_sw.Pressed()) && !(shift_sw.Pre
 5909              		.loc 7 238 83 view .LVU1672
 5910 01f0 13F8012F 		ldrb	r2, [r3, #1]!	@ zero_extendqisi2
 5911 01f4 92B1     		cbz	r2, .L347
ARM GAS  /tmp/ccxnfbgf.s 			page 169


 5912              	.LVL379:
 5913              	.LBB1198:
 5914              	.LBI1198:
 5915              		.loc 1 79 17 is_stmt 1 view .LVU1673
 5916              	.LBB1199:
 5917              		.loc 1 79 35 view .LVU1674
 5918              		.loc 1 79 35 is_stmt 0 view .LVU1675
 5919              	.LBE1199:
 5920              	.LBE1198:
 5921              	.LBB1200:
 5922              	.LBI1200:
 5923              		.loc 1 79 17 is_stmt 1 view .LVU1676
 5924              	.LBB1201:
 5925              		.loc 1 79 35 view .LVU1677
 5926              		.loc 1 79 35 is_stmt 0 view .LVU1678
 5927              	.LBE1201:
 5928              	.LBE1200:
 238:fjol.cpp      ****         if(params_changed[i] == 1 && !(midi_sw.Pressed()) && !(algo_sw.Pressed()) && !(shift_sw.Pre
 5929              		.loc 7 238 35 view .LVU1679
 5930 01f6 274A     		ldr	r2, .L383+48
 5931 01f8 927A     		ldrb	r2, [r2, #10]	@ zero_extendqisi2
 5932 01fa FF2A     		cmp	r2, #255
 5933 01fc 0ED0     		beq	.L347
 238:fjol.cpp      ****         if(params_changed[i] == 1 && !(midi_sw.Pressed()) && !(algo_sw.Pressed()) && !(shift_sw.Pre
 5934              		.loc 7 238 59 view .LVU1680
 5935 01fe 264A     		ldr	r2, .L383+52
 5936 0200 927A     		ldrb	r2, [r2, #10]	@ zero_extendqisi2
 5937 0202 FF2A     		cmp	r2, #255
 5938 0204 0AD0     		beq	.L347
 240:fjol.cpp      ****           led_update(i);
 5939              		.loc 7 240 11 is_stmt 1 view .LVU1681
 238:fjol.cpp      ****         if(params_changed[i] == 1 && !(midi_sw.Pressed()) && !(algo_sw.Pressed()) && !(shift_sw.Pre
 5940              		.loc 7 238 83 is_stmt 0 view .LVU1682
 5941 0206 1D4A     		ldr	r2, .L383+24
 240:fjol.cpp      ****           led_update(i);
 5942              		.loc 7 240 21 view .LVU1683
 5943 0208 F0B2     		uxtb	r0, r6
 238:fjol.cpp      ****         if(params_changed[i] == 1 && !(midi_sw.Pressed()) && !(algo_sw.Pressed()) && !(shift_sw.Pre
 5944              		.loc 7 238 83 view .LVU1684
 5945 020a 927A     		ldrb	r2, [r2, #10]	@ zero_extendqisi2
 5946 020c FF2A     		cmp	r2, #255
 5947 020e 05D0     		beq	.L347
 5948 0210 2193     		str	r3, [sp, #132]
 240:fjol.cpp      ****           led_update(i);
 5949              		.loc 7 240 21 view .LVU1685
 5950 0212 FFF7FEFF 		bl	_Z10led_updateh
 5951              	.LVL380:
 241:fjol.cpp      ****           params_changed[i] = 0; 
 5952              		.loc 7 241 11 is_stmt 1 view .LVU1686
 241:fjol.cpp      ****           params_changed[i] = 0; 
 5953              		.loc 7 241 29 is_stmt 0 view .LVU1687
 5954 0216 0022     		movs	r2, #0
 5955 0218 219B     		ldr	r3, [sp, #132]
 5956 021a 1A70     		strb	r2, [r3]
 5957              	.L347:
 236:fjol.cpp      ****       for(int i = 0;i<8;i++)
 5958              		.loc 7 236 7 is_stmt 1 discriminator 2 view .LVU1688
ARM GAS  /tmp/ccxnfbgf.s 			page 170


 5959 021c 0136     		adds	r6, r6, #1
 5960              	.LVL381:
 236:fjol.cpp      ****       for(int i = 0;i<8;i++)
 5961              		.loc 7 236 22 discriminator 2 view .LVU1689
 5962 021e 082E     		cmp	r6, #8
 5963 0220 E6D1     		bne	.L348
 5964              	.LBE1195:
 5965              	.LBE1212:
 247:fjol.cpp      ****     if( led_takeover == 1 && ((System::GetNow()- ledlastmillis) >= 500) )
 5966              		.loc 7 247 5 view .LVU1690
 247:fjol.cpp      ****     if( led_takeover == 1 && ((System::GetNow()- ledlastmillis) >= 500) )
 5967              		.loc 7 247 27 is_stmt 0 view .LVU1691
 5968 0222 98F80030 		ldrb	r3, [r8]	@ zero_extendqisi2
 5969 0226 002B     		cmp	r3, #0
 5970 0228 C3D0     		beq	.L350
 5971 022a BAE7     		b	.L349
 5972              	.LVL382:
 5973              	.L378:
 247:fjol.cpp      ****     if( led_takeover == 1 && ((System::GetNow()- ledlastmillis) >= 500) )
 5974              		.loc 7 247 27 view .LVU1692
 5975              	.LBE1168:
 376:fjol.cpp      ****   else if (glidetime == 0)
 5976              		.loc 7 376 8 is_stmt 1 view .LVU1693
 5977              	.LBB1214:
 5978              	.LBB1213:
 5979              	.LBB1210:
 5980              	.LBB1208:
 5981              	.LBB1205:
 5982 022c F5EE407A 		vcmp.f32	s15, #0
 5983 0230 F1EE10FA 		vmrs	APSR_nzcv, FPSCR
 5984 0234 7FF475AF 		bne	.L351
 5985              	.LVL383:
 5986              	.LBB1206:
 378:fjol.cpp      ****     for (int i = 0; i < voicenumb; i++)
 5987              		.loc 7 378 23 view .LVU1694
 380:fjol.cpp      ****       voicefreq[i] = voicefreqtarget[i];
 5988              		.loc 7 380 7 view .LVU1695
 380:fjol.cpp      ****       voicefreq[i] = voicefreqtarget[i];
 5989              		.loc 7 380 20 is_stmt 0 view .LVU1696
 5990 0238 184A     		ldr	r2, .L383+56
 5991 023a 1949     		ldr	r1, .L383+60
 5992 023c 1368     		ldr	r3, [r2]	@ float
 5993 023e 0B60     		str	r3, [r1]	@ float
 378:fjol.cpp      ****     for (int i = 0; i < voicenumb; i++)
 5994              		.loc 7 378 5 is_stmt 1 view .LVU1697
 5995              	.LVL384:
 378:fjol.cpp      ****     for (int i = 0; i < voicenumb; i++)
 5996              		.loc 7 378 23 view .LVU1698
 380:fjol.cpp      ****       voicefreq[i] = voicefreqtarget[i];
 5997              		.loc 7 380 7 view .LVU1699
 380:fjol.cpp      ****       voicefreq[i] = voicefreqtarget[i];
 5998              		.loc 7 380 20 is_stmt 0 view .LVU1700
 5999 0240 5368     		ldr	r3, [r2, #4]	@ float
 6000 0242 4B60     		str	r3, [r1, #4]	@ float
 378:fjol.cpp      ****     for (int i = 0; i < voicenumb; i++)
 6001              		.loc 7 378 5 is_stmt 1 view .LVU1701
 6002              	.LVL385:
ARM GAS  /tmp/ccxnfbgf.s 			page 171


 378:fjol.cpp      ****     for (int i = 0; i < voicenumb; i++)
 6003              		.loc 7 378 23 view .LVU1702
 380:fjol.cpp      ****       voicefreq[i] = voicefreqtarget[i];
 6004              		.loc 7 380 7 view .LVU1703
 380:fjol.cpp      ****       voicefreq[i] = voicefreqtarget[i];
 6005              		.loc 7 380 20 is_stmt 0 view .LVU1704
 6006 0244 9368     		ldr	r3, [r2, #8]	@ float
 6007 0246 8B60     		str	r3, [r1, #8]	@ float
 378:fjol.cpp      ****     for (int i = 0; i < voicenumb; i++)
 6008              		.loc 7 378 5 is_stmt 1 view .LVU1705
 6009              	.LVL386:
 378:fjol.cpp      ****     for (int i = 0; i < voicenumb; i++)
 6010              		.loc 7 378 23 view .LVU1706
 380:fjol.cpp      ****       voicefreq[i] = voicefreqtarget[i];
 6011              		.loc 7 380 7 view .LVU1707
 380:fjol.cpp      ****       voicefreq[i] = voicefreqtarget[i];
 6012              		.loc 7 380 20 is_stmt 0 view .LVU1708
 6013 0248 D368     		ldr	r3, [r2, #12]	@ float
 6014 024a CB60     		str	r3, [r1, #12]	@ float
 378:fjol.cpp      ****     for (int i = 0; i < voicenumb; i++)
 6015              		.loc 7 378 5 is_stmt 1 view .LVU1709
 6016              	.LVL387:
 378:fjol.cpp      ****     for (int i = 0; i < voicenumb; i++)
 6017              		.loc 7 378 23 view .LVU1710
 378:fjol.cpp      ****     for (int i = 0; i < voicenumb; i++)
 6018              		.loc 7 378 23 is_stmt 0 view .LVU1711
 6019 024c 69E7     		b	.L351
 6020              	.LVL388:
 6021              	.L382:
 378:fjol.cpp      ****     for (int i = 0; i < voicenumb; i++)
 6022              		.loc 7 378 23 view .LVU1712
 6023              	.LBE1206:
 6024              	.LBE1205:
 6025              	.LBE1208:
 6026              	.LBE1210:
 6027              	.LBE1213:
 249:fjol.cpp      ****        led_takeover = 0;
 6028              		.loc 7 249 8 is_stmt 1 view .LVU1713
 249:fjol.cpp      ****        led_takeover = 0;
 6029              		.loc 7 249 21 is_stmt 0 view .LVU1714
 6030 024e 0023     		movs	r3, #0
 251:fjol.cpp      ****        led_update(8); //update all leds
 6031              		.loc 7 251 18 view .LVU1715
 6032 0250 0820     		movs	r0, #8
 249:fjol.cpp      ****        led_takeover = 0;
 6033              		.loc 7 249 21 view .LVU1716
 6034 0252 88F80030 		strb	r3, [r8]
 251:fjol.cpp      ****        led_update(8); //update all leds
 6035              		.loc 7 251 8 is_stmt 1 view .LVU1717
 251:fjol.cpp      ****        led_update(8); //update all leds
 6036              		.loc 7 251 18 is_stmt 0 view .LVU1718
 6037 0256 FFF7FEFF 		bl	_Z10led_updateh
 6038              	.LVL389:
 6039 025a AAE7     		b	.L350
 6040              	.LVL390:
 6041              	.L380:
 251:fjol.cpp      ****        led_update(8); //update all leds
ARM GAS  /tmp/ccxnfbgf.s 			page 172


 6042              		.loc 7 251 18 view .LVU1719
 6043              	.LBE1214:
 200:fjol.cpp      ****     calibrate();
 6044              		.loc 7 200 5 is_stmt 1 view .LVU1720
 200:fjol.cpp      ****     calibrate();
 6045              		.loc 7 200 14 is_stmt 0 view .LVU1721
 6046 025c FFF7FEFF 		bl	_Z9calibratev
 6047              	.LVL391:
 6048 0260 F2E6     		b	.L336
 6049              	.L384:
 6050 0262 00BF     		.align	2
 6051              	.L383:
 6052 0264 00000000 		.word	.LC5
 6053 0268 00000000 		.word	.LANCHOR16
 6054 026c 00000000 		.word	.LANCHOR15
 6055 0270 00000000 		.word	.LANCHOR12
 6056 0274 18000000 		.word	.LANCHOR13+24
 6057 0278 00000000 		.word	.LANCHOR13
 6058 027c 00000000 		.word	.LANCHOR7
 6059 0280 00000000 		.word	samplerate
 6060 0284 00000000 		.word	_ZL13AudioCallbackPKfPfj
 6061 0288 00000000 		.word	midi
 6062 028c B0900000 		.word	midi+37040
 6063 0290 FFFFFFFF 		.word	params_changed-1
 6064 0294 00000000 		.word	.LANCHOR9
 6065 0298 00000000 		.word	.LANCHOR8
 6066 029c 00000000 		.word	voicefreqtarget
 6067 02a0 00000000 		.word	voicefreq
 6068 02a4 00000000 		.word	ledlastmillis
 6069 02a8 00000000 		.word	lastMillis
 6070 02ac 00000000 		.word	glidetime
 6071 02b0 00000000 		.word	led_takeover
 6072              		.cfi_endproc
 6073              	.LFE4811:
 6075              		.section	.text.startup._GLOBAL__sub_I_i2c,"ax",%progbits
 6076              		.align	1
 6077              		.p2align 2,,3
 6078              		.syntax unified
 6079              		.thumb
 6080              		.thumb_func
 6082              	_GLOBAL__sub_I_i2c:
 6083              	.LFB5451:
 6084              		.loc 7 739 1 is_stmt 1 view -0
 6085              		.cfi_startproc
 6086              		@ args = 0, pretend = 0, frame = 0
 6087              		@ frame_needed = 0, uses_anonymous_args = 0
 6088              	.LBB1304:
 6089              	.LBI1304:
 6090              		.loc 7 739 1 view .LVU1723
 6091              	.LVL392:
 6092              	.LBB1305:
 6093              	.LBB1306:
 6094              	.LBI1306:
  21:libDaisy/src/daisy_seed.h ****     ~DaisySeed() {}
 6095              		.loc 2 21 5 view .LVU1724
 6096              	.LBB1307:
 6097              	.LBB1308:
ARM GAS  /tmp/ccxnfbgf.s 			page 173


 6098              	.LBI1308:
 6099              		.file 19 "libDaisy/src/per/qspi.h"
   1:libDaisy/src/per/qspi.h **** #ifndef DSY_QSPI
   2:libDaisy/src/per/qspi.h **** #define DSY_QSPI /**< Macro */
   3:libDaisy/src/per/qspi.h **** 
   4:libDaisy/src/per/qspi.h **** #ifndef UNIT_TEST // for unit tests, a dummy implementation
   5:libDaisy/src/per/qspi.h **** 
   6:libDaisy/src/per/qspi.h **** #include <cstdint>
   7:libDaisy/src/per/qspi.h **** #include "daisy_core.h" // Added for dsy_gpio_pin typedef
   8:libDaisy/src/per/qspi.h **** 
   9:libDaisy/src/per/qspi.h **** #define DSY_QSPI_TEXT       \
  10:libDaisy/src/per/qspi.h ****     __attribute__((section( \
  11:libDaisy/src/per/qspi.h ****         ".qspiflash_text"))) /**< used for reading memory in memory_mapped mode. */
  12:libDaisy/src/per/qspi.h **** #define DSY_QSPI_DATA       \
  13:libDaisy/src/per/qspi.h ****     __attribute__((section( \
  14:libDaisy/src/per/qspi.h ****         ".qspiflash_data"))) /**< used for reading memory in memory_mapped mode. */
  15:libDaisy/src/per/qspi.h **** #define DSY_QSPI_BSS        \
  16:libDaisy/src/per/qspi.h ****     __attribute__((section( \
  17:libDaisy/src/per/qspi.h ****         ".qspiflash_bss"))) /**< used for reading memory in memory_mapped mode. */
  18:libDaisy/src/per/qspi.h **** 
  19:libDaisy/src/per/qspi.h **** namespace daisy
  20:libDaisy/src/per/qspi.h **** {
  21:libDaisy/src/per/qspi.h **** /** @addtogroup serial
  22:libDaisy/src/per/qspi.h **** @{
  23:libDaisy/src/per/qspi.h **** */
  24:libDaisy/src/per/qspi.h **** 
  25:libDaisy/src/per/qspi.h **** /** 
  26:libDaisy/src/per/qspi.h ****  Driver for QSPI peripheral to interface with external flash memory. \n 
  27:libDaisy/src/per/qspi.h ****     Currently supported QSPI Devices: \n 
  28:libDaisy/src/per/qspi.h ****     * IS25LP080D
  29:libDaisy/src/per/qspi.h **** */
  30:libDaisy/src/per/qspi.h **** class QSPIHandle
  31:libDaisy/src/per/qspi.h **** {
  32:libDaisy/src/per/qspi.h ****   public:
  33:libDaisy/src/per/qspi.h ****     enum Result
  34:libDaisy/src/per/qspi.h ****     {
  35:libDaisy/src/per/qspi.h ****         OK = 0,
  36:libDaisy/src/per/qspi.h ****         ERR
  37:libDaisy/src/per/qspi.h ****     };
  38:libDaisy/src/per/qspi.h **** 
  39:libDaisy/src/per/qspi.h ****     /** Indicates the current status of the module. 
  40:libDaisy/src/per/qspi.h ****          *  Warnings are indicated by a leading W.
  41:libDaisy/src/per/qspi.h ****          *  Errors are indicated by a leading E and cause an immediate exit.
  42:libDaisy/src/per/qspi.h ****          * 
  43:libDaisy/src/per/qspi.h ****          *  \param GOOD - No errors have been reported.
  44:libDaisy/src/per/qspi.h ****          *  \param E_HAL_ERROR - HAL code did not return HAL_OK.
  45:libDaisy/src/per/qspi.h ****          *  \param E_SWITCHING_MODES - An error was encountered while switching QSPI peripheral mod
  46:libDaisy/src/per/qspi.h ****          *  \param E_INVALID_MODE - QSPI should not be written to while the program is executing fr
  47:libDaisy/src/per/qspi.h ****          */
  48:libDaisy/src/per/qspi.h ****     enum Status
  49:libDaisy/src/per/qspi.h ****     {
  50:libDaisy/src/per/qspi.h ****         GOOD = 0,
  51:libDaisy/src/per/qspi.h ****         E_HAL_ERROR,
  52:libDaisy/src/per/qspi.h ****         E_SWITCHING_MODES,
  53:libDaisy/src/per/qspi.h ****         E_INVALID_MODE,
  54:libDaisy/src/per/qspi.h ****     };
  55:libDaisy/src/per/qspi.h **** 
ARM GAS  /tmp/ccxnfbgf.s 			page 174


  56:libDaisy/src/per/qspi.h ****     /** Configuration structure for interfacing with QSPI Driver */
  57:libDaisy/src/per/qspi.h ****     struct Config
  58:libDaisy/src/per/qspi.h ****     {
  59:libDaisy/src/per/qspi.h ****         /** Flash Devices supported. (Both of these are more-or-less the same, just different sizes
  60:libDaisy/src/per/qspi.h ****         enum Device
  61:libDaisy/src/per/qspi.h ****         {
  62:libDaisy/src/per/qspi.h ****             IS25LP080D,  /**< & */
  63:libDaisy/src/per/qspi.h ****             IS25LP064A,  /**< & */
  64:libDaisy/src/per/qspi.h ****             DEVICE_LAST, /**< & */
  65:libDaisy/src/per/qspi.h ****         };
  66:libDaisy/src/per/qspi.h **** 
  67:libDaisy/src/per/qspi.h ****         /** 
  68:libDaisy/src/per/qspi.h ****         Modes of operation.
  69:libDaisy/src/per/qspi.h ****         Memory Mapped mode: QSPI configured so that the QSPI can be
  70:libDaisy/src/per/qspi.h ****         read from starting address 0x90000000. Writing is not
  71:libDaisy/src/per/qspi.h ****         possible in this mode. \n 
  72:libDaisy/src/per/qspi.h ****         Indirect Polling mode: Device driver enabled. 
  73:libDaisy/src/per/qspi.h ****         */
  74:libDaisy/src/per/qspi.h ****         enum Mode
  75:libDaisy/src/per/qspi.h ****         {
  76:libDaisy/src/per/qspi.h ****             MEMORY_MAPPED,    /**< & */
  77:libDaisy/src/per/qspi.h ****             INDIRECT_POLLING, /**< & */
  78:libDaisy/src/per/qspi.h ****             MODE_LAST,
  79:libDaisy/src/per/qspi.h ****         };
  80:libDaisy/src/per/qspi.h **** 
  81:libDaisy/src/per/qspi.h ****         //SCK,  CE# (active low)
  82:libDaisy/src/per/qspi.h ****         struct
  83:libDaisy/src/per/qspi.h ****         {
  84:libDaisy/src/per/qspi.h ****             dsy_gpio_pin io0; /**< & */
  85:libDaisy/src/per/qspi.h ****             dsy_gpio_pin io1; /**< & */
  86:libDaisy/src/per/qspi.h ****             dsy_gpio_pin io2; /**< & */
  87:libDaisy/src/per/qspi.h ****             dsy_gpio_pin io3; /**< & */
  88:libDaisy/src/per/qspi.h ****             dsy_gpio_pin clk; /**< & */
  89:libDaisy/src/per/qspi.h ****             dsy_gpio_pin ncs; /**< & */
  90:libDaisy/src/per/qspi.h ****         } pin_config;
  91:libDaisy/src/per/qspi.h **** 
  92:libDaisy/src/per/qspi.h ****         Device device;
  93:libDaisy/src/per/qspi.h ****         Mode   mode;
  94:libDaisy/src/per/qspi.h ****     };
  95:libDaisy/src/per/qspi.h **** 
  96:libDaisy/src/per/qspi.h ****     /** 
  97:libDaisy/src/per/qspi.h ****         Initializes QSPI peripheral, and Resets, and prepares memory for access.
  98:libDaisy/src/per/qspi.h ****         \param config should be populated with the mode, device and pin_config before calling this 
  99:libDaisy/src/per/qspi.h ****         \return Result::OK or Result::ERR
 100:libDaisy/src/per/qspi.h ****         */
 101:libDaisy/src/per/qspi.h ****     Result Init(const Config& config);
 102:libDaisy/src/per/qspi.h **** 
 103:libDaisy/src/per/qspi.h ****     /** Returns the current config. */
 104:libDaisy/src/per/qspi.h ****     const Config& GetConfig() const;
 105:libDaisy/src/per/qspi.h **** 
 106:libDaisy/src/per/qspi.h ****     // Couldn't this just be called before anything else in init? That
 107:libDaisy/src/per/qspi.h ****     // would make manually calling it unnecessary.
 108:libDaisy/src/per/qspi.h ****     /** 
 109:libDaisy/src/per/qspi.h ****         Deinitializes the peripheral
 110:libDaisy/src/per/qspi.h ****         This should be called before reinitializing QSPI in a different mode.
 111:libDaisy/src/per/qspi.h ****         \return Result::OK or Result::ERR
 112:libDaisy/src/per/qspi.h ****         */
ARM GAS  /tmp/ccxnfbgf.s 			page 175


 113:libDaisy/src/per/qspi.h ****     Result DeInit();
 114:libDaisy/src/per/qspi.h **** 
 115:libDaisy/src/per/qspi.h ****     /** 
 116:libDaisy/src/per/qspi.h ****         Writes a single page to to the specified address on the QSPI chip.
 117:libDaisy/src/per/qspi.h ****         For IS25LP*, page size is 256 bytes.
 118:libDaisy/src/per/qspi.h ****         \param address Address to write to
 119:libDaisy/src/per/qspi.h ****         \param size Buffer size
 120:libDaisy/src/per/qspi.h ****         \param buffer Buffer to write
 121:libDaisy/src/per/qspi.h ****         \return Result::OK or Result::ERR
 122:libDaisy/src/per/qspi.h ****         */
 123:libDaisy/src/per/qspi.h ****     Result WritePage(uint32_t address, uint32_t size, uint8_t* buffer);
 124:libDaisy/src/per/qspi.h **** 
 125:libDaisy/src/per/qspi.h ****     /** 
 126:libDaisy/src/per/qspi.h ****         Writes data in buffer to to the QSPI. Starting at address to address+size 
 127:libDaisy/src/per/qspi.h ****         \param address Address to write to
 128:libDaisy/src/per/qspi.h ****         \param size Buffer size
 129:libDaisy/src/per/qspi.h ****         \param buffer Buffer to write
 130:libDaisy/src/per/qspi.h ****         \return Result::OK or Result::ERR
 131:libDaisy/src/per/qspi.h ****         */
 132:libDaisy/src/per/qspi.h ****     Result Write(uint32_t address, uint32_t size, uint8_t* buffer);
 133:libDaisy/src/per/qspi.h **** 
 134:libDaisy/src/per/qspi.h ****     /** 
 135:libDaisy/src/per/qspi.h ****         Erases the area specified on the chip.
 136:libDaisy/src/per/qspi.h ****         Erasures will happen by 4K, 32K or 64K increments.
 137:libDaisy/src/per/qspi.h ****         Smallest erase possible is 4kB at a time. (on IS25LP*)
 138:libDaisy/src/per/qspi.h ****         \param start_addr Address to begin erasing from
 139:libDaisy/src/per/qspi.h ****         \param end_addr  Address to stop erasing at
 140:libDaisy/src/per/qspi.h ****         \return Result::OK or Result::ERR
 141:libDaisy/src/per/qspi.h ****         */
 142:libDaisy/src/per/qspi.h ****     Result Erase(uint32_t start_addr, uint32_t end_addr);
 143:libDaisy/src/per/qspi.h **** 
 144:libDaisy/src/per/qspi.h ****     /**  
 145:libDaisy/src/per/qspi.h ****          Erases a single sector of the chip.  
 146:libDaisy/src/per/qspi.h ****         TODO: Document the size of this function. 
 147:libDaisy/src/per/qspi.h ****         \param address Address of sector to erase
 148:libDaisy/src/per/qspi.h ****         \return Result::OK or Result::ERR
 149:libDaisy/src/per/qspi.h ****         */
 150:libDaisy/src/per/qspi.h ****     Result EraseSector(uint32_t address);
 151:libDaisy/src/per/qspi.h **** 
 152:libDaisy/src/per/qspi.h ****     /** Returns the current class status. Useful for debugging.
 153:libDaisy/src/per/qspi.h ****      *  \returns Status
 154:libDaisy/src/per/qspi.h ****      */
 155:libDaisy/src/per/qspi.h ****     Status GetStatus();
 156:libDaisy/src/per/qspi.h **** 
 157:libDaisy/src/per/qspi.h ****     /** Returns a pointer to the actual memory used 
 158:libDaisy/src/per/qspi.h ****      *  The memory at this address is read-only
 159:libDaisy/src/per/qspi.h ****      *  to write to it use the Write function.
 160:libDaisy/src/per/qspi.h ****      * 
 161:libDaisy/src/per/qspi.h ****      *  \param offset returns the pointer starting this 
 162:libDaisy/src/per/qspi.h ****      *                many bytes into the memory
 163:libDaisy/src/per/qspi.h ****     */
 164:libDaisy/src/per/qspi.h ****     void* GetData(uint32_t offset = 0);
 165:libDaisy/src/per/qspi.h **** 
 166:libDaisy/src/per/qspi.h ****     QSPIHandle() : pimpl_(nullptr) {}
 6100              		.loc 19 166 5 view .LVU1725
 6101              	.LBE1308:
 6102              	.LBE1307:
ARM GAS  /tmp/ccxnfbgf.s 			page 176


 6103              	.LBE1306:
 6104              	.LBE1305:
 6105              	.LBE1304:
 6106              		.loc 7 739 1 is_stmt 0 view .LVU1726
 6107 0000 F8B5     		push	{r3, r4, r5, r6, r7, lr}
 6108              		.cfi_def_cfa_offset 24
 6109              		.cfi_offset 3, -24
 6110              		.cfi_offset 4, -20
 6111              		.cfi_offset 5, -16
 6112              		.cfi_offset 6, -12
 6113              		.cfi_offset 7, -8
 6114              		.cfi_offset 14, -4
 6115              	.LBB1442:
 6116              	.LBB1440:
 6117              	.LBB1326:
 6118              	.LBB1324:
 6119              	.LBB1313:
 6120              	.LBB1309:
 6121              	.LBB1310:
 6122              		.loc 19 166 34 view .LVU1727
 6123 0002 0024     		movs	r4, #0
 6124 0004 5C4E     		ldr	r6, .L391
 6125              	.LBE1310:
 6126              	.LBE1309:
 6127              	.LBE1313:
 6128              	.LBE1324:
 6129              	.LBE1326:
 6130              	.LBB1327:
 6131              	.LBB1328:
 6132              	.LBB1329:
 6133              		.file 20 "libDaisy/src/util/PersistentStorage.h"
   1:libDaisy/src/util/PersistentStorage.h **** #pragma once
   2:libDaisy/src/util/PersistentStorage.h **** 
   3:libDaisy/src/util/PersistentStorage.h **** #include "daisy_core.h"
   4:libDaisy/src/util/PersistentStorage.h **** #include "per/qspi.h"
   5:libDaisy/src/util/PersistentStorage.h **** 
   6:libDaisy/src/util/PersistentStorage.h **** namespace daisy
   7:libDaisy/src/util/PersistentStorage.h **** {
   8:libDaisy/src/util/PersistentStorage.h **** /** @brief Non Volatile storage class for persistent settings on an external flash device.
   9:libDaisy/src/util/PersistentStorage.h ****  *  @author shensley
  10:libDaisy/src/util/PersistentStorage.h ****  * 
  11:libDaisy/src/util/PersistentStorage.h ****  *  Storage occupied by the struct will be one word larger than 
  12:libDaisy/src/util/PersistentStorage.h ****  *  the SettingStruct used. The extra word is used to store the
  13:libDaisy/src/util/PersistentStorage.h ****  *  state of the data, and whether it's been overwritten or not.
  14:libDaisy/src/util/PersistentStorage.h ****  * 
  15:libDaisy/src/util/PersistentStorage.h ****  *  \todo - Make Save() non-blocking
  16:libDaisy/src/util/PersistentStorage.h ****  *  \todo - Add wear leveling
  17:libDaisy/src/util/PersistentStorage.h ****  * 
  18:libDaisy/src/util/PersistentStorage.h ****  **/
  19:libDaisy/src/util/PersistentStorage.h **** template <typename SettingStruct>
  20:libDaisy/src/util/PersistentStorage.h **** class PersistentStorage
  21:libDaisy/src/util/PersistentStorage.h **** {
  22:libDaisy/src/util/PersistentStorage.h ****   public:
  23:libDaisy/src/util/PersistentStorage.h ****     /** State of the storage. 
  24:libDaisy/src/util/PersistentStorage.h ****      *  When created, prior to initialiation, the state will be Unknown
  25:libDaisy/src/util/PersistentStorage.h ****      *  
  26:libDaisy/src/util/PersistentStorage.h ****      *  During initialization, the state will be changed to either FACTORY,
ARM GAS  /tmp/ccxnfbgf.s 			page 177


  27:libDaisy/src/util/PersistentStorage.h ****      *  or USER. 
  28:libDaisy/src/util/PersistentStorage.h ****      * 
  29:libDaisy/src/util/PersistentStorage.h ****      *  If this is the first time these settings are being written to the
  30:libDaisy/src/util/PersistentStorage.h ****      *  target address, the defaults will be written to that location,
  31:libDaisy/src/util/PersistentStorage.h ****      *  and the state will be set to FACTORY.
  32:libDaisy/src/util/PersistentStorage.h ****      * 
  33:libDaisy/src/util/PersistentStorage.h ****      *  Once the first user-trigger save has been made, the state will be 
  34:libDaisy/src/util/PersistentStorage.h ****      *  updated to USER to indicate that the defaults have overwritten.
  35:libDaisy/src/util/PersistentStorage.h ****      */
  36:libDaisy/src/util/PersistentStorage.h ****     enum class State
  37:libDaisy/src/util/PersistentStorage.h ****     {
  38:libDaisy/src/util/PersistentStorage.h ****         UNKNOWN = 0,
  39:libDaisy/src/util/PersistentStorage.h ****         FACTORY = 1,
  40:libDaisy/src/util/PersistentStorage.h ****         USER    = 2,
  41:libDaisy/src/util/PersistentStorage.h ****     };
  42:libDaisy/src/util/PersistentStorage.h **** 
  43:libDaisy/src/util/PersistentStorage.h ****     /** Constructor for storage class 
  44:libDaisy/src/util/PersistentStorage.h ****      *  \param qspi reference to the hardware qspi peripheral.
  45:libDaisy/src/util/PersistentStorage.h ****      */
  46:libDaisy/src/util/PersistentStorage.h ****     PersistentStorage(QSPIHandle &qspi)
  47:libDaisy/src/util/PersistentStorage.h ****     : qspi_(qspi),
  48:libDaisy/src/util/PersistentStorage.h ****       address_offset_(0),
  49:libDaisy/src/util/PersistentStorage.h ****       default_settings_(),
  50:libDaisy/src/util/PersistentStorage.h ****       settings_(),
  51:libDaisy/src/util/PersistentStorage.h ****       state_(State::UNKNOWN)
 6134              		.loc 20 51 28 view .LVU1728
 6135 0006 5D4D     		ldr	r5, .L391+4
 6136              	.LBB1330:
 6137              	.LBB1331:
  11:fjol.cpp      **** struct data
 6138              		.loc 7 11 8 view .LVU1729
 6139 0008 5D4F     		ldr	r7, .L391+8
 6140              	.LBE1331:
 6141              	.LBE1330:
 6142              	.LBE1329:
 6143              	.LBE1328:
 6144              	.LBE1327:
   8:fjol.cpp      **** static DaisySeed  hw;
 6145              		.loc 7 8 19 view .LVU1730
 6146 000a 3046     		mov	r0, r6
 6147              	.LBB1352:
 6148              	.LBB1325:
 6149              	.LBB1314:
 6150              	.LBB1312:
 6151              	.LBB1311:
 6152              		.loc 19 166 34 view .LVU1731
 6153 000c 3460     		str	r4, [r6]
 6154              	.LVL393:
 6155              		.loc 19 166 34 view .LVU1732
 6156              	.LBE1311:
 6157              	.LBE1312:
 6158              	.LBE1314:
 6159              	.LBB1315:
 6160              	.LBI1315:
  95:libDaisy/src/hid/audio.h ****     ~AudioHandle() {}
 6161              		.loc 6 95 5 is_stmt 1 view .LVU1733
 6162              	.LBB1316:
ARM GAS  /tmp/ccxnfbgf.s 			page 178


 6163              	.LBB1317:
  95:libDaisy/src/hid/audio.h ****     ~AudioHandle() {}
 6164              		.loc 6 95 35 is_stmt 0 view .LVU1734
 6165 000e 7461     		str	r4, [r6, #20]
 6166              	.LVL394:
  95:libDaisy/src/hid/audio.h ****     ~AudioHandle() {}
 6167              		.loc 6 95 35 view .LVU1735
 6168              	.LBE1317:
 6169              	.LBE1316:
 6170              	.LBE1315:
 6171              	.LBB1318:
 6172              	.LBI1318:
  92:libDaisy/src/per/adc.h ****     ~AdcHandle() {}
 6173              		.loc 5 92 5 is_stmt 1 view .LVU1736
  92:libDaisy/src/per/adc.h ****     ~AdcHandle() {}
 6174              		.loc 5 92 5 is_stmt 0 view .LVU1737
 6175              	.LBE1318:
 6176              	.LBB1319:
 6177              	.LBI1319:
 6178              		.file 21 "libDaisy/src/per/dac.h"
   1:libDaisy/src/per/dac.h **** #pragma once
   2:libDaisy/src/per/dac.h **** #ifndef DSY_DAC_H
   3:libDaisy/src/per/dac.h **** #define DSY_DAC_H
   4:libDaisy/src/per/dac.h **** 
   5:libDaisy/src/per/dac.h **** #include "daisy_core.h"
   6:libDaisy/src/per/dac.h **** 
   7:libDaisy/src/per/dac.h **** namespace daisy
   8:libDaisy/src/per/dac.h **** {
   9:libDaisy/src/per/dac.h **** /** @brief DAC handle for Built-in DAC Peripheral 
  10:libDaisy/src/per/dac.h ****  *  @ingroup per_analog
  11:libDaisy/src/per/dac.h ****  ** 
  12:libDaisy/src/per/dac.h ****  ** For now only Normal Mode is supported,
  13:libDaisy/src/per/dac.h ****  ** Sample and hold mode provides reduced power consumption, but requires a bit more setup.
  14:libDaisy/src/per/dac.h ****  **
  15:libDaisy/src/per/dac.h ****  ** For now connecting the DAC through other internal peripherals is also not supported.
  16:libDaisy/src/per/dac.h ****  **
  17:libDaisy/src/per/dac.h ****  ** Since the DAC channels have dedicated pins we don't need to pass in a pin config like with
  18:libDaisy/src/per/dac.h ****  ** other modules. However, it is still important to not try to use the DAC pins for anything else.
  19:libDaisy/src/per/dac.h ****  ** DAC Channel 1 is on PA4, and DAC Channel 2 is on PA5
  20:libDaisy/src/per/dac.h ****  ***/
  21:libDaisy/src/per/dac.h **** class DacHandle
  22:libDaisy/src/per/dac.h **** {
  23:libDaisy/src/per/dac.h ****   public:
  24:libDaisy/src/per/dac.h ****     /** Return Values for the DacHandle class */
  25:libDaisy/src/per/dac.h ****     enum class Result
  26:libDaisy/src/per/dac.h ****     {
  27:libDaisy/src/per/dac.h ****         OK,
  28:libDaisy/src/per/dac.h ****         ERR,
  29:libDaisy/src/per/dac.h ****     };
  30:libDaisy/src/per/dac.h **** 
  31:libDaisy/src/per/dac.h ****     /** Selects which channel(s) will be configured for use. */
  32:libDaisy/src/per/dac.h ****     enum class Channel
  33:libDaisy/src/per/dac.h ****     {
  34:libDaisy/src/per/dac.h ****         ONE,
  35:libDaisy/src/per/dac.h ****         TWO,
  36:libDaisy/src/per/dac.h ****         BOTH,
  37:libDaisy/src/per/dac.h ****     };
ARM GAS  /tmp/ccxnfbgf.s 			page 179


  38:libDaisy/src/per/dac.h **** 
  39:libDaisy/src/per/dac.h ****     /** Sets the Mode for the DAC channels.
  40:libDaisy/src/per/dac.h ****      **
  41:libDaisy/src/per/dac.h ****      ** Polling mode uses the blocking mode to transmit a single value at a time.
  42:libDaisy/src/per/dac.h ****      **
  43:libDaisy/src/per/dac.h ****      ** DMA mode uses a buffer, and periodically transmits it triggering a 
  44:libDaisy/src/per/dac.h ****      ** callback to fill the buffer when it is ready for more samples.
  45:libDaisy/src/per/dac.h ****      ***/
  46:libDaisy/src/per/dac.h ****     enum class Mode
  47:libDaisy/src/per/dac.h ****     {
  48:libDaisy/src/per/dac.h ****         POLLING,
  49:libDaisy/src/per/dac.h ****         DMA,
  50:libDaisy/src/per/dac.h ****     };
  51:libDaisy/src/per/dac.h **** 
  52:libDaisy/src/per/dac.h ****     /** Sets the number of bits per sample transmitted out of the DAC.
  53:libDaisy/src/per/dac.h ****      ** The output range will be: 0V - VDDA
  54:libDaisy/src/per/dac.h ****      ** The resolution will be roughly: bitdepth / (VDDA - 0V) 
  55:libDaisy/src/per/dac.h ****      ***/
  56:libDaisy/src/per/dac.h ****     enum class BitDepth
  57:libDaisy/src/per/dac.h ****     {
  58:libDaisy/src/per/dac.h ****         BITS_8,
  59:libDaisy/src/per/dac.h ****         BITS_12
  60:libDaisy/src/per/dac.h ****     };
  61:libDaisy/src/per/dac.h **** 
  62:libDaisy/src/per/dac.h ****     /** Sets whether the DAC output is buffered for higher drive ability. */
  63:libDaisy/src/per/dac.h ****     enum class BufferState
  64:libDaisy/src/per/dac.h ****     {
  65:libDaisy/src/per/dac.h ****         ENABLED,
  66:libDaisy/src/per/dac.h ****         DISABLED,
  67:libDaisy/src/per/dac.h ****     };
  68:libDaisy/src/per/dac.h **** 
  69:libDaisy/src/per/dac.h ****     /** Configuration structure for initializing the DAC structure. */
  70:libDaisy/src/per/dac.h ****     struct Config
  71:libDaisy/src/per/dac.h ****     {
  72:libDaisy/src/per/dac.h ****         /** Target Samplerate in Hz used to configure the internal 
  73:libDaisy/src/per/dac.h ****          ** timebase for DMA mode. Does nothing in POLLING mode.
  74:libDaisy/src/per/dac.h ****          ** If the value is 0 at Init time this will default to 48000Hz 
  75:libDaisy/src/per/dac.h ****          ** otherwise the driver will attempt meet the target.*/
  76:libDaisy/src/per/dac.h ****         uint32_t target_samplerate;
  77:libDaisy/src/per/dac.h **** 
  78:libDaisy/src/per/dac.h ****         Channel     chn;
  79:libDaisy/src/per/dac.h ****         Mode        mode;
  80:libDaisy/src/per/dac.h ****         BitDepth    bitdepth;
  81:libDaisy/src/per/dac.h ****         BufferState buff_state;
  82:libDaisy/src/per/dac.h ****     };
  83:libDaisy/src/per/dac.h **** 
  84:libDaisy/src/per/dac.h ****     DacHandle() : pimpl_(nullptr) {}
 6179              		.loc 21 84 5 is_stmt 1 view .LVU1738
 6180              	.LBB1320:
 6181              	.LBB1321:
 6182              		.loc 21 84 33 is_stmt 0 view .LVU1739
 6183 0010 3462     		str	r4, [r6, #32]
 6184              	.LVL395:
 6185              		.loc 21 84 33 view .LVU1740
 6186              	.LBE1321:
 6187              	.LBE1320:
 6188              	.LBE1319:
ARM GAS  /tmp/ccxnfbgf.s 			page 180


 6189              	.LBB1322:
 6190              	.LBI1322:
  40:libDaisy/src/hid/usb.h **** 
 6191              		.loc 4 40 5 is_stmt 1 view .LVU1741
  40:libDaisy/src/hid/usb.h **** 
 6192              		.loc 4 40 5 is_stmt 0 view .LVU1742
 6193              	.LBE1322:
 6194              	.LBB1323:
 6195              	.LBI1323:
  77:libDaisy/src/sys/system.h ****     ~System() {}
 6196              		.loc 3 77 5 is_stmt 1 view .LVU1743
  77:libDaisy/src/sys/system.h ****     ~System() {}
 6197              		.loc 3 77 5 is_stmt 0 view .LVU1744
 6198              	.LBE1323:
 6199              	.LBE1325:
 6200              	.LBE1352:
   8:fjol.cpp      **** static DaisySeed  hw;
 6201              		.loc 7 8 19 view .LVU1745
 6202 0012 5C4A     		ldr	r2, .L391+12
 6203 0014 5C49     		ldr	r1, .L391+16
 6204 0016 FFF7FEFF 		bl	__aeabi_atexit
 6205              	.LVL396:
 6206              	.LBB1353:
 6207              	.LBI1353:
 6208              		.file 22 "libDaisy/src/per/i2c.h"
   1:libDaisy/src/per/i2c.h **** #pragma once
   2:libDaisy/src/per/i2c.h **** #include "daisy_core.h"
   3:libDaisy/src/per/i2c.h **** 
   4:libDaisy/src/per/i2c.h **** namespace daisy
   5:libDaisy/src/per/i2c.h **** {
   6:libDaisy/src/per/i2c.h **** /** A handle for interacting with an I2C peripheral. This is a dumb
   7:libDaisy/src/per/i2c.h ****  *  gateway that internally points to one of the four I2C peripherals
   8:libDaisy/src/per/i2c.h ****  *  after it was initialised. It can then be copied and passed around.
   9:libDaisy/src/per/i2c.h ****  *  Use an I2CHandle like this:
  10:libDaisy/src/per/i2c.h ****  *  
  11:libDaisy/src/per/i2c.h ****  *      // setup the configuration
  12:libDaisy/src/per/i2c.h ****  *      I2CHandle::Config i2c_conf;
  13:libDaisy/src/per/i2c.h ****  *      i2c_conf.periph = I2CHandle::Config::Peripheral::I2C_1;
  14:libDaisy/src/per/i2c.h ****  *      i2c_conf.speed  = I2CHandle::Config::Speed::I2C_400KHZ;
  15:libDaisy/src/per/i2c.h ****  *      i2c_conf.mode   = I2CHandle::Config::Mode::Master;
  16:libDaisy/src/per/i2c.h ****  *      i2c_conf.pin_config.scl  = {DSY_GPIOB, 8};
  17:libDaisy/src/per/i2c.h ****  *      i2c_conf.pin_config.sda  = {DSY_GPIOB, 9};
  18:libDaisy/src/per/i2c.h ****  *      // initialise the peripheral
  19:libDaisy/src/per/i2c.h ****  *      I2CHandle i2c;
  20:libDaisy/src/per/i2c.h ****  *      i2c.Init(i2c_conf);
  21:libDaisy/src/per/i2c.h ****  *      // now i2c points to the corresponding peripheral and can be used.
  22:libDaisy/src/per/i2c.h ****  *      i2c.TransmitBlocking( ... );
  23:libDaisy/src/per/i2c.h ****  */
  24:libDaisy/src/per/i2c.h **** class I2CHandle
  25:libDaisy/src/per/i2c.h **** {
  26:libDaisy/src/per/i2c.h ****   public:
  27:libDaisy/src/per/i2c.h ****     /** Contains settings for initialising an I2C interface. */
  28:libDaisy/src/per/i2c.h ****     struct Config
  29:libDaisy/src/per/i2c.h ****     {
  30:libDaisy/src/per/i2c.h ****         /** Specifies whether the interface will operate in master or slave mode. */
  31:libDaisy/src/per/i2c.h ****         enum class Mode
  32:libDaisy/src/per/i2c.h ****         {
ARM GAS  /tmp/ccxnfbgf.s 			page 181


  33:libDaisy/src/per/i2c.h ****             I2C_MASTER,
  34:libDaisy/src/per/i2c.h ****             I2C_SLAVE,
  35:libDaisy/src/per/i2c.h ****         };
  36:libDaisy/src/per/i2c.h **** 
  37:libDaisy/src/per/i2c.h ****         /** Specifices the internal peripheral to use (these are mapped to different pins on the ha
  38:libDaisy/src/per/i2c.h ****         enum class Peripheral
  39:libDaisy/src/per/i2c.h ****         {
  40:libDaisy/src/per/i2c.h ****             I2C_1 = 0, /**< & */
  41:libDaisy/src/per/i2c.h ****             I2C_2,     /**< & */
  42:libDaisy/src/per/i2c.h ****             I2C_3,     /**< & */
  43:libDaisy/src/per/i2c.h ****             I2C_4,     /**< & */
  44:libDaisy/src/per/i2c.h ****         };
  45:libDaisy/src/per/i2c.h **** 
  46:libDaisy/src/per/i2c.h ****         /** Rate at which the clock/data will be sent/received. The device being used will have max
  47:libDaisy/src/per/i2c.h ****          *  1MHZ Mode is currently 886kHz
  48:libDaisy/src/per/i2c.h ****          */
  49:libDaisy/src/per/i2c.h ****         enum class Speed
  50:libDaisy/src/per/i2c.h ****         {
  51:libDaisy/src/per/i2c.h ****             I2C_100KHZ, /**< & */
  52:libDaisy/src/per/i2c.h ****             I2C_400KHZ, /**< & */
  53:libDaisy/src/per/i2c.h ****             I2C_1MHZ,   /**< & */
  54:libDaisy/src/per/i2c.h ****         };
  55:libDaisy/src/per/i2c.h **** 
  56:libDaisy/src/per/i2c.h ****         Peripheral periph; /**< & */
  57:libDaisy/src/per/i2c.h ****         struct
  58:libDaisy/src/per/i2c.h ****         {
  59:libDaisy/src/per/i2c.h ****             dsy_gpio_pin scl; /**< & */
  60:libDaisy/src/per/i2c.h ****             dsy_gpio_pin sda; /**< & */
  61:libDaisy/src/per/i2c.h ****         } pin_config;         /**< & */
  62:libDaisy/src/per/i2c.h **** 
  63:libDaisy/src/per/i2c.h ****         Speed speed; /**< & */
  64:libDaisy/src/per/i2c.h ****         Mode  mode;  /**< & */
  65:libDaisy/src/per/i2c.h ****         // 0x10 is chosen as a default to avoid conflicts with reserved addresses
  66:libDaisy/src/per/i2c.h ****         uint8_t address = 0x10; /**< & */
  67:libDaisy/src/per/i2c.h ****     };
  68:libDaisy/src/per/i2c.h **** 
  69:libDaisy/src/per/i2c.h ****     /** Return values for I2C functions. */
  70:libDaisy/src/per/i2c.h ****     enum class Result
  71:libDaisy/src/per/i2c.h ****     {
  72:libDaisy/src/per/i2c.h ****         OK, /**< & */
  73:libDaisy/src/per/i2c.h ****         ERR /**< & */
  74:libDaisy/src/per/i2c.h ****     };
  75:libDaisy/src/per/i2c.h **** 
  76:libDaisy/src/per/i2c.h ****     enum class Direction
  77:libDaisy/src/per/i2c.h ****     {
  78:libDaisy/src/per/i2c.h ****         TRANSMIT, /**< & */
  79:libDaisy/src/per/i2c.h ****         RECEIVE,  /**< & */
  80:libDaisy/src/per/i2c.h ****     };
  81:libDaisy/src/per/i2c.h **** 
  82:libDaisy/src/per/i2c.h ****     I2CHandle() : pimpl_(nullptr) {}
 6209              		.loc 22 82 5 is_stmt 1 view .LVU1746
 6210              	.LBB1354:
 6211              	.LBB1355:
 6212              		.loc 22 82 33 is_stmt 0 view .LVU1747
 6213 001a 5C4B     		ldr	r3, .L391+20
 6214              	.LBE1355:
 6215              	.LBE1354:
ARM GAS  /tmp/ccxnfbgf.s 			page 182


 6216              	.LBE1353:
 6217              	.LBB1358:
 6218              	.LBB1348:
 6219              	.LBB1344:
 6220              		.loc 20 51 28 view .LVU1748
 6221 001c 2146     		mov	r1, r4
 6222 001e 2822     		movs	r2, #40
 6223              	.LBE1344:
 6224              	.LBE1348:
 6225              	.LBE1358:
 6226              	.LBB1359:
 6227              	.LBB1357:
 6228              	.LBB1356:
 6229              		.loc 22 82 33 view .LVU1749
 6230 0020 1C60     		str	r4, [r3]
 6231              	.LVL397:
 6232              		.loc 22 82 33 view .LVU1750
 6233              	.LBE1356:
 6234              	.LBE1357:
 6235              	.LBE1359:
 6236              	.LBB1360:
 6237              	.LBI1327:
  46:libDaisy/src/util/PersistentStorage.h ****     : qspi_(qspi),
 6238              		.loc 20 46 5 is_stmt 1 view .LVU1751
 6239              	.LBB1349:
 6240              	.LBB1345:
 6241              		.loc 20 51 28 is_stmt 0 view .LVU1752
 6242 0022 05F10800 		add	r0, r5, #8
 6243 0026 C5E90064 		strd	r6, r4, [r5]
 6244              	.LBB1335:
 6245              	.LBB1332:
  11:fjol.cpp      **** struct data
 6246              		.loc 7 11 8 view .LVU1753
 6247 002a 07F12806 		add	r6, r7, #40
 6248              	.LBE1332:
 6249              	.LBE1335:
 6250              		.loc 20 51 28 view .LVU1754
 6251 002e FFF7FEFF 		bl	memset
 6252              	.LVL398:
 6253              	.LBB1336:
 6254              	.LBI1330:
  11:fjol.cpp      **** struct data
 6255              		.loc 7 11 8 is_stmt 1 view .LVU1755
 6256              	.LBE1336:
 6257              		.loc 20 51 28 is_stmt 0 view .LVU1756
 6258 0032 2822     		movs	r2, #40
 6259              	.LBB1337:
 6260              	.LBB1333:
  11:fjol.cpp      **** struct data
 6261              		.loc 7 11 8 view .LVU1757
 6262 0034 96E80300 		ldm	r6, {r0, r1}
 6263 0038 A862     		str	r0, [r5, #40]
 6264              	.LBE1333:
 6265              	.LBE1337:
 6266              		.loc 20 51 28 view .LVU1758
 6267 003a 05F13000 		add	r0, r5, #48
 6268              	.LBB1338:
ARM GAS  /tmp/ccxnfbgf.s 			page 183


 6269              	.LBB1334:
  11:fjol.cpp      **** struct data
 6270              		.loc 7 11 8 view .LVU1759
 6271 003e A985     		strh	r1, [r5, #44]	@ movhi
 6272              	.LVL399:
  11:fjol.cpp      **** struct data
 6273              		.loc 7 11 8 view .LVU1760
 6274              	.LBE1334:
 6275              	.LBE1338:
 6276              		.loc 20 51 28 view .LVU1761
 6277 0040 2146     		mov	r1, r4
 6278 0042 FFF7FEFF 		bl	memset
 6279              	.LVL400:
 6280              	.LBB1339:
 6281              	.LBI1339:
  11:fjol.cpp      **** struct data
 6282              		.loc 7 11 8 is_stmt 1 view .LVU1762
 6283              	.LBE1339:
 6284              	.LBE1345:
 6285              	.LBE1349:
 6286              	.LBE1360:
 6287              	.LBB1361:
 6288              	.LBB1362:
 6289              	.LBB1363:
 6290              	.LBB1364:
 6291              	.LBB1365:
 6292              	.LBB1366:
 6293              	.LBB1367:
  38:libDaisy/src/hid/midi.h ****         }
 6294              		.loc 9 38 20 is_stmt 0 view .LVU1763
 6295 0046 BA8E     		ldrh	r2, [r7, #52]
 6296              	.LBE1367:
 6297              	.LBE1366:
 6298              	.LBE1365:
 6299              	.LBE1364:
 6300              	.LBE1363:
 6301              	.LBE1362:
 6302              	.LBE1361:
 6303              	.LBB1394:
 6304              	.LBB1350:
 6305              	.LBB1346:
 6306              		.loc 20 51 28 view .LVU1764
 6307 0048 AC65     		str	r4, [r5, #88]
 6308              	.LBB1342:
 6309              	.LBB1340:
  11:fjol.cpp      **** struct data
 6310              		.loc 7 11 8 view .LVU1765
 6311 004a 96E80300 		ldm	r6, {r0, r1}
 6312 004e 2865     		str	r0, [r5, #80]
 6313              	.LBE1340:
 6314              	.LBE1342:
 6315              	.LBE1346:
 6316              	.LBE1350:
 6317              	.LBE1394:
 6318              	.LBB1395:
 6319              	.LBB1392:
 6320              	.LBB1390:
ARM GAS  /tmp/ccxnfbgf.s 			page 184


 6321              	.LBB1374:
 6322              	.LBB1375:
 6323              	.LBB1376:
  85:libDaisy/src/per/uart.h ****             // baudrate   = 31250;
  86:libDaisy/src/per/uart.h ****         }
  87:libDaisy/src/per/uart.h **** 
  88:libDaisy/src/per/uart.h ****         Peripheral periph;
  89:libDaisy/src/per/uart.h ****         StopBits   stopbits;
  90:libDaisy/src/per/uart.h ****         Parity     parity;
  91:libDaisy/src/per/uart.h ****         Mode       mode;
  92:libDaisy/src/per/uart.h ****         WordLength wordlength;
  93:libDaisy/src/per/uart.h ****         uint32_t   baudrate;
  94:libDaisy/src/per/uart.h ****     };
  95:libDaisy/src/per/uart.h **** 
  96:libDaisy/src/per/uart.h **** 
  97:libDaisy/src/per/uart.h ****     UartHandler() : pimpl_(nullptr) {}
 6324              		.loc 18 97 35 view .LVU1766
 6325 0050 4F48     		ldr	r0, .L391+24
 6326              	.LBE1376:
 6327              	.LBE1375:
 6328              	.LBE1374:
 6329              	.LBE1390:
 6330              	.LBE1392:
 6331              	.LBE1395:
 6332              	.LBB1396:
 6333              	.LBB1351:
 6334              	.LBB1347:
 6335              	.LBB1343:
 6336              	.LBB1341:
  11:fjol.cpp      **** struct data
 6337              		.loc 7 11 8 view .LVU1767
 6338 0052 A5F85410 		strh	r1, [r5, #84]	@ movhi
 6339              	.LVL401:
  11:fjol.cpp      **** struct data
 6340              		.loc 7 11 8 view .LVU1768
 6341              	.LBE1341:
 6342              	.LBE1343:
 6343              	.LBE1347:
 6344              	.LBE1351:
 6345              	.LBE1396:
 6346              	.LBB1397:
 6347              	.LBI1361:
  84:libDaisy/src/hid/midi.h ****     ~MidiHandler() {}
 6348              		.loc 9 84 5 is_stmt 1 view .LVU1769
 6349              	.LBB1393:
 6350              	.LBB1391:
 6351              	.LBB1379:
 6352              	.LBI1374:
 6353              		.loc 18 97 5 view .LVU1770
 6354              	.LBE1379:
 6355              	.LBB1380:
 6356              	.LBB1372:
 6357              	.LBB1370:
 6358              	.LBB1368:
  36:libDaisy/src/hid/midi.h ****             rx     = {DSY_GPIOB, 7};
 6359              		.loc 9 36 20 is_stmt 0 view .LVU1771
 6360 0056 00F51043 		add	r3, r0, #36864
ARM GAS  /tmp/ccxnfbgf.s 			page 185


  37:libDaisy/src/hid/midi.h ****             tx     = {DSY_GPIOB, 6};
 6361              		.loc 9 37 20 view .LVU1772
 6362 005a 398E     		ldrh	r1, [r7, #48]
 6363              	.LBE1368:
 6364              	.LBE1370:
 6365              	.LBE1372:
 6366              	.LBE1380:
 6367              	.LBB1381:
 6368              	.LBB1378:
 6369              	.LBB1377:
 6370              		.loc 18 97 35 view .LVU1773
 6371 005c 0460     		str	r4, [r0]
 6372              	.LVL402:
 6373              		.loc 18 97 35 view .LVU1774
 6374              	.LBE1377:
 6375              	.LBE1378:
 6376              	.LBE1381:
 6377              	.LBB1382:
 6378              	.LBI1382:
  21:libDaisy/src/util/ringbuffer.h **** 
 6379              		.loc 17 21 5 is_stmt 1 view .LVU1775
  21:libDaisy/src/util/ringbuffer.h **** 
 6380              		.loc 17 21 5 is_stmt 0 view .LVU1776
 6381              	.LBE1382:
 6382              	.LBB1383:
 6383              	.LBI1364:
  87:libDaisy/src/hid/midi.h ****     {
 6384              		.loc 9 87 12 is_stmt 1 view .LVU1777
 6385              	.LBB1373:
 6386              	.LBI1365:
  34:libDaisy/src/hid/midi.h ****         {
 6387              		.loc 9 34 9 view .LVU1778
 6388              	.LBB1371:
 6389              	.LBB1369:
  36:libDaisy/src/hid/midi.h ****             rx     = {DSY_GPIOB, 7};
 6390              		.loc 9 36 13 view .LVU1779
  36:libDaisy/src/hid/midi.h ****             rx     = {DSY_GPIOB, 7};
 6391              		.loc 9 36 20 is_stmt 0 view .LVU1780
 6392 005e C3F8A840 		str	r4, [r3, #168]
  37:libDaisy/src/hid/midi.h ****             tx     = {DSY_GPIOB, 6};
 6393              		.loc 9 37 13 is_stmt 1 view .LVU1781
  37:libDaisy/src/hid/midi.h ****             tx     = {DSY_GPIOB, 6};
 6394              		.loc 9 37 20 is_stmt 0 view .LVU1782
 6395 0062 A3F8AC10 		strh	r1, [r3, #172]	@ movhi
  38:libDaisy/src/hid/midi.h ****         }
 6396              		.loc 9 38 13 is_stmt 1 view .LVU1783
  38:libDaisy/src/hid/midi.h ****         }
 6397              		.loc 9 38 20 is_stmt 0 view .LVU1784
 6398 0066 A3F8AE20 		strh	r2, [r3, #174]	@ movhi
 6399              	.LVL403:
  38:libDaisy/src/hid/midi.h ****         }
 6400              		.loc 9 38 20 view .LVU1785
 6401              	.LBE1369:
 6402              	.LBE1371:
 6403              	.LBE1373:
 6404              	.LBE1383:
 6405              	.LBB1384:
ARM GAS  /tmp/ccxnfbgf.s 			page 186


 6406              	.LBI1384:
  25:libDaisy/src/hid/midi.h ****     ~MidiUartTransport() {}
 6407              		.loc 9 25 5 is_stmt 1 view .LVU1786
 6408              	.LBB1385:
 6409              	.LBI1385:
 6410              		.loc 18 97 5 view .LVU1787
 6411              		.loc 18 97 5 is_stmt 0 view .LVU1788
 6412              	.LBE1385:
 6413              	.LBE1384:
  84:libDaisy/src/hid/midi.h ****     ~MidiHandler() {}
 6414              		.loc 9 84 19 view .LVU1789
 6415 006a 4FF60F02 		movw	r2, #63503
 6416              	.LBB1389:
 6417              	.LBB1388:
 6418              	.LBB1386:
 6419              	.LBB1387:
 6420              		.loc 18 97 35 view .LVU1790
 6421 006e C3F8B040 		str	r4, [r3, #176]
 6422              	.LBE1387:
 6423              	.LBE1386:
 6424              	.LBE1388:
 6425              	.LBE1389:
  84:libDaisy/src/hid/midi.h ****     ~MidiHandler() {}
 6426              		.loc 9 84 19 view .LVU1791
 6427 0072 0724     		movs	r4, #7
 6428 0074 4749     		ldr	r1, .L391+28
 6429 0076 A3F8B820 		strh	r2, [r3, #184]	@ movhi
 6430 007a C3F8B410 		str	r1, [r3, #180]
 6431 007e 83F8BA40 		strb	r4, [r3, #186]
 6432              	.LVL404:
  84:libDaisy/src/hid/midi.h ****     ~MidiHandler() {}
 6433              		.loc 9 84 19 view .LVU1792
 6434              	.LBE1391:
 6435              	.LBE1393:
 6436              	.LBE1397:
  24:fjol.cpp      **** MidiUartHandler midi; //initialize midi object
 6437              		.loc 7 24 17 view .LVU1793
 6438 0082 404A     		ldr	r2, .L391+12
 6439 0084 4449     		ldr	r1, .L391+32
 6440 0086 FFF7FEFF 		bl	__aeabi_atexit
 6441              	.LVL405:
  98:fjol.cpp      **** op voice[voicecount]; 
 6442              		.loc 7 98 20 is_stmt 1 view .LVU1794
 6443 008a 444B     		ldr	r3, .L391+36
 6444 008c 03F53870 		add	r0, r3, #736
 6445              	.L386:
 6446              	.LVL406:
 6447              	.LBB1398:
 6448              	.LBI1398:
  45:fjol.cpp      **** struct op
 6449              		.loc 7 45 8 view .LVU1795
 6450              	.LBB1399:
 6451              	.LBB1400:
 6452              	.LBI1400:
  15:DaisySP/Source/Synthesis/oscillator.h ****     ~Oscillator() {}
 6453              		.loc 10 15 5 view .LVU1796
  15:DaisySP/Source/Synthesis/oscillator.h ****     ~Oscillator() {}
ARM GAS  /tmp/ccxnfbgf.s 			page 187


 6454              		.loc 10 15 5 is_stmt 0 view .LVU1797
 6455              	.LBE1400:
 6456              	.LBB1401:
 6457              	.LBI1401:
  15:DaisySP/Source/Synthesis/oscillator.h ****     ~Oscillator() {}
 6458              		.loc 10 15 5 is_stmt 1 view .LVU1798
  15:DaisySP/Source/Synthesis/oscillator.h ****     ~Oscillator() {}
 6459              		.loc 10 15 5 is_stmt 0 view .LVU1799
 6460              	.LBE1401:
 6461              	.LBB1402:
 6462              	.LBI1402:
  15:DaisySP/Source/Synthesis/oscillator.h ****     ~Oscillator() {}
 6463              		.loc 10 15 5 is_stmt 1 view .LVU1800
  15:DaisySP/Source/Synthesis/oscillator.h ****     ~Oscillator() {}
 6464              		.loc 10 15 5 is_stmt 0 view .LVU1801
 6465              	.LBE1402:
 6466              	.LBE1399:
 6467              	.LBE1398:
  98:fjol.cpp      **** op voice[voicecount]; 
 6468              		.loc 7 98 20 view .LVU1802
 6469 0090 B833     		adds	r3, r3, #184
 6470              	.LVL407:
 6471              	.LBB1405:
 6472              	.LBB1403:
  45:fjol.cpp      **** struct op
 6473              		.loc 7 45 8 view .LVU1803
 6474 0092 0022     		movs	r2, #0
 6475 0094 4FF07D51 		mov	r1, #1061158912
 6476              	.LBE1403:
 6477              	.LBE1405:
  98:fjol.cpp      **** op voice[voicecount]; 
 6478              		.loc 7 98 20 view .LVU1804
 6479 0098 9842     		cmp	r0, r3
 6480              	.LBB1406:
 6481              	.LBB1404:
  45:fjol.cpp      **** struct op
 6482              		.loc 7 45 8 view .LVU1805
 6483 009a 43F8282C 		str	r2, [r3, #-40]	@ float
 6484 009e 43F8242C 		str	r2, [r3, #-36]	@ float
 6485 00a2 43F81C1C 		str	r1, [r3, #-28]	@ float
 6486              	.LVL408:
  45:fjol.cpp      **** struct op
 6487              		.loc 7 45 8 view .LVU1806
 6488              	.LBE1404:
 6489              	.LBE1406:
  98:fjol.cpp      **** op voice[voicecount]; 
 6490              		.loc 7 98 20 is_stmt 1 view .LVU1807
  98:fjol.cpp      **** op voice[voicecount]; 
 6491              		.loc 7 98 20 view .LVU1808
 6492 00a6 F3D1     		bne	.L386
  98:fjol.cpp      **** op voice[voicecount]; 
 6493              		.loc 7 98 4 is_stmt 0 view .LVU1809
 6494 00a8 3D49     		ldr	r1, .L391+40
 6495 00aa 0020     		movs	r0, #0
 6496 00ac 354A     		ldr	r2, .L391+12
 6497 00ae FFF7FEFF 		bl	__aeabi_atexit
 6498              	.LVL409:
ARM GAS  /tmp/ccxnfbgf.s 			page 188


  99:fjol.cpp      **** envStruc envelope[voicecount];
 6499              		.loc 7 99 29 is_stmt 1 view .LVU1810
 6500 00b2 3C4B     		ldr	r3, .L391+44
 6501 00b4 03F58071 		add	r1, r3, #256
 6502              	.L387:
 6503              	.LVL410:
 6504              	.LBB1407:
 6505              	.LBI1407:
  28:fjol.cpp      **** struct envStruc //amplitude envelope
 6506              		.loc 7 28 8 view .LVU1811
 6507              	.LBB1408:
 6508              	.LBI1408:
  36:DaisySP/Source/Control/adsr.h ****     ~Adsr() {}
 6509              		.loc 14 36 5 view .LVU1812
 6510              	.LBE1408:
 6511              	.LBE1407:
  99:fjol.cpp      **** envStruc envelope[voicecount];
 6512              		.loc 7 99 29 is_stmt 0 view .LVU1813
 6513 00b8 4033     		adds	r3, r3, #64
 6514              	.LVL411:
 6515              	.LBB1413:
 6516              	.LBB1411:
 6517              	.LBB1409:
  36:DaisySP/Source/Control/adsr.h ****     ~Adsr() {}
 6518              		.loc 14 36 12 view .LVU1814
 6519 00ba 0024     		movs	r4, #0
 6520 00bc 3A4A     		ldr	r2, .L391+48
 6521 00be 0025     		movs	r5, #0
 6522              	.LBE1409:
 6523              	.LBE1411:
 6524              	.LBE1413:
  99:fjol.cpp      **** envStruc envelope[voicecount];
 6525              		.loc 7 99 29 view .LVU1815
 6526 00c0 8B42     		cmp	r3, r1
 6527              	.LBB1414:
 6528              	.LBB1412:
 6529              	.LBB1410:
  36:DaisySP/Source/Control/adsr.h ****     ~Adsr() {}
 6530              		.loc 14 36 12 view .LVU1816
 6531 00c2 43F8404C 		str	r4, [r3, #-64]	@ float
 6532 00c6 43F83C4C 		str	r4, [r3, #-60]	@ float
 6533 00ca 43F8382C 		str	r2, [r3, #-56]	@ float
 6534 00ce 43F8344C 		str	r4, [r3, #-52]	@ float
 6535 00d2 43F8302C 		str	r2, [r3, #-48]	@ float
 6536 00d6 43F82C2C 		str	r2, [r3, #-44]	@ float
 6537 00da 43F8282C 		str	r2, [r3, #-40]	@ float
 6538 00de 43F8244C 		str	r4, [r3, #-36]	@ float
 6539 00e2 43F8204C 		str	r4, [r3, #-32]	@ float
 6540 00e6 43F81C4C 		str	r4, [r3, #-28]	@ float
 6541 00ea 03F8145C 		strb	r5, [r3, #-20]
 6542 00ee 03F8135C 		strb	r5, [r3, #-19]
 6543              	.LVL412:
  36:DaisySP/Source/Control/adsr.h ****     ~Adsr() {}
 6544              		.loc 14 36 12 view .LVU1817
 6545              	.LBE1410:
 6546              	.LBE1412:
 6547              	.LBE1414:
ARM GAS  /tmp/ccxnfbgf.s 			page 189


  99:fjol.cpp      **** envStruc envelope[voicecount];
 6548              		.loc 7 99 29 is_stmt 1 view .LVU1818
  99:fjol.cpp      **** envStruc envelope[voicecount];
 6549              		.loc 7 99 29 view .LVU1819
 6550 00f2 E1D1     		bne	.L387
  99:fjol.cpp      **** envStruc envelope[voicecount];
 6551              		.loc 7 99 10 is_stmt 0 view .LVU1820
 6552 00f4 234A     		ldr	r2, .L391+12
 6553 00f6 2846     		mov	r0, r5
 6554 00f8 2C49     		ldr	r1, .L391+52
 6555 00fa FFF7FEFF 		bl	__aeabi_atexit
 6556              	.LVL413:
 6557              	.LBB1415:
 6558              	.LBI1415:
  37:fjol.cpp      **** struct ADStruc //for filter envelope
 6559              		.loc 7 37 8 is_stmt 1 view .LVU1821
 6560              	.LBB1416:
 6561              	.LBI1416:
  34:DaisySP/Source/Control/adenv.h ****     ~AdEnv() {}
 6562              		.loc 8 34 5 view .LVU1822
  34:DaisySP/Source/Control/adenv.h ****     ~AdEnv() {}
 6563              		.loc 8 34 5 is_stmt 0 view .LVU1823
 6564              	.LBE1416:
 6565              	.LBE1415:
 100:fjol.cpp      **** ADStruc filtenvelope; //stereo
 6566              		.loc 7 100 9 view .LVU1824
 6567 00fe 214A     		ldr	r2, .L391+12
 6568 0100 2B49     		ldr	r1, .L391+56
 6569 0102 2C48     		ldr	r0, .L391+60
 6570 0104 FFF7FEFF 		bl	__aeabi_atexit
 6571              	.LVL414:
 101:fjol.cpp      **** filter_ stfilter[2]; //stereo
 6572              		.loc 7 101 19 is_stmt 1 view .LVU1825
 6573              	.LBB1417:
 6574              	.LBI1417:
  71:fjol.cpp      **** struct filter_
 6575              		.loc 7 71 8 view .LVU1826
 6576              	.LBB1418:
 6577              	.LBB1419:
 6578              	.LBI1419:
 6579              		.file 23 "DaisySP/Source/Filters/svf.h"
   1:DaisySP/Source/Filters/svf.h **** #pragma once
   2:DaisySP/Source/Filters/svf.h **** #ifndef DSY_SVF_H
   3:DaisySP/Source/Filters/svf.h **** #define DSY_SVF_H
   4:DaisySP/Source/Filters/svf.h **** 
   5:DaisySP/Source/Filters/svf.h **** namespace daisysp
   6:DaisySP/Source/Filters/svf.h **** {
   7:DaisySP/Source/Filters/svf.h **** /**      Double Sampled, Stable State Variable Filter
   8:DaisySP/Source/Filters/svf.h **** 
   9:DaisySP/Source/Filters/svf.h **** Credit to Andrew Simper from musicdsp.org
  10:DaisySP/Source/Filters/svf.h **** 
  11:DaisySP/Source/Filters/svf.h **** This is his "State Variable Filter (Double Sampled, Stable)"
  12:DaisySP/Source/Filters/svf.h **** 
  13:DaisySP/Source/Filters/svf.h **** Additional thanks to Laurent de Soras for stability limit, and 
  14:DaisySP/Source/Filters/svf.h **** Stefan Diedrichsen for the correct notch output
  15:DaisySP/Source/Filters/svf.h **** 
  16:DaisySP/Source/Filters/svf.h **** Ported by: Stephen Hensley
ARM GAS  /tmp/ccxnfbgf.s 			page 190


  17:DaisySP/Source/Filters/svf.h **** */
  18:DaisySP/Source/Filters/svf.h **** class Svf
  19:DaisySP/Source/Filters/svf.h **** {
  20:DaisySP/Source/Filters/svf.h ****   public:
  21:DaisySP/Source/Filters/svf.h ****     Svf() {}
 6580              		.loc 23 21 5 view .LVU1827
 6581              		.loc 23 21 5 is_stmt 0 view .LVU1828
 6582              	.LBE1419:
  71:fjol.cpp      **** struct filter_
 6583              		.loc 7 71 8 view .LVU1829
 6584 0108 2B4B     		ldr	r3, .L391+64
 6585              	.LBE1418:
 6586              	.LBE1417:
 101:fjol.cpp      **** filter_ stfilter[2]; //stereo
 6587              		.loc 7 101 9 view .LVU1830
 6588 010a 1E4A     		ldr	r2, .L391+12
 6589 010c 2846     		mov	r0, r5
 6590              	.LBB1423:
 6591              	.LBB1421:
  71:fjol.cpp      **** struct filter_
 6592              		.loc 7 71 8 view .LVU1831
 6593 010e 5C65     		str	r4, [r3, #84]	@ float
 6594              	.LVL415:
  71:fjol.cpp      **** struct filter_
 6595              		.loc 7 71 8 view .LVU1832
 6596              	.LBE1421:
 6597              	.LBE1423:
 101:fjol.cpp      **** filter_ stfilter[2]; //stereo
 6598              		.loc 7 101 19 is_stmt 1 view .LVU1833
 101:fjol.cpp      **** filter_ stfilter[2]; //stereo
 6599              		.loc 7 101 19 view .LVU1834
 6600              	.LBB1424:
  71:fjol.cpp      **** struct filter_
 6601              		.loc 7 71 8 view .LVU1835
 6602              	.LBB1422:
 6603              	.LBB1420:
 6604              		.loc 23 21 5 view .LVU1836
 6605              		.loc 23 21 5 is_stmt 0 view .LVU1837
 6606              	.LBE1420:
  71:fjol.cpp      **** struct filter_
 6607              		.loc 7 71 8 view .LVU1838
 6608 0110 C3F8AC40 		str	r4, [r3, #172]	@ float
 6609              	.LVL416:
  71:fjol.cpp      **** struct filter_
 6610              		.loc 7 71 8 view .LVU1839
 6611              	.LBE1422:
 6612              	.LBE1424:
 101:fjol.cpp      **** filter_ stfilter[2]; //stereo
 6613              		.loc 7 101 19 is_stmt 1 view .LVU1840
 101:fjol.cpp      **** filter_ stfilter[2]; //stereo
 6614              		.loc 7 101 19 view .LVU1841
 101:fjol.cpp      **** filter_ stfilter[2]; //stereo
 6615              		.loc 7 101 9 is_stmt 0 view .LVU1842
 6616 0114 2949     		ldr	r1, .L391+68
 6617 0116 FFF7FEFF 		bl	__aeabi_atexit
 6618              	.LVL417:
 6619              	.LBB1425:
ARM GAS  /tmp/ccxnfbgf.s 			page 191


 6620              	.LBI1425:
  41:libDaisy/src/hid/switch.h ****     ~Switch() {}
 6621              		.loc 1 41 5 is_stmt 1 view .LVU1843
  41:libDaisy/src/hid/switch.h ****     ~Switch() {}
 6622              		.loc 1 41 5 is_stmt 0 view .LVU1844
 6623              	.LBE1425:
 103:fjol.cpp      **** Switch shift_sw;
 6624              		.loc 7 103 8 view .LVU1845
 6625 011a 1A4A     		ldr	r2, .L391+12
 6626 011c 2849     		ldr	r1, .L391+72
 6627 011e 2948     		ldr	r0, .L391+76
 6628 0120 FFF7FEFF 		bl	__aeabi_atexit
 6629              	.LVL418:
 6630              	.LBB1426:
 6631              	.LBI1426:
  41:libDaisy/src/hid/switch.h ****     ~Switch() {}
 6632              		.loc 1 41 5 is_stmt 1 view .LVU1846
  41:libDaisy/src/hid/switch.h ****     ~Switch() {}
 6633              		.loc 1 41 5 is_stmt 0 view .LVU1847
 6634              	.LBE1426:
 104:fjol.cpp      **** Switch algo_sw;
 6635              		.loc 7 104 8 view .LVU1848
 6636 0124 174A     		ldr	r2, .L391+12
 6637 0126 2649     		ldr	r1, .L391+72
 6638 0128 2748     		ldr	r0, .L391+80
 6639 012a FFF7FEFF 		bl	__aeabi_atexit
 6640              	.LVL419:
 6641              	.LBB1427:
 6642              	.LBI1427:
  41:libDaisy/src/hid/switch.h ****     ~Switch() {}
 6643              		.loc 1 41 5 is_stmt 1 view .LVU1849
  41:libDaisy/src/hid/switch.h ****     ~Switch() {}
 6644              		.loc 1 41 5 is_stmt 0 view .LVU1850
 6645              	.LBE1427:
 105:fjol.cpp      **** Switch midi_sw;
 6646              		.loc 7 105 8 view .LVU1851
 6647 012e 154A     		ldr	r2, .L391+12
 6648 0130 2349     		ldr	r1, .L391+72
 6649 0132 2648     		ldr	r0, .L391+84
 6650 0134 FFF7FEFF 		bl	__aeabi_atexit
 6651              	.LVL420:
 106:fjol.cpp      **** gate_i gate[4];
 6652              		.loc 7 106 14 is_stmt 1 view .LVU1852
 106:fjol.cpp      **** gate_i gate[4];
 6653              		.loc 7 106 8 is_stmt 0 view .LVU1853
 6654 0138 124A     		ldr	r2, .L391+12
 6655 013a 2549     		ldr	r1, .L391+88
 6656 013c 2846     		mov	r0, r5
 6657 013e FFF7FEFF 		bl	__aeabi_atexit
 6658              	.LVL421:
 107:fjol.cpp      **** knob voct[4];
 6659              		.loc 7 107 12 is_stmt 1 view .LVU1854
 107:fjol.cpp      **** knob voct[4];
 6660              		.loc 7 107 6 is_stmt 0 view .LVU1855
 6661 0142 104A     		ldr	r2, .L391+12
 6662 0144 2349     		ldr	r1, .L391+92
 6663 0146 2846     		mov	r0, r5
ARM GAS  /tmp/ccxnfbgf.s 			page 192


 6664 0148 FFF7FEFF 		bl	__aeabi_atexit
 6665              	.LVL422:
 108:fjol.cpp      **** knob controls[8]; //8 knobs
 6666              		.loc 7 108 16 is_stmt 1 view .LVU1856
 108:fjol.cpp      **** knob controls[8]; //8 knobs
 6667              		.loc 7 108 6 is_stmt 0 view .LVU1857
 6668 014c 0D4A     		ldr	r2, .L391+12
 6669 014e 2249     		ldr	r1, .L391+96
 6670 0150 2846     		mov	r0, r5
 6671 0152 FFF7FEFF 		bl	__aeabi_atexit
 6672              	.LVL423:
 109:fjol.cpp      **** knob cv[2]; //2 cv ins for ctl1 and ctl2
 6673              		.loc 7 109 10 is_stmt 1 view .LVU1858
 109:fjol.cpp      **** knob cv[2]; //2 cv ins for ctl1 and ctl2
 6674              		.loc 7 109 6 is_stmt 0 view .LVU1859
 6675 0156 0B4A     		ldr	r2, .L391+12
 6676 0158 2049     		ldr	r1, .L391+100
 6677 015a 2846     		mov	r0, r5
 6678 015c FFF7FEFF 		bl	__aeabi_atexit
 6679              	.LVL424:
 110:fjol.cpp      **** rotary enc[2];
 6680              		.loc 7 110 13 is_stmt 1 view .LVU1860
 6681              	.LBB1428:
 6682              	.LBI1428:
  91:fjol.cpp      **** struct rotary
 6683              		.loc 7 91 8 view .LVU1861
 6684              	.LBB1429:
 6685              	.LBB1430:
 6686              	.LBI1430:
  20:libDaisy/src/hid/encoder.h ****     ~Encoder() {}
 6687              		.loc 12 20 5 view .LVU1862
 6688              	.LBB1431:
 6689              	.LBB1432:
 6690              	.LBI1432:
  41:libDaisy/src/hid/switch.h ****     ~Switch() {}
 6691              		.loc 1 41 5 view .LVU1863
  41:libDaisy/src/hid/switch.h ****     ~Switch() {}
 6692              		.loc 1 41 5 is_stmt 0 view .LVU1864
 6693              	.LBE1432:
 6694              	.LBE1431:
 6695              	.LBE1430:
  91:fjol.cpp      **** struct rotary
 6696              		.loc 7 91 8 view .LVU1865
 6697 0160 1F4B     		ldr	r3, .L391+104
 6698              	.LBE1429:
 6699              	.LBE1428:
 110:fjol.cpp      **** rotary enc[2];
 6700              		.loc 7 110 8 view .LVU1866
 6701 0162 2846     		mov	r0, r5
 6702 0164 074A     		ldr	r2, .L391+12
 6703              	.LBB1438:
 6704              	.LBB1436:
  91:fjol.cpp      **** struct rotary
 6705              		.loc 7 91 8 view .LVU1867
 6706 0166 1D85     		strh	r5, [r3, #40]	@ movhi
 6707              	.LVL425:
  91:fjol.cpp      **** struct rotary
ARM GAS  /tmp/ccxnfbgf.s 			page 193


 6708              		.loc 7 91 8 view .LVU1868
 6709              	.LBE1436:
 6710              	.LBE1438:
 110:fjol.cpp      **** rotary enc[2];
 6711              		.loc 7 110 13 is_stmt 1 view .LVU1869
 110:fjol.cpp      **** rotary enc[2];
 6712              		.loc 7 110 13 view .LVU1870
 6713              	.LBB1439:
  91:fjol.cpp      **** struct rotary
 6714              		.loc 7 91 8 view .LVU1871
 6715              	.LBB1437:
 6716              	.LBB1435:
  20:libDaisy/src/hid/encoder.h ****     ~Encoder() {}
 6717              		.loc 12 20 5 view .LVU1872
 6718              	.LBB1434:
 6719              	.LBB1433:
  41:libDaisy/src/hid/switch.h ****     ~Switch() {}
 6720              		.loc 1 41 5 view .LVU1873
  41:libDaisy/src/hid/switch.h ****     ~Switch() {}
 6721              		.loc 1 41 5 is_stmt 0 view .LVU1874
 6722              	.LBE1433:
 6723              	.LBE1434:
 6724              	.LBE1435:
  91:fjol.cpp      **** struct rotary
 6725              		.loc 7 91 8 view .LVU1875
 6726 0168 A3F85450 		strh	r5, [r3, #84]	@ movhi
 6727              	.LVL426:
  91:fjol.cpp      **** struct rotary
 6728              		.loc 7 91 8 view .LVU1876
 6729              	.LBE1437:
 6730              	.LBE1439:
 110:fjol.cpp      **** rotary enc[2];
 6731              		.loc 7 110 13 is_stmt 1 view .LVU1877
 110:fjol.cpp      **** rotary enc[2];
 6732              		.loc 7 110 13 view .LVU1878
 110:fjol.cpp      **** rotary enc[2];
 6733              		.loc 7 110 8 is_stmt 0 view .LVU1879
 6734 016c 1D49     		ldr	r1, .L391+108
 6735              	.LBE1440:
 6736              	.LBE1442:
 6737              		.loc 7 739 1 view .LVU1880
 6738 016e BDE8F840 		pop	{r3, r4, r5, r6, r7, lr}
 6739              		.cfi_restore 14
 6740              		.cfi_restore 7
 6741              		.cfi_restore 6
 6742              		.cfi_restore 5
 6743              		.cfi_restore 4
 6744              		.cfi_restore 3
 6745              		.cfi_def_cfa_offset 0
 6746              	.LBB1443:
 6747              	.LBB1441:
 110:fjol.cpp      **** rotary enc[2];
 6748              		.loc 7 110 8 view .LVU1881
 6749 0172 FFF7FEBF 		b	__aeabi_atexit
 6750              	.LVL427:
 6751              	.L392:
 6752 0176 00BF     		.align	2
ARM GAS  /tmp/ccxnfbgf.s 			page 194


 6753              	.L391:
 6754 0178 00000000 		.word	.LANCHOR13
 6755 017c 00000000 		.word	.LANCHOR17
 6756 0180 00000000 		.word	.LANCHOR3
 6757 0184 00000000 		.word	__dso_handle
 6758 0188 00000000 		.word	_ZN5daisy9DaisySeedD1Ev
 6759 018c 00000000 		.word	.LANCHOR15
 6760 0190 00000000 		.word	midi
 6761 0194 80707FF0 		.word	-260083584
 6762 0198 00000000 		.word	_ZN5daisy11MidiHandlerINS_17MidiUartTransportEED1Ev
 6763 019c 00000000 		.word	.LANCHOR0
 6764 01a0 00000000 		.word	__tcf_0
 6765 01a4 00000000 		.word	.LANCHOR1
 6766 01a8 000080BF 		.word	-1082130432
 6767 01ac 00000000 		.word	__tcf_1
 6768 01b0 00000000 		.word	_ZN7ADStrucD1Ev
 6769 01b4 00000000 		.word	.LANCHOR6
 6770 01b8 00000000 		.word	.LANCHOR11
 6771 01bc 00000000 		.word	__tcf_2
 6772 01c0 00000000 		.word	_ZN5daisy6SwitchD1Ev
 6773 01c4 00000000 		.word	.LANCHOR7
 6774 01c8 00000000 		.word	.LANCHOR8
 6775 01cc 00000000 		.word	.LANCHOR9
 6776 01d0 00000000 		.word	__tcf_3
 6777 01d4 00000000 		.word	__tcf_4
 6778 01d8 00000000 		.word	__tcf_5
 6779 01dc 00000000 		.word	__tcf_6
 6780 01e0 00000000 		.word	.LANCHOR4
 6781 01e4 00000000 		.word	__tcf_7
 6782              	.LBE1441:
 6783              	.LBE1443:
 6784              		.cfi_endproc
 6785              	.LFE5451:
 6787              		.section	.init_array,"aw",%init_array
 6788              		.align	2
 6789 0000 00000000 		.word	_GLOBAL__sub_I_i2c(target1)
 6790              		.global	debug_midi
 6791              		.global	debug_pots
 6792              		.global	enc
 6793              		.global	cv
 6794              		.global	controls
 6795              		.global	voct
 6796              		.global	gate
 6797              		.global	midi_sw
 6798              		.global	algo_sw
 6799              		.global	shift_sw
 6800              		.global	stfilter
 6801              		.global	filtenvelope
 6802              		.global	envelope
 6803              		.global	voice
 6804              		.global	adcConfig
 6805              		.global	midi
 6806              		.global	storage
 6807              		.global	i2c
 6808              		.section	.rodata
 6809              		.align	2
 6810              		.set	.LANCHOR3,. + 0
ARM GAS  /tmp/ccxnfbgf.s 			page 195


 6811              	.LC2:
 6812 0000 00000000 		.word	0
 6813 0004 00000000 		.word	0
 6814 0008 00000000 		.word	0
 6815 000c 00000000 		.word	0
 6816 0010 00000000 		.word	0
 6817 0014 00000000 		.word	0
 6818 0018 00000000 		.word	0
 6819 001c 00000000 		.word	0
 6820 0020 00000404 		.ascii	"\000\000\004\004\000\001"
 6820      0001
 6821 0026 0000     		.space	2
 6822              	.LC3:
 6823 0028 00       		.byte	0
 6824 0029 00       		.byte	0
 6825 002a 04       		.byte	4
 6826 002b 04       		.byte	4
 6827 002c 00       		.byte	0
 6828 002d 01       		.byte	1
 6829 002e 0000     		.space	2
 6830              	.LC0:
 6831 0030 01       		.byte	1
 6832 0031 07       		.byte	7
 6833 0032 0000     		.space	2
 6834              	.LC1:
 6835 0034 01       		.byte	1
 6836 0035 06       		.byte	6
 6837              		.section	.bss._ZL2hw,"aw",%nobits
 6838              		.align	2
 6839              		.set	.LANCHOR13,. + 0
 6842              	_ZL2hw:
 6843 0000 00000000 		.space	60
 6843      00000000 
 6843      00000000 
 6843      00000000 
 6843      00000000 
 6844              		.section	.bss.adcConfig,"aw",%nobits
 6845              		.align	2
 6846              		.set	.LANCHOR12,. + 0
 6849              	adcConfig:
 6850 0000 00000000 		.space	17
 6850      00000000 
 6850      00000000 
 6850      00000000 
 6850      00
 6851              		.section	.bss.algo_sw,"aw",%nobits
 6852              		.align	2
 6853              		.set	.LANCHOR8,. + 0
 6856              	algo_sw:
 6857 0000 00000000 		.space	16
 6857      00000000 
 6857      00000000 
 6857      00000000 
 6858              		.section	.bss.controls,"aw",%nobits
 6859              		.align	2
 6860              		.set	.LANCHOR2,. + 0
 6863              	controls:
ARM GAS  /tmp/ccxnfbgf.s 			page 196


 6864 0000 00000000 		.space	736
 6864      00000000 
 6864      00000000 
 6864      00000000 
 6864      00000000 
 6865              		.section	.bss.cv,"aw",%nobits
 6866              		.align	2
 6867              		.set	.LANCHOR5,. + 0
 6870              	cv:
 6871 0000 00000000 		.space	184
 6871      00000000 
 6871      00000000 
 6871      00000000 
 6871      00000000 
 6872              		.section	.bss.debug_midi,"aw",%nobits
 6875              	debug_midi:
 6876 0000 00       		.space	1
 6877              		.section	.bss.enc,"aw",%nobits
 6878              		.align	2
 6879              		.set	.LANCHOR4,. + 0
 6882              	enc:
 6883 0000 00000000 		.space	88
 6883      00000000 
 6883      00000000 
 6883      00000000 
 6883      00000000 
 6884              		.section	.bss.envelope,"aw",%nobits
 6885              		.align	2
 6886              		.set	.LANCHOR1,. + 0
 6889              	envelope:
 6890 0000 00000000 		.space	256
 6890      00000000 
 6890      00000000 
 6890      00000000 
 6890      00000000 
 6891              		.section	.bss.filtenvelope,"aw",%nobits
 6892              		.align	2
 6893              		.set	.LANCHOR6,. + 0
 6896              	filtenvelope:
 6897 0000 00000000 		.space	68
 6897      00000000 
 6897      00000000 
 6897      00000000 
 6897      00000000 
 6898              		.section	.bss.gate,"aw",%nobits
 6899              		.align	2
 6900              		.set	.LANCHOR10,. + 0
 6903              	gate:
 6904 0000 00000000 		.space	28
 6904      00000000 
 6904      00000000 
 6904      00000000 
 6904      00000000 
 6905              		.section	.bss.i2c,"aw",%nobits
 6906              		.align	2
 6907              		.set	.LANCHOR15,. + 0
 6910              	i2c:
ARM GAS  /tmp/ccxnfbgf.s 			page 197


 6911 0000 00000000 		.space	4
 6912              		.section	.bss.midi,"aw",%nobits
 6913              		.align	2
 6916              	midi:
 6917 0000 00000000 		.space	37052
 6917      00000000 
 6917      00000000 
 6917      00000000 
 6917      00000000 
 6918              		.section	.bss.midi_sw,"aw",%nobits
 6919              		.align	2
 6920              		.set	.LANCHOR9,. + 0
 6923              	midi_sw:
 6924 0000 00000000 		.space	16
 6924      00000000 
 6924      00000000 
 6924      00000000 
 6925              		.section	.bss.shift_sw,"aw",%nobits
 6926              		.align	2
 6927              		.set	.LANCHOR7,. + 0
 6930              	shift_sw:
 6931 0000 00000000 		.space	16
 6931      00000000 
 6931      00000000 
 6931      00000000 
 6932              		.section	.bss.stfilter,"aw",%nobits
 6933              		.align	2
 6934              		.set	.LANCHOR11,. + 0
 6937              	stfilter:
 6938 0000 00000000 		.space	176
 6938      00000000 
 6938      00000000 
 6938      00000000 
 6938      00000000 
 6939              		.section	.bss.storage,"aw",%nobits
 6940              		.align	2
 6941              		.set	.LANCHOR17,. + 0
 6944              	storage:
 6945 0000 00000000 		.space	92
 6945      00000000 
 6945      00000000 
 6945      00000000 
 6945      00000000 
 6946              		.section	.bss.voct,"aw",%nobits
 6947              		.align	2
 6948              		.set	.LANCHOR14,. + 0
 6951              	voct:
 6952 0000 00000000 		.space	368
 6952      00000000 
 6952      00000000 
 6952      00000000 
 6952      00000000 
 6953              		.section	.bss.voice,"aw",%nobits
 6954              		.align	2
 6955              		.set	.LANCHOR0,. + 0
 6958              	voice:
 6959 0000 00000000 		.space	736
ARM GAS  /tmp/ccxnfbgf.s 			page 198


 6959      00000000 
 6959      00000000 
 6959      00000000 
 6959      00000000 
 6960              		.section	.data.debug_pots,"aw"
 6963              	debug_pots:
 6964 0000 01       		.byte	1
 6965              		.section	.rodata._ZL10i2c_config,"a"
 6966              		.align	2
 6967              		.set	.LANCHOR16,. + 0
 6970              	_ZL10i2c_config:
 6971 0000 00000000 		.word	0
 6972 0004 01       		.byte	1
 6973 0005 08       		.byte	8
 6974 0006 01       		.byte	1
 6975 0007 09       		.byte	9
 6976 0008 02000000 		.word	2
 6977 000c 00000000 		.word	0
 6978 0010 10       		.byte	16
 6979 0011 000000   		.space	3
 6980              		.text
 6981              	.Letext0:
 6982              		.file 24 "/home/hallmar/Developer/gcc-arm-none-eabi-10.3-2021.10/arm-none-eabi/include/machine/_de
 6983              		.file 25 "/home/hallmar/Developer/gcc-arm-none-eabi-10.3-2021.10/arm-none-eabi/include/sys/_stdint
 6984              		.file 26 "/home/hallmar/Developer/gcc-arm-none-eabi-10.3-2021.10/arm-none-eabi/include/stdint.h"
 6985              		.file 27 "/home/hallmar/Developer/gcc-arm-none-eabi-10.3-2021.10/lib/gcc/arm-none-eabi/10.3.1/incl
 6986              		.file 28 "/home/hallmar/Developer/gcc-arm-none-eabi-10.3-2021.10/arm-none-eabi/include/c++/10.3.1/
 6987              		.file 29 "/home/hallmar/Developer/gcc-arm-none-eabi-10.3-2021.10/arm-none-eabi/include/c++/10.3.1/
 6988              		.file 30 "/home/hallmar/Developer/gcc-arm-none-eabi-10.3-2021.10/arm-none-eabi/include/c++/10.3.1/
 6989              		.file 31 "/home/hallmar/Developer/gcc-arm-none-eabi-10.3-2021.10/arm-none-eabi/include/c++/10.3.1/
 6990              		.file 32 "/home/hallmar/Developer/gcc-arm-none-eabi-10.3-2021.10/arm-none-eabi/include/c++/10.3.1/
 6991              		.file 33 "/home/hallmar/Developer/gcc-arm-none-eabi-10.3-2021.10/arm-none-eabi/include/c++/10.3.1/
 6992              		.file 34 "/home/hallmar/Developer/gcc-arm-none-eabi-10.3-2021.10/arm-none-eabi/include/c++/10.3.1/
 6993              		.file 35 "/home/hallmar/Developer/gcc-arm-none-eabi-10.3-2021.10/arm-none-eabi/include/c++/10.3.1/
 6994              		.file 36 "/home/hallmar/Developer/gcc-arm-none-eabi-10.3-2021.10/arm-none-eabi/include/c++/10.3.1/
 6995              		.file 37 "/home/hallmar/Developer/gcc-arm-none-eabi-10.3-2021.10/arm-none-eabi/include/c++/10.3.1/
 6996              		.file 38 "/home/hallmar/Developer/gcc-arm-none-eabi-10.3-2021.10/arm-none-eabi/include/c++/10.3.1/
 6997              		.file 39 "/home/hallmar/Developer/gcc-arm-none-eabi-10.3-2021.10/arm-none-eabi/include/c++/10.3.1/
 6998              		.file 40 "/home/hallmar/Developer/gcc-arm-none-eabi-10.3-2021.10/arm-none-eabi/include/c++/10.3.1/
 6999              		.file 41 "/home/hallmar/Developer/gcc-arm-none-eabi-10.3-2021.10/arm-none-eabi/include/c++/10.3.1/
 7000              		.file 42 "/home/hallmar/Developer/gcc-arm-none-eabi-10.3-2021.10/arm-none-eabi/include/c++/10.3.1/
 7001              		.file 43 "/home/hallmar/Developer/gcc-arm-none-eabi-10.3-2021.10/arm-none-eabi/include/c++/10.3.1/
 7002              		.file 44 "/home/hallmar/Developer/gcc-arm-none-eabi-10.3-2021.10/arm-none-eabi/include/c++/10.3.1/
 7003              		.file 45 "/home/hallmar/Developer/gcc-arm-none-eabi-10.3-2021.10/arm-none-eabi/include/sys/_types.
 7004              		.file 46 "/home/hallmar/Developer/gcc-arm-none-eabi-10.3-2021.10/arm-none-eabi/include/sys/reent.h
 7005              		.file 47 "/home/hallmar/Developer/gcc-arm-none-eabi-10.3-2021.10/arm-none-eabi/include/sys/lock.h"
 7006              		.file 48 "/home/hallmar/Developer/gcc-arm-none-eabi-10.3-2021.10/arm-none-eabi/include/math.h"
 7007              		.file 49 "/home/hallmar/Developer/gcc-arm-none-eabi-10.3-2021.10/arm-none-eabi/include/stdlib.h"
 7008              		.file 50 "/home/hallmar/Developer/gcc-arm-none-eabi-10.3-2021.10/arm-none-eabi/include/c++/10.3.1/
 7009              		.file 51 "/home/hallmar/Developer/gcc-arm-none-eabi-10.3-2021.10/lib/gcc/arm-none-eabi/10.3.1/incl
 7010              		.file 52 "/home/hallmar/Developer/gcc-arm-none-eabi-10.3-2021.10/arm-none-eabi/include/wchar.h"
 7011              		.file 53 "/home/hallmar/Developer/gcc-arm-none-eabi-10.3-2021.10/arm-none-eabi/include/locale.h"
 7012              		.file 54 "/home/hallmar/Developer/gcc-arm-none-eabi-10.3-2021.10/arm-none-eabi/include/stdio.h"
 7013              		.file 55 "/home/hallmar/Developer/gcc-arm-none-eabi-10.3-2021.10/arm-none-eabi/include/c++/10.3.1/
 7014              		.file 56 "/home/hallmar/Developer/gcc-arm-none-eabi-10.3-2021.10/arm-none-eabi/include/string.h"
 7015              		.file 57 "libDaisy/src/daisy_core.h"
 7016              		.file 58 "libDaisy/src/per/tim.h"
ARM GAS  /tmp/ccxnfbgf.s 			page 199


 7017              		.file 59 "libDaisy/src/per/sai.h"
 7018              		.file 60 "libDaisy/src/hid/MidiEvent.h"
 7019              		.file 61 "libDaisy/src/hid/parameter.h"
 7020              		.file 62 "libDaisy/src/hid/logger_impl.h"
 7021              		.file 63 "libDaisy/src/util/wav_format.h"
 7022              		.file 64 "libDaisy/src/dev/max11300.h"
 7023              		.file 65 "libDaisy/src/hid/logger.h"
 7024              		.file 66 "libDaisy/src/per/gpio.h"
 7025              		.file 67 "libDaisy/src/dev/sdram.h"
 7026              		.file 68 "variables.h"
 7027              		.file 69 "libDaisy/src/dev/sr_595.h"
 7028              		.file 70 "settings.h"
 7029              		.file 71 "<built-in>"
ARM GAS  /tmp/ccxnfbgf.s 			page 200


DEFINED SYMBOLS
                            *ABS*:0000000000000000 fjol.cpp
     /tmp/ccxnfbgf.s:19     .text._ZN5daisy6SwitchD2Ev:0000000000000000 $t
     /tmp/ccxnfbgf.s:26     .text._ZN5daisy6SwitchD2Ev:0000000000000000 _ZN5daisy6SwitchD2Ev
     /tmp/ccxnfbgf.s:26     .text._ZN5daisy6SwitchD2Ev:0000000000000000 _ZN5daisy6SwitchD1Ev
     /tmp/ccxnfbgf.s:43     .text._ZN5daisy9DaisySeedD2Ev:0000000000000000 $t
     /tmp/ccxnfbgf.s:50     .text._ZN5daisy9DaisySeedD2Ev:0000000000000000 _ZN5daisy9DaisySeedD2Ev
     /tmp/ccxnfbgf.s:50     .text._ZN5daisy9DaisySeedD2Ev:0000000000000000 _ZN5daisy9DaisySeedD1Ev
     /tmp/ccxnfbgf.s:91     .text.__tcf_0:0000000000000000 $t
     /tmp/ccxnfbgf.s:97     .text.__tcf_0:0000000000000000 __tcf_0
     /tmp/ccxnfbgf.s:111    .text._ZN7ADStrucD2Ev:0000000000000000 $t
     /tmp/ccxnfbgf.s:118    .text._ZN7ADStrucD2Ev:0000000000000000 _ZN7ADStrucD2Ev
     /tmp/ccxnfbgf.s:118    .text._ZN7ADStrucD2Ev:0000000000000000 _ZN7ADStrucD1Ev
     /tmp/ccxnfbgf.s:140    .text._ZN5daisy11MidiHandlerINS_17MidiUartTransportEED2Ev:0000000000000000 $t
     /tmp/ccxnfbgf.s:147    .text._ZN5daisy11MidiHandlerINS_17MidiUartTransportEED2Ev:0000000000000000 _ZN5daisy11MidiHandlerINS_17MidiUartTransportEED2Ev
     /tmp/ccxnfbgf.s:147    .text._ZN5daisy11MidiHandlerINS_17MidiUartTransportEED2Ev:0000000000000000 _ZN5daisy11MidiHandlerINS_17MidiUartTransportEED1Ev
     /tmp/ccxnfbgf.s:169    .text._ZL13AudioCallbackPKfPfj:0000000000000000 $t
     /tmp/ccxnfbgf.s:175    .text._ZL13AudioCallbackPKfPfj:0000000000000000 _ZL13AudioCallbackPKfPfj
     /tmp/ccxnfbgf.s:622    .text._ZL13AudioCallbackPKfPfj:00000000000001a8 $d
     /tmp/ccxnfbgf.s:639    .text._Z8glidevalv.part.0:0000000000000000 $t
     /tmp/ccxnfbgf.s:645    .text._Z8glidevalv.part.0:0000000000000000 _Z8glidevalv.part.0
     /tmp/ccxnfbgf.s:728    .text._Z8glidevalv.part.0:0000000000000070 $d
     /tmp/ccxnfbgf.s:736    .text.__tcf_6:0000000000000000 $t
     /tmp/ccxnfbgf.s:742    .text.__tcf_6:0000000000000000 __tcf_6
     /tmp/ccxnfbgf.s:753    .text.__tcf_7:0000000000000000 $t
     /tmp/ccxnfbgf.s:759    .text.__tcf_7:0000000000000000 __tcf_7
     /tmp/ccxnfbgf.s:770    .text.__tcf_1:0000000000000000 $t
     /tmp/ccxnfbgf.s:776    .text.__tcf_1:0000000000000000 __tcf_1
     /tmp/ccxnfbgf.s:787    .text.__tcf_2:0000000000000000 $t
     /tmp/ccxnfbgf.s:793    .text.__tcf_2:0000000000000000 __tcf_2
     /tmp/ccxnfbgf.s:804    .text.__tcf_3:0000000000000000 $t
     /tmp/ccxnfbgf.s:810    .text.__tcf_3:0000000000000000 __tcf_3
     /tmp/ccxnfbgf.s:821    .text.__tcf_4:0000000000000000 $t
     /tmp/ccxnfbgf.s:827    .text.__tcf_4:0000000000000000 __tcf_4
     /tmp/ccxnfbgf.s:838    .text.__tcf_5:0000000000000000 $t
     /tmp/ccxnfbgf.s:844    .text.__tcf_5:0000000000000000 __tcf_5
     /tmp/ccxnfbgf.s:855    .text._Z9calcrightf:0000000000000000 $t
     /tmp/ccxnfbgf.s:862    .text._Z9calcrightf:0000000000000000 _Z9calcrightf
     /tmp/ccxnfbgf.s:934    .text._Z9calcrightf:0000000000000048 $d
     /tmp/ccxnfbgf.s:940    .text._Z8calcleftf:0000000000000000 $t
     /tmp/ccxnfbgf.s:947    .text._Z8calcleftf:0000000000000000 _Z8calcleftf
     /tmp/ccxnfbgf.s:1022   .text._Z8calcleftf:0000000000000050 $d
     /tmp/ccxnfbgf.s:1030   .text._Z12updatespreadv:0000000000000000 $t
     /tmp/ccxnfbgf.s:1037   .text._Z12updatespreadv:0000000000000000 _Z12updatespreadv
     /tmp/ccxnfbgf.s:1476   .text._Z12updatespreadv:00000000000001c0 $d
     /tmp/ccxnfbgf.s:1491   .text._Z16getorsetsettingsb:0000000000000000 $t
     /tmp/ccxnfbgf.s:1498   .text._Z16getorsetsettingsb:0000000000000000 _Z16getorsetsettingsb
     /tmp/ccxnfbgf.s:1607   .text._Z16getorsetsettingsb:0000000000000054 $d
     /tmp/ccxnfbgf.s:1616   .text._Z8glidevalv:0000000000000000 $t
     /tmp/ccxnfbgf.s:1623   .text._Z8glidevalv:0000000000000000 _Z8glidevalv
     /tmp/ccxnfbgf.s:1695   .text._Z8glidevalv:0000000000000038 $d
     /tmp/ccxnfbgf.s:1702   .text._Z9midipanicv:0000000000000000 $t
     /tmp/ccxnfbgf.s:1709   .text._Z9midipanicv:0000000000000000 _Z9midipanicv
     /tmp/ccxnfbgf.s:1741   .text._Z9midipanicv:0000000000000014 $d
     /tmp/ccxnfbgf.s:1747   .text._Z13update_paramsiff:0000000000000000 $t
     /tmp/ccxnfbgf.s:1754   .text._Z13update_paramsiff:0000000000000000 _Z13update_paramsiff
     /tmp/ccxnfbgf.s:1906   .text._Z13update_paramsiff:00000000000000a4 $d
ARM GAS  /tmp/ccxnfbgf.s 			page 201


     /tmp/ccxnfbgf.s:1915   .text._Z16select_algorithmv:0000000000000000 $t
     /tmp/ccxnfbgf.s:1922   .text._Z16select_algorithmv:0000000000000000 _Z16select_algorithmv
     /tmp/ccxnfbgf.s:2039   .text._Z16select_algorithmv:0000000000000078 $d
     /tmp/ccxnfbgf.s:2045   .text._Z9updateadcv:0000000000000000 $t
     /tmp/ccxnfbgf.s:2052   .text._Z9updateadcv:0000000000000000 _Z9updateadcv
     /tmp/ccxnfbgf.s:2247   .text._Z9updateadcv:00000000000000d0 $d
     /tmp/ccxnfbgf.s:2262   .text._Z14updateSwitchesv:0000000000000000 $t
     /tmp/ccxnfbgf.s:2269   .text._Z14updateSwitchesv:0000000000000000 _Z14updateSwitchesv
     /tmp/ccxnfbgf.s:2692   .text._Z14updateSwitchesv:000000000000013c $d
     /tmp/ccxnfbgf.s:2708   .text._Z14updatecontrolsv:0000000000000000 $t
     /tmp/ccxnfbgf.s:2715   .text._Z14updatecontrolsv:0000000000000000 _Z14updatecontrolsv
     /tmp/ccxnfbgf.s:2866   .text._Z14updatecontrolsv:0000000000000068 $d
     /tmp/ccxnfbgf.s:2875   .text._Z15initializeaudiov:0000000000000000 $t
     /tmp/ccxnfbgf.s:2882   .text._Z15initializeaudiov:0000000000000000 _Z15initializeaudiov
     /tmp/ccxnfbgf.s:3346   .text._Z15initializeaudiov:0000000000000170 $d
     /tmp/ccxnfbgf.s:3363   .text._Z13initializeadcv:0000000000000000 $t
     /tmp/ccxnfbgf.s:3370   .text._Z13initializeadcv:0000000000000000 _Z13initializeadcv
     /tmp/ccxnfbgf.s:3493   .text._Z13initializeadcv:00000000000000c8 $d
     /tmp/ccxnfbgf.s:3498   .rodata._Z18initializecontrolsv.str1.4:0000000000000000 $d
     /tmp/ccxnfbgf.s:3502   .text._Z18initializecontrolsv:0000000000000000 $t
     /tmp/ccxnfbgf.s:3509   .text._Z18initializecontrolsv:0000000000000000 _Z18initializecontrolsv
     /tmp/ccxnfbgf.s:3947   .text._Z18initializecontrolsv:000000000000029c $d
     /tmp/ccxnfbgf.s:3965   .text._Z6setpwmhh:0000000000000000 $t
     /tmp/ccxnfbgf.s:3972   .text._Z6setpwmhh:0000000000000000 _Z6setpwmhh
     /tmp/ccxnfbgf.s:4017   .text._Z6setpwmhh:0000000000000028 $d
     /tmp/ccxnfbgf.s:4022   .text._Z12startPCA9622v:0000000000000000 $t
     /tmp/ccxnfbgf.s:4029   .text._Z12startPCA9622v:0000000000000000 _Z12startPCA9622v
     /tmp/ccxnfbgf.s:4133   .text._Z12startPCA9622v:0000000000000078 $d
     /tmp/ccxnfbgf.s:4138   .text._Z11shiftvoicesv:0000000000000000 $t
     /tmp/ccxnfbgf.s:4145   .text._Z11shiftvoicesv:0000000000000000 _Z11shiftvoicesv
     /tmp/ccxnfbgf.s:4181   .text._Z11shiftvoicesv:0000000000000018 $d
     /tmp/ccxnfbgf.s:4186   .text._Z8voiceOFFh:0000000000000000 $t
     /tmp/ccxnfbgf.s:4193   .text._Z8voiceOFFh:0000000000000000 _Z8voiceOFFh
     /tmp/ccxnfbgf.s:4274   .text._Z8voiceOFFh:0000000000000048 $d
     /tmp/ccxnfbgf.s:4282   .text._Z7voiceONh:0000000000000000 $t
     /tmp/ccxnfbgf.s:4289   .text._Z7voiceONh:0000000000000000 _Z7voiceONh
     /tmp/ccxnfbgf.s:4536   .text._Z7voiceONh:00000000000000bc $d
     /tmp/ccxnfbgf.s:4553   .text._ZN5daisy11MidiHandlerINS_17MidiUartTransportEE5ParseEh:0000000000000000 $t
     /tmp/ccxnfbgf.s:4560   .text._ZN5daisy11MidiHandlerINS_17MidiUartTransportEE5ParseEh:0000000000000000 _ZN5daisy11MidiHandlerINS_17MidiUartTransportEE5ParseEh
     /tmp/ccxnfbgf.s:4639   .text._ZN5daisy11MidiHandlerINS_17MidiUartTransportEE5ParseEh:0000000000000050 $d
     /tmp/ccxnfbgf.s:4643   .text._ZN5daisy11MidiHandlerINS_17MidiUartTransportEE5ParseEh:0000000000000054 $t
     /tmp/ccxnfbgf.s:5220   .rodata.main.str1.4:0000000000000000 $d
     /tmp/ccxnfbgf.s:5224   .text.startup.main:0000000000000000 $t
     /tmp/ccxnfbgf.s:5231   .text.startup.main:0000000000000000 main
     /tmp/ccxnfbgf.s:6052   .text.startup.main:0000000000000264 $d
     /tmp/ccxnfbgf.s:6916   .bss.midi:0000000000000000 midi
     /tmp/ccxnfbgf.s:6076   .text.startup._GLOBAL__sub_I_i2c:0000000000000000 $t
     /tmp/ccxnfbgf.s:6082   .text.startup._GLOBAL__sub_I_i2c:0000000000000000 _GLOBAL__sub_I_i2c
     /tmp/ccxnfbgf.s:6754   .text.startup._GLOBAL__sub_I_i2c:0000000000000178 $d
     /tmp/ccxnfbgf.s:6788   .init_array:0000000000000000 $d
     /tmp/ccxnfbgf.s:6875   .bss.debug_midi:0000000000000000 debug_midi
     /tmp/ccxnfbgf.s:6963   .data.debug_pots:0000000000000000 debug_pots
     /tmp/ccxnfbgf.s:6882   .bss.enc:0000000000000000 enc
     /tmp/ccxnfbgf.s:6870   .bss.cv:0000000000000000 cv
     /tmp/ccxnfbgf.s:6863   .bss.controls:0000000000000000 controls
     /tmp/ccxnfbgf.s:6951   .bss.voct:0000000000000000 voct
     /tmp/ccxnfbgf.s:6903   .bss.gate:0000000000000000 gate
ARM GAS  /tmp/ccxnfbgf.s 			page 202


     /tmp/ccxnfbgf.s:6923   .bss.midi_sw:0000000000000000 midi_sw
     /tmp/ccxnfbgf.s:6856   .bss.algo_sw:0000000000000000 algo_sw
     /tmp/ccxnfbgf.s:6930   .bss.shift_sw:0000000000000000 shift_sw
     /tmp/ccxnfbgf.s:6937   .bss.stfilter:0000000000000000 stfilter
     /tmp/ccxnfbgf.s:6896   .bss.filtenvelope:0000000000000000 filtenvelope
     /tmp/ccxnfbgf.s:6889   .bss.envelope:0000000000000000 envelope
     /tmp/ccxnfbgf.s:6958   .bss.voice:0000000000000000 voice
     /tmp/ccxnfbgf.s:6849   .bss.adcConfig:0000000000000000 adcConfig
     /tmp/ccxnfbgf.s:6944   .bss.storage:0000000000000000 storage
     /tmp/ccxnfbgf.s:6910   .bss.i2c:0000000000000000 i2c
     /tmp/ccxnfbgf.s:6809   .rodata:0000000000000000 $d
     /tmp/ccxnfbgf.s:6838   .bss._ZL2hw:0000000000000000 $d
     /tmp/ccxnfbgf.s:6842   .bss._ZL2hw:0000000000000000 _ZL2hw
     /tmp/ccxnfbgf.s:6845   .bss.adcConfig:0000000000000000 $d
     /tmp/ccxnfbgf.s:6852   .bss.algo_sw:0000000000000000 $d
     /tmp/ccxnfbgf.s:6859   .bss.controls:0000000000000000 $d
     /tmp/ccxnfbgf.s:6866   .bss.cv:0000000000000000 $d
     /tmp/ccxnfbgf.s:6876   .bss.debug_midi:0000000000000000 $d
     /tmp/ccxnfbgf.s:6878   .bss.enc:0000000000000000 $d
     /tmp/ccxnfbgf.s:6885   .bss.envelope:0000000000000000 $d
     /tmp/ccxnfbgf.s:6892   .bss.filtenvelope:0000000000000000 $d
     /tmp/ccxnfbgf.s:6899   .bss.gate:0000000000000000 $d
     /tmp/ccxnfbgf.s:6906   .bss.i2c:0000000000000000 $d
     /tmp/ccxnfbgf.s:6913   .bss.midi:0000000000000000 $d
     /tmp/ccxnfbgf.s:6919   .bss.midi_sw:0000000000000000 $d
     /tmp/ccxnfbgf.s:6926   .bss.shift_sw:0000000000000000 $d
     /tmp/ccxnfbgf.s:6933   .bss.stfilter:0000000000000000 $d
     /tmp/ccxnfbgf.s:6940   .bss.storage:0000000000000000 $d
     /tmp/ccxnfbgf.s:6947   .bss.voct:0000000000000000 $d
     /tmp/ccxnfbgf.s:6954   .bss.voice:0000000000000000 $d
     /tmp/ccxnfbgf.s:6966   .rodata._ZL10i2c_config:0000000000000000 $d
     /tmp/ccxnfbgf.s:6970   .rodata._ZL10i2c_config:0000000000000000 _ZL10i2c_config
                           .group:0000000000000000 _ZN5daisy6SwitchD5Ev
                           .group:0000000000000000 _ZN5daisy9DaisySeedD5Ev
                           .group:0000000000000000 _ZN7ADStrucD5Ev
                           .group:0000000000000000 _ZN5daisy11MidiHandlerINS_17MidiUartTransportEED5Ev

UNDEFINED SYMBOLS
_ZN7daisysp10Oscillator12CalcPhaseIncEf
_ZN7daisysp4Adsr7ProcessEb
_ZN7daisysp10Oscillator7ProcessEv
ratioindex
knob_value
param
voicefreq
voicetrig
glide
voicefreqtarget
sinf
sqrt
cosf
algo_select
midichannel
glidetime
gate_out
_Z10led_updateh
params_changed
ARM GAS  /tmp/ccxnfbgf.s 			page 203


param_sum
cv_mod
_ZN5daisy9Parameter7ProcessEv
_ZN5daisy13AnalogControl7ProcessEv
_ZN7daisysp4Adsr13SetAttackTimeEff
_ZN7daisysp4Adsr12SetDecayTimeEf
cv_value
_ZN5daisy6Switch8DebounceEv
_ZN5daisy7Encoder8DebounceEv
dsy_gpio_read
_ZN5daisy6System6GetNowEv
_Z13led_menu_stephh
led_takeover
ledlastmillis
_Z12encoder_reada
_ZN7daisysp4Adsr4InitEfi
_ZN7daisysp5AdEnv4InitEf
_ZN7daisysp3Svf4InitEf
_ZN7daisysp3Svf8SetDriveEf
pm1amp
samplerate
_ZN5daisy9DaisySeed6GetPinEh
_ZN5daisy16AdcChannelConfig10InitSingleE12dsy_gpio_pin
_ZN5daisy16AdcChannelConfig7InitMuxE12dsy_gpio_pinjS1_S1_S1_
_ZNK5daisy9DaisySeed17AudioCallbackRateEv
_ZN5daisy6Switch4InitE12dsy_gpio_pinf
_ZN5daisy7Encoder4InitE12dsy_gpio_pinS1_S1_f
_ZNK5daisy9AdcHandle9GetMuxPtrEhh
_ZN5daisy13AnalogControl4InitEPtfbbf
_ZNK5daisy9AdcHandle6GetPtrEh
_ZN5daisy9Parameter4InitENS_13AnalogControlEffNS0_5CurveE
_ZN5daisy9I2CHandle18WriteDataAtAddressEtttPhtm
_ZN5daisy6System5DelayEm
voicehist
voicenote
filtenv_trig
powf
_ZN7daisysp4Adsr9RetriggerEb
octave
octaveindex
pbend
memcpy
_ZN5daisy6LoggerILNS_17LoggerDestinationE1EE9PrintLineEPKcz
_ZN5daisy9I2CHandle4InitERKNS0_6ConfigE
_ZN5daisy9AdcHandle4InitEPNS_16AdcChannelConfigEjNS0_12OverSamplingE
_ZN5daisy9DaisySeed4InitEb
_ZN5daisy9DaisySeed17SetAudioBlockSizeEj
_ZN5daisy9DaisySeed15AudioSampleRateEv
_ZN5daisy9DaisySeed10StartAudioEPFvPKfPfjE
_ZN5daisy11UartHandler4InitERKNS0_6ConfigE
_ZN5daisy11UartHandler7StartRxEv
_ZN5daisy11UartHandler5PopRxEv
_ZN5daisy11UartHandler8ReadableEv
_Z17HandleMidiMessageN5daisy9MidiEventE
_Z9calibratev
lastMillis
__aeabi_atexit
ARM GAS  /tmp/ccxnfbgf.s 			page 204


memset
__dso_handle
