ARM GAS  /tmp/ccxnfbgf.s 			page 1


   1              		.cpu cortex-m7
   2              		.arch armv7e-m
   3              		.fpu fpv5-d16
   4              		.eabi_attribute 28, 1
   5              		.eabi_attribute 20, 1
   6              		.eabi_attribute 21, 1
   7              		.eabi_attribute 23, 3
   8              		.eabi_attribute 24, 1
   9              		.eabi_attribute 25, 1
  10              		.eabi_attribute 26, 1
  11              		.eabi_attribute 30, 2
  12              		.eabi_attribute 34, 1
  13              		.eabi_attribute 18, 4
  14              		.file	"fjol.cpp"
  15              		.text
  16              	.Ltext0:
  17              		.cfi_sections	.debug_frame
  18              		.section	.text._ZN5daisy6SwitchD2Ev,"axG",%progbits,_ZN5daisy6SwitchD5Ev,comdat
  19              		.align	1
  20              		.p2align 2,,3
  21              		.weak	_ZN5daisy6SwitchD2Ev
  22              		.syntax unified
  23              		.thumb
  24              		.thumb_func
  26              	_ZN5daisy6SwitchD2Ev:
  27              	.LVL0:
  28              	.LFB3867:
  29              		.file 1 "libDaisy/src/hid/switch.h"
   1:libDaisy/src/hid/switch.h **** #pragma once
   2:libDaisy/src/hid/switch.h **** #ifndef DSY_SWITCH_H
   3:libDaisy/src/hid/switch.h **** #define DSY_SWITCH_H
   4:libDaisy/src/hid/switch.h **** #include "daisy_core.h"
   5:libDaisy/src/hid/switch.h **** #include "per/gpio.h"
   6:libDaisy/src/hid/switch.h **** #include "sys/system.h"
   7:libDaisy/src/hid/switch.h **** 
   8:libDaisy/src/hid/switch.h **** namespace daisy
   9:libDaisy/src/hid/switch.h **** {
  10:libDaisy/src/hid/switch.h **** /** 
  11:libDaisy/src/hid/switch.h ****     Generic Class for handling momentary/latching switches \n 
  12:libDaisy/src/hid/switch.h ****     Inspired/influenced by Mutable Instruments (pichenettes) Switch classes
  13:libDaisy/src/hid/switch.h ****     @author Stephen Hensley
  14:libDaisy/src/hid/switch.h ****     @date December 2019
  15:libDaisy/src/hid/switch.h ****     @ingroup controls
  16:libDaisy/src/hid/switch.h **** */
  17:libDaisy/src/hid/switch.h **** class Switch
  18:libDaisy/src/hid/switch.h **** {
  19:libDaisy/src/hid/switch.h ****   public:
  20:libDaisy/src/hid/switch.h ****     /** Specifies the expected behavior of the switch */
  21:libDaisy/src/hid/switch.h ****     enum Type
  22:libDaisy/src/hid/switch.h ****     {
  23:libDaisy/src/hid/switch.h ****         TYPE_TOGGLE,    /**< & */
  24:libDaisy/src/hid/switch.h ****         TYPE_MOMENTARY, /**< & */
  25:libDaisy/src/hid/switch.h ****     };
  26:libDaisy/src/hid/switch.h ****     /** Specifies whether the pressed is HIGH or LOW. */
  27:libDaisy/src/hid/switch.h ****     enum Polarity
  28:libDaisy/src/hid/switch.h ****     {
  29:libDaisy/src/hid/switch.h ****         POLARITY_NORMAL,   /**< & */
ARM GAS  /tmp/ccxnfbgf.s 			page 2


  30:libDaisy/src/hid/switch.h ****         POLARITY_INVERTED, /**< & */
  31:libDaisy/src/hid/switch.h ****     };
  32:libDaisy/src/hid/switch.h **** 
  33:libDaisy/src/hid/switch.h ****     /** Specifies whether to use built-in Pull Up/Down resistors to hold button at a given state wh
  34:libDaisy/src/hid/switch.h ****     enum Pull
  35:libDaisy/src/hid/switch.h ****     {
  36:libDaisy/src/hid/switch.h ****         PULL_UP,   /**< & */
  37:libDaisy/src/hid/switch.h ****         PULL_DOWN, /**< & */
  38:libDaisy/src/hid/switch.h ****         PULL_NONE, /**< & */
  39:libDaisy/src/hid/switch.h ****     };
  40:libDaisy/src/hid/switch.h **** 
  41:libDaisy/src/hid/switch.h ****     Switch() {}
  42:libDaisy/src/hid/switch.h ****     ~Switch() {}
  30              		.loc 1 42 5 view -0
  31              		.cfi_startproc
  32              		@ args = 0, pretend = 0, frame = 0
  33              		@ frame_needed = 0, uses_anonymous_args = 0
  34              		@ link register save eliminated.
  35              		.loc 1 42 16 is_stmt 0 view .LVU1
  36 0000 7047     		bx	lr
  37              		.cfi_endproc
  38              	.LFE3867:
  40              		.weak	_ZN5daisy6SwitchD1Ev
  41              		.thumb_set _ZN5daisy6SwitchD1Ev,_ZN5daisy6SwitchD2Ev
  42 0002 00BF     		.section	.text._ZN5daisy9DaisySeedD2Ev,"axG",%progbits,_ZN5daisy9DaisySeedD5Ev,comdat
  43              		.align	1
  44              		.p2align 2,,3
  45              		.weak	_ZN5daisy9DaisySeedD2Ev
  46              		.syntax unified
  47              		.thumb
  48              		.thumb_func
  50              	_ZN5daisy9DaisySeedD2Ev:
  51              	.LVL1:
  52              	.LFB4784:
  53              		.file 2 "libDaisy/src/daisy_seed.h"
   1:libDaisy/src/daisy_seed.h **** #pragma once
   2:libDaisy/src/daisy_seed.h **** #ifndef DSY_SEED_H
   3:libDaisy/src/daisy_seed.h **** #define DSY_SEED_H
   4:libDaisy/src/daisy_seed.h **** 
   5:libDaisy/src/daisy_seed.h **** #include "daisy.h"
   6:libDaisy/src/daisy_seed.h **** 
   7:libDaisy/src/daisy_seed.h **** //Uncomment this out if you're still using the rev2 hardware
   8:libDaisy/src/daisy_seed.h **** //#define SEED_REV2
   9:libDaisy/src/daisy_seed.h **** 
  10:libDaisy/src/daisy_seed.h **** namespace daisy
  11:libDaisy/src/daisy_seed.h **** {
  12:libDaisy/src/daisy_seed.h **** /**
  13:libDaisy/src/daisy_seed.h ****    @brief This is the higher-level interface for the Daisy board. \n 
  14:libDaisy/src/daisy_seed.h ****     All basic peripheral configuration/initialization is setup here. \n
  15:libDaisy/src/daisy_seed.h **** 
  16:libDaisy/src/daisy_seed.h ****    @ingroup boards
  17:libDaisy/src/daisy_seed.h **** */
  18:libDaisy/src/daisy_seed.h **** class DaisySeed
  19:libDaisy/src/daisy_seed.h **** {
  20:libDaisy/src/daisy_seed.h ****   public:
  21:libDaisy/src/daisy_seed.h ****     DaisySeed() {}
  22:libDaisy/src/daisy_seed.h ****     ~DaisySeed() {}
ARM GAS  /tmp/ccxnfbgf.s 			page 3


  54              		.loc 2 22 5 is_stmt 1 view -0
  55              		.cfi_startproc
  56              		@ args = 0, pretend = 0, frame = 0
  57              		@ frame_needed = 0, uses_anonymous_args = 0
  58              		@ link register save eliminated.
  59              	.LBB549:
  60              	.LBI549:
  61              		.file 3 "libDaisy/src/sys/system.h"
   1:libDaisy/src/sys/system.h **** #ifndef DSY_SYSTEM_H
   2:libDaisy/src/sys/system.h **** #define DSY_SYSTEM_H
   3:libDaisy/src/sys/system.h **** 
   4:libDaisy/src/sys/system.h **** #ifndef UNIT_TEST // for unit tests, a dummy implementation is provided below
   5:libDaisy/src/sys/system.h **** 
   6:libDaisy/src/sys/system.h **** #include <cstdint>
   7:libDaisy/src/sys/system.h **** #include "per/tim.h"
   8:libDaisy/src/sys/system.h **** 
   9:libDaisy/src/sys/system.h **** namespace daisy
  10:libDaisy/src/sys/system.h **** {
  11:libDaisy/src/sys/system.h **** /** A handle for interacting with the Core System. 
  12:libDaisy/src/sys/system.h ****  ** This includes the Clock tree, MPU, global DMA initialization,
  13:libDaisy/src/sys/system.h ****  ** cache handling, and any other necessary global initiailzation
  14:libDaisy/src/sys/system.h ****  **
  15:libDaisy/src/sys/system.h ****  ** @author shensley
  16:libDaisy/src/sys/system.h ****  ** @ingroup system
  17:libDaisy/src/sys/system.h ****  */
  18:libDaisy/src/sys/system.h **** class System
  19:libDaisy/src/sys/system.h **** {
  20:libDaisy/src/sys/system.h ****   public:
  21:libDaisy/src/sys/system.h ****     /** Contains settings for initializing the System */
  22:libDaisy/src/sys/system.h ****     struct Config
  23:libDaisy/src/sys/system.h ****     {
  24:libDaisy/src/sys/system.h ****         /** Specifies the system clock frequency that feeds APB/AHB clocks, etc. */
  25:libDaisy/src/sys/system.h ****         enum class SysClkFreq
  26:libDaisy/src/sys/system.h ****         {
  27:libDaisy/src/sys/system.h ****             FREQ_400MHZ,
  28:libDaisy/src/sys/system.h ****             FREQ_480MHZ,
  29:libDaisy/src/sys/system.h ****         };
  30:libDaisy/src/sys/system.h **** 
  31:libDaisy/src/sys/system.h ****         /** Method to call on the struct to set to defaults
  32:libDaisy/src/sys/system.h ****          ** CPU Freq set to 400MHz
  33:libDaisy/src/sys/system.h ****          ** Cache Enabled 
  34:libDaisy/src/sys/system.h ****          ** */
  35:libDaisy/src/sys/system.h ****         void Defaults()
  36:libDaisy/src/sys/system.h ****         {
  37:libDaisy/src/sys/system.h ****             cpu_freq    = SysClkFreq::FREQ_400MHZ;
  38:libDaisy/src/sys/system.h ****             use_dcache  = true;
  39:libDaisy/src/sys/system.h ****             use_icache  = true;
  40:libDaisy/src/sys/system.h ****             skip_clocks = false;
  41:libDaisy/src/sys/system.h ****         }
  42:libDaisy/src/sys/system.h **** 
  43:libDaisy/src/sys/system.h ****         /** Method to call on the struct to set to boost mode:
  44:libDaisy/src/sys/system.h ****          ** CPU Freq set to 480MHz
  45:libDaisy/src/sys/system.h ****          ** Cache Enabled 
  46:libDaisy/src/sys/system.h ****          ** */
  47:libDaisy/src/sys/system.h ****         void Boost()
  48:libDaisy/src/sys/system.h ****         {
  49:libDaisy/src/sys/system.h ****             cpu_freq    = SysClkFreq::FREQ_480MHZ;
ARM GAS  /tmp/ccxnfbgf.s 			page 4


  50:libDaisy/src/sys/system.h ****             use_dcache  = true;
  51:libDaisy/src/sys/system.h ****             use_icache  = true;
  52:libDaisy/src/sys/system.h ****             skip_clocks = false;
  53:libDaisy/src/sys/system.h ****         }
  54:libDaisy/src/sys/system.h **** 
  55:libDaisy/src/sys/system.h ****         SysClkFreq cpu_freq;
  56:libDaisy/src/sys/system.h ****         bool       use_dcache;
  57:libDaisy/src/sys/system.h ****         bool       use_icache;
  58:libDaisy/src/sys/system.h ****         bool       skip_clocks;
  59:libDaisy/src/sys/system.h ****     };
  60:libDaisy/src/sys/system.h **** 
  61:libDaisy/src/sys/system.h ****     /** Describes the different regions of memory available to the Daisy
  62:libDaisy/src/sys/system.h ****      * 
  63:libDaisy/src/sys/system.h ****      */
  64:libDaisy/src/sys/system.h ****     enum MemoryRegion
  65:libDaisy/src/sys/system.h ****     {
  66:libDaisy/src/sys/system.h ****         INTERNAL_FLASH = 0,
  67:libDaisy/src/sys/system.h ****         ITCMRAM,
  68:libDaisy/src/sys/system.h ****         DTCMRAM,
  69:libDaisy/src/sys/system.h ****         SRAM_D1,
  70:libDaisy/src/sys/system.h ****         SRAM_D2,
  71:libDaisy/src/sys/system.h ****         SRAM_D3,
  72:libDaisy/src/sys/system.h ****         SDRAM,
  73:libDaisy/src/sys/system.h ****         QSPI,
  74:libDaisy/src/sys/system.h ****         INVALID_ADDRESS,
  75:libDaisy/src/sys/system.h ****     };
  76:libDaisy/src/sys/system.h **** 
  77:libDaisy/src/sys/system.h ****     System() {}
  78:libDaisy/src/sys/system.h ****     ~System() {}
  62              		.loc 3 78 5 view .LVU3
  63              		.loc 3 78 5 is_stmt 0 view .LVU4
  64              	.LBE549:
  65              	.LBB550:
  66              	.LBI550:
  67              		.file 4 "libDaisy/src/hid/usb.h"
   1:libDaisy/src/hid/usb.h **** #pragma once
   2:libDaisy/src/hid/usb.h **** #ifndef DSY_HID_USB_H
   3:libDaisy/src/hid/usb.h **** #define DSY_HID_USB_H
   4:libDaisy/src/hid/usb.h **** #include <stdint.h>
   5:libDaisy/src/hid/usb.h **** #include <stdlib.h>
   6:libDaisy/src/hid/usb.h **** 
   7:libDaisy/src/hid/usb.h **** namespace daisy
   8:libDaisy/src/hid/usb.h **** /** @addtogroup human_interface
   9:libDaisy/src/hid/usb.h ****     @{
  10:libDaisy/src/hid/usb.h **** */
  11:libDaisy/src/hid/usb.h **** 
  12:libDaisy/src/hid/usb.h **** {
  13:libDaisy/src/hid/usb.h **** /** 
  14:libDaisy/src/hid/usb.h ****     @brief Interface for initializing and using the USB Peripherals on the daisy
  15:libDaisy/src/hid/usb.h ****     @author Stephen Hensley
  16:libDaisy/src/hid/usb.h ****     @date December 2019
  17:libDaisy/src/hid/usb.h **** */
  18:libDaisy/src/hid/usb.h **** class UsbHandle
  19:libDaisy/src/hid/usb.h **** {
  20:libDaisy/src/hid/usb.h ****   public:
  21:libDaisy/src/hid/usb.h ****     /** Return values for USBHandle Functions */
  22:libDaisy/src/hid/usb.h ****     enum class Result
ARM GAS  /tmp/ccxnfbgf.s 			page 5


  23:libDaisy/src/hid/usb.h ****     {
  24:libDaisy/src/hid/usb.h ****         OK,
  25:libDaisy/src/hid/usb.h ****         ERR,
  26:libDaisy/src/hid/usb.h ****     };
  27:libDaisy/src/hid/usb.h **** 
  28:libDaisy/src/hid/usb.h ****     /** Specified which of the two USB Peripherals to initialize. */
  29:libDaisy/src/hid/usb.h ****     enum UsbPeriph
  30:libDaisy/src/hid/usb.h ****     {
  31:libDaisy/src/hid/usb.h ****         FS_INTERNAL, /**< Internal pin */
  32:libDaisy/src/hid/usb.h ****         FS_EXTERNAL, /**< FS External D+ pin is Pin 38 (GPIO32). FS External D- pin is Pin 37 (GPIO
  33:libDaisy/src/hid/usb.h ****         FS_BOTH,     /**< Both */
  34:libDaisy/src/hid/usb.h ****     };
  35:libDaisy/src/hid/usb.h **** 
  36:libDaisy/src/hid/usb.h **** 
  37:libDaisy/src/hid/usb.h ****     /** Function called upon reception of a buffer */
  38:libDaisy/src/hid/usb.h ****     typedef void (*ReceiveCallback)(uint8_t* buff, uint32_t* len);
  39:libDaisy/src/hid/usb.h **** 
  40:libDaisy/src/hid/usb.h ****     UsbHandle() {}
  41:libDaisy/src/hid/usb.h **** 
  42:libDaisy/src/hid/usb.h ****     ~UsbHandle() {}
  68              		.loc 4 42 5 is_stmt 1 view .LVU5
  69              		.loc 4 42 5 is_stmt 0 view .LVU6
  70              	.LBE550:
  71              	.LBB551:
  72              	.LBI551:
  73              		.file 5 "libDaisy/src/per/adc.h"
   1:libDaisy/src/per/adc.h **** #pragma once
   2:libDaisy/src/per/adc.h **** #ifndef DSY_ADC_H
   3:libDaisy/src/per/adc.h **** #define DSY_ADC_H /**< Macro */
   4:libDaisy/src/per/adc.h **** #include <stdint.h>
   5:libDaisy/src/per/adc.h **** #include <stdlib.h>
   6:libDaisy/src/per/adc.h **** #include "daisy_core.h"
   7:libDaisy/src/per/adc.h **** #include "per/gpio.h"
   8:libDaisy/src/per/adc.h **** 
   9:libDaisy/src/per/adc.h **** #define DSY_ADC_MAX_CHANNELS 16 /**< Maximum number of ADC channels */
  10:libDaisy/src/per/adc.h **** 
  11:libDaisy/src/per/adc.h **** namespace daisy
  12:libDaisy/src/per/adc.h **** {
  13:libDaisy/src/per/adc.h **** /** @addtogroup per_analog
  14:libDaisy/src/per/adc.h ****     @{
  15:libDaisy/src/per/adc.h **** */
  16:libDaisy/src/per/adc.h **** 
  17:libDaisy/src/per/adc.h **** /* While there may not be many configuration options here,
  18:libDaisy/src/per/adc.h **** using a struct like this allows us to add more configuration
  19:libDaisy/src/per/adc.h **** later without breaking existing functionality.
  20:libDaisy/src/per/adc.h **** */
  21:libDaisy/src/per/adc.h **** 
  22:libDaisy/src/per/adc.h **** /** @brief   Configuration Structure for an ADC Channel 
  23:libDaisy/src/per/adc.h ****  *  @details This can be used to configure a a single input, 
  24:libDaisy/src/per/adc.h ****  *           or a multiplexed input, allowing up to 8 inputs on 
  25:libDaisy/src/per/adc.h ****  *           one channel.
  26:libDaisy/src/per/adc.h ****  *  @note    Sharing data lines to multiple muxes _is_ possible, but
  27:libDaisy/src/per/adc.h ****  *           each channel sharing data lines must be set to the maximum
  28:libDaisy/src/per/adc.h ****  *           number of channels, even if some multiplexers have fewer
  29:libDaisy/src/per/adc.h ****  *           inputs connected.
  30:libDaisy/src/per/adc.h **** */
  31:libDaisy/src/per/adc.h **** struct AdcChannelConfig
ARM GAS  /tmp/ccxnfbgf.s 			page 6


  32:libDaisy/src/per/adc.h **** {
  33:libDaisy/src/per/adc.h ****     /** Which pin to use for multiplexing */
  34:libDaisy/src/per/adc.h ****     enum MuxPin
  35:libDaisy/src/per/adc.h ****     {
  36:libDaisy/src/per/adc.h ****         MUX_SEL_0,    /**< & */
  37:libDaisy/src/per/adc.h ****         MUX_SEL_1,    /**< & */
  38:libDaisy/src/per/adc.h ****         MUX_SEL_2,    /**< & */
  39:libDaisy/src/per/adc.h ****         MUX_SEL_LAST, /**< & */
  40:libDaisy/src/per/adc.h ****     };
  41:libDaisy/src/per/adc.h **** 
  42:libDaisy/src/per/adc.h ****     /** Initializes a single ADC pin as an ADC. 
  43:libDaisy/src/per/adc.h ****     \param pin Pin to init.
  44:libDaisy/src/per/adc.h ****      */
  45:libDaisy/src/per/adc.h ****     void InitSingle(dsy_gpio_pin pin);
  46:libDaisy/src/per/adc.h **** 
  47:libDaisy/src/per/adc.h ****     /** 
  48:libDaisy/src/per/adc.h ****     Initializes a single ADC pin as a Multiplexed ADC.
  49:libDaisy/src/per/adc.h ****     Requires a CD405X Multiplexer connected to the pin.
  50:libDaisy/src/per/adc.h ****     You only need to supply the mux pins that are required,
  51:libDaisy/src/per/adc.h ****     e.g. a 4052 mux would only require mux_0 and mux_1.
  52:libDaisy/src/per/adc.h ****     Internal Callbacks handle the pin addressing.
  53:libDaisy/src/per/adc.h ****     \param mux_channels must be 1-8
  54:libDaisy/src/per/adc.h ****     \param mux_0 First mux pin
  55:libDaisy/src/per/adc.h ****     \param mux_1 Second mux pin
  56:libDaisy/src/per/adc.h ****     \param mux_2 Third mux pin
  57:libDaisy/src/per/adc.h ****     \param adc_pin &
  58:libDaisy/src/per/adc.h ****     */
  59:libDaisy/src/per/adc.h ****     void InitMux(dsy_gpio_pin adc_pin,
  60:libDaisy/src/per/adc.h ****                  size_t       mux_channels,
  61:libDaisy/src/per/adc.h ****                  dsy_gpio_pin mux_0,
  62:libDaisy/src/per/adc.h ****                  dsy_gpio_pin mux_1 = {DSY_GPIOX, 0},
  63:libDaisy/src/per/adc.h ****                  dsy_gpio_pin mux_2 = {DSY_GPIOX, 0});
  64:libDaisy/src/per/adc.h **** 
  65:libDaisy/src/per/adc.h ****     dsy_gpio pin_;                   /**< & */
  66:libDaisy/src/per/adc.h ****     dsy_gpio mux_pin_[MUX_SEL_LAST]; /**< & */
  67:libDaisy/src/per/adc.h ****     uint8_t  mux_channels_;          /**< & */
  68:libDaisy/src/per/adc.h **** };
  69:libDaisy/src/per/adc.h **** 
  70:libDaisy/src/per/adc.h **** /**
  71:libDaisy/src/per/adc.h ****    @brief Handler for analog to digital conversion
  72:libDaisy/src/per/adc.h **** */
  73:libDaisy/src/per/adc.h **** class AdcHandle
  74:libDaisy/src/per/adc.h **** {
  75:libDaisy/src/per/adc.h ****   public:
  76:libDaisy/src/per/adc.h ****     /** Supported oversampling amounts */
  77:libDaisy/src/per/adc.h ****     enum OverSampling
  78:libDaisy/src/per/adc.h ****     {
  79:libDaisy/src/per/adc.h ****         OVS_NONE, /**< & */
  80:libDaisy/src/per/adc.h ****         OVS_4,    /**< & */
  81:libDaisy/src/per/adc.h ****         OVS_8,    /**< & */
  82:libDaisy/src/per/adc.h ****         OVS_16,   /**< & */
  83:libDaisy/src/per/adc.h ****         OVS_32,   /**< & */
  84:libDaisy/src/per/adc.h ****         OVS_64,   /**< & */
  85:libDaisy/src/per/adc.h ****         OVS_128,  /**< & */
  86:libDaisy/src/per/adc.h ****         OVS_256,  /**< & */
  87:libDaisy/src/per/adc.h ****         OVS_512,  /**< & */
  88:libDaisy/src/per/adc.h ****         OVS_1024, /**< & */
ARM GAS  /tmp/ccxnfbgf.s 			page 7


  89:libDaisy/src/per/adc.h ****         OVS_LAST, /**< & */
  90:libDaisy/src/per/adc.h ****     };
  91:libDaisy/src/per/adc.h **** 
  92:libDaisy/src/per/adc.h ****     AdcHandle() {}
  93:libDaisy/src/per/adc.h ****     ~AdcHandle() {}
  74              		.loc 5 93 5 is_stmt 1 view .LVU7
  75              		.loc 5 93 5 is_stmt 0 view .LVU8
  76              	.LBE551:
  77              	.LBB552:
  78              	.LBI552:
  79              		.file 6 "libDaisy/src/hid/audio.h"
   1:libDaisy/src/hid/audio.h **** #ifndef DSY_AUDIO_H
   2:libDaisy/src/hid/audio.h **** #define DSY_AUDIO_H /**< & */
   3:libDaisy/src/hid/audio.h **** 
   4:libDaisy/src/hid/audio.h **** #include "per/sai.h"
   5:libDaisy/src/hid/audio.h **** 
   6:libDaisy/src/hid/audio.h **** namespace daisy
   7:libDaisy/src/hid/audio.h **** {
   8:libDaisy/src/hid/audio.h **** /** @brief Audio Engine Handle
   9:libDaisy/src/hid/audio.h ****  *  @ingroup audio 
  10:libDaisy/src/hid/audio.h ****  *  @details This class allows for higher level access to an audio engine.
  11:libDaisy/src/hid/audio.h ****  *           If you're using a SOM like the DaisySeed or DaisyPatchSM (or any 
  12:libDaisy/src/hid/audio.h ****  *            board that includes one of those objects) then the intialization
  13:libDaisy/src/hid/audio.h ****  *            is already taken  care of.
  14:libDaisy/src/hid/audio.h ****  *           If you're setting up your own custom hardware, or need to make changes
  15:libDaisy/src/hid/audio.h ****  *           you will have to take the following steps:
  16:libDaisy/src/hid/audio.h ****  *             1. Create and Initialize an SaiHandle or two depending on your requirements
  17:libDaisy/src/hid/audio.h ****  *             2. Initialize the Audio Handle with the desired settings and the Initialized SaiHand
  18:libDaisy/src/hid/audio.h ****  *             3. If the connected codec requires special configuration or initialization, do so
  19:libDaisy/src/hid/audio.h ****  *             4. Write a callback method using either the AudioCallback or the InterleavingAudioCa
  20:libDaisy/src/hid/audio.h ****  *             5. Start the Audio using one of the StartAudio function
  21:libDaisy/src/hid/audio.h ****  */
  22:libDaisy/src/hid/audio.h **** class AudioHandle
  23:libDaisy/src/hid/audio.h **** {
  24:libDaisy/src/hid/audio.h ****   public:
  25:libDaisy/src/hid/audio.h ****     /** Manually configurable details about the Audio Engine */
  26:libDaisy/src/hid/audio.h ****     /** TODO: Figure out how to get samplerate in here. */
  27:libDaisy/src/hid/audio.h ****     struct Config
  28:libDaisy/src/hid/audio.h ****     {
  29:libDaisy/src/hid/audio.h ****         /** number of samples to process per callback */
  30:libDaisy/src/hid/audio.h ****         size_t blocksize;
  31:libDaisy/src/hid/audio.h **** 
  32:libDaisy/src/hid/audio.h ****         /**< Sample rate of audio */
  33:libDaisy/src/hid/audio.h ****         SaiHandle::Config::SampleRate samplerate;
  34:libDaisy/src/hid/audio.h **** 
  35:libDaisy/src/hid/audio.h ****         /** factor for adjustment before and after callback for hardware that may have extra headro
  36:libDaisy/src/hid/audio.h ****         float postgain;
  37:libDaisy/src/hid/audio.h **** 
  38:libDaisy/src/hid/audio.h ****         /** factor for additional one-sided compensation to audio path for hardware that may
  39:libDaisy/src/hid/audio.h ****          *  have unequal input/output ranges
  40:libDaisy/src/hid/audio.h ****          */
  41:libDaisy/src/hid/audio.h ****         float output_compensation;
  42:libDaisy/src/hid/audio.h **** 
  43:libDaisy/src/hid/audio.h ****         /** Sets default values for config struct */
  44:libDaisy/src/hid/audio.h ****         Config()
  45:libDaisy/src/hid/audio.h ****         : blocksize(48),
  46:libDaisy/src/hid/audio.h ****           samplerate(SaiHandle::Config::SampleRate::SAI_48KHZ),
ARM GAS  /tmp/ccxnfbgf.s 			page 8


  47:libDaisy/src/hid/audio.h ****           postgain(1.f),
  48:libDaisy/src/hid/audio.h ****           output_compensation(1.f)
  49:libDaisy/src/hid/audio.h ****         {
  50:libDaisy/src/hid/audio.h ****         }
  51:libDaisy/src/hid/audio.h ****     };
  52:libDaisy/src/hid/audio.h **** 
  53:libDaisy/src/hid/audio.h ****     enum class Result
  54:libDaisy/src/hid/audio.h ****     {
  55:libDaisy/src/hid/audio.h ****         OK,
  56:libDaisy/src/hid/audio.h ****         ERR,
  57:libDaisy/src/hid/audio.h ****     };
  58:libDaisy/src/hid/audio.h **** 
  59:libDaisy/src/hid/audio.h ****     /** Non-Interleaving input buffer
  60:libDaisy/src/hid/audio.h ****      * Buffer arranged by float[chn][sample] 
  61:libDaisy/src/hid/audio.h ****      * const so that the user can't modify the input
  62:libDaisy/src/hid/audio.h ****      */
  63:libDaisy/src/hid/audio.h ****     typedef const float* const* InputBuffer;
  64:libDaisy/src/hid/audio.h **** 
  65:libDaisy/src/hid/audio.h ****     /** Non-Interleaving output buffer
  66:libDaisy/src/hid/audio.h ****      * Arranged by float[chn][sample] 
  67:libDaisy/src/hid/audio.h ****      */
  68:libDaisy/src/hid/audio.h ****     typedef float** OutputBuffer;
  69:libDaisy/src/hid/audio.h **** 
  70:libDaisy/src/hid/audio.h ****     /** Type for a Non-Interleaving audio callback 
  71:libDaisy/src/hid/audio.h ****      * Non-Interleaving audio callbacks in daisy will be of this type
  72:libDaisy/src/hid/audio.h ****      */
  73:libDaisy/src/hid/audio.h ****     typedef void (*AudioCallback)(InputBuffer  in,
  74:libDaisy/src/hid/audio.h ****                                   OutputBuffer out,
  75:libDaisy/src/hid/audio.h ****                                   size_t       size);
  76:libDaisy/src/hid/audio.h **** 
  77:libDaisy/src/hid/audio.h ****     /** Interleaving Input buffer
  78:libDaisy/src/hid/audio.h ****      ** audio is prepared as { L0, R0, L1, R1, . . . LN, RN }]
  79:libDaisy/src/hid/audio.h ****      ** this is const, as the user shouldn't modify it
  80:libDaisy/src/hid/audio.h ****     */
  81:libDaisy/src/hid/audio.h ****     typedef const float* InterleavingInputBuffer;
  82:libDaisy/src/hid/audio.h **** 
  83:libDaisy/src/hid/audio.h ****     /** Interleaving Output buffer 
  84:libDaisy/src/hid/audio.h ****      ** audio is prepared as { L0, R0, L1, R1, . . . LN, RN }
  85:libDaisy/src/hid/audio.h ****     */
  86:libDaisy/src/hid/audio.h ****     typedef float* InterleavingOutputBuffer;
  87:libDaisy/src/hid/audio.h **** 
  88:libDaisy/src/hid/audio.h ****     /** Interleaving Audio Callback 
  89:libDaisy/src/hid/audio.h ****      * Interleaving audio callbacks in daisy must be of this type
  90:libDaisy/src/hid/audio.h ****      */
  91:libDaisy/src/hid/audio.h ****     typedef void (*InterleavingAudioCallback)(InterleavingInputBuffer  in,
  92:libDaisy/src/hid/audio.h ****                                               InterleavingOutputBuffer out,
  93:libDaisy/src/hid/audio.h ****                                               size_t                   size);
  94:libDaisy/src/hid/audio.h **** 
  95:libDaisy/src/hid/audio.h ****     AudioHandle() : pimpl_(nullptr) {}
  96:libDaisy/src/hid/audio.h ****     ~AudioHandle() {}
  80              		.loc 6 96 5 is_stmt 1 view .LVU9
  81              		.loc 6 96 5 is_stmt 0 view .LVU10
  82              	.LBE552:
  83              		.loc 2 22 19 view .LVU11
  84 0000 7047     		bx	lr
  85              		.cfi_endproc
  86              	.LFE4784:
ARM GAS  /tmp/ccxnfbgf.s 			page 9


  88              		.weak	_ZN5daisy9DaisySeedD1Ev
  89              		.thumb_set _ZN5daisy9DaisySeedD1Ev,_ZN5daisy9DaisySeedD2Ev
  90 0002 00BF     		.section	.text.__tcf_0,"ax",%progbits
  91              		.align	1
  92              		.p2align 2,,3
  93              		.syntax unified
  94              		.thumb
  95              		.thumb_func
  97              	__tcf_0:
  98              	.LFB5422:
  99              		.file 7 "fjol.cpp"
   1:fjol.cpp      **** #include "daisysp.h"
   2:fjol.cpp      **** #include "daisy_seed.h"
   3:fjol.cpp      **** #include "settings.h"
   4:fjol.cpp      **** #include "variables.h"
   5:fjol.cpp      **** using namespace daisysp;
   6:fjol.cpp      **** using namespace daisy;
   7:fjol.cpp      **** 
   8:fjol.cpp      **** static DaisySeed  hw;
   9:fjol.cpp      **** I2CHandle i2c;
  10:fjol.cpp      **** //struct for saving and loading data between restarts
  11:fjol.cpp      **** struct data
  12:fjol.cpp      ****   {
  13:fjol.cpp      ****     float d_param[8] = {0,0,0,0,0,0,0,0};
  14:fjol.cpp      ****     //ctl1dest,ctl1cvdest,ctl2dest,ctl2cvdest,algorithm,midi_channel
  15:fjol.cpp      ****     uint8_t d_states[6] = {0,0,4,4,0,1}; //
  16:fjol.cpp      ****   };
  17:fjol.cpp      **** PersistentStorage<data> storage(hw.qspi);
  18:fjol.cpp      **** 
  19:fjol.cpp      **** static constexpr I2CHandle::Config i2c_config
  20:fjol.cpp      ****     = {I2CHandle::Config::Peripheral::I2C_1,
  21:fjol.cpp      ****        {{DSY_GPIOB, 8}, {DSY_GPIOB, 9}},
  22:fjol.cpp      ****        I2CHandle::Config::Speed::I2C_1MHZ};
  23:fjol.cpp      **** 
  24:fjol.cpp      **** MidiUartHandler midi; //initialize midi object
  25:fjol.cpp      **** //ADC configuration object
  26:fjol.cpp      **** AdcChannelConfig adcConfig;
  27:fjol.cpp      **** 
  28:fjol.cpp      **** struct envStruc //amplitude envelope
  29:fjol.cpp      **** {
  30:fjol.cpp      ****   Adsr env;
  31:fjol.cpp      ****   float attack;
  32:fjol.cpp      ****   float release;
  33:fjol.cpp      ****   float envSig;
  34:fjol.cpp      ****   bool gate;
  35:fjol.cpp      **** };
  36:fjol.cpp      **** 
  37:fjol.cpp      **** struct ADStruc //for filter envelope
  38:fjol.cpp      **** {
  39:fjol.cpp      ****   AdEnv env;
  40:fjol.cpp      ****   float attack;
  41:fjol.cpp      ****   float release;
  42:fjol.cpp      ****   float envSig;
  43:fjol.cpp      **** };
  44:fjol.cpp      **** 
  45:fjol.cpp      **** struct op
  46:fjol.cpp      **** {
ARM GAS  /tmp/ccxnfbgf.s 			page 10


  47:fjol.cpp      ****   Oscillator op1;
  48:fjol.cpp      ****   Oscillator op2;
  49:fjol.cpp      ****   Oscillator op3;
  50:fjol.cpp      ****   
  51:fjol.cpp      ****   //pan of voice
  52:fjol.cpp      ****   float panL = 0; 
  53:fjol.cpp      ****   float panR = 0;
  54:fjol.cpp      ****   //operator routing
  55:fjol.cpp      ****   bool op32; //op3 to op2
  56:fjol.cpp      ****   bool op31; //op3 to op1
  57:fjol.cpp      ****   bool op21; //op2 to op1 
  58:fjol.cpp      ****   bool op2out; //op2 to audio output
  59:fjol.cpp      ****   //amplitude of operators
  60:fjol.cpp      ****   float op1amp = 0.75;
  61:fjol.cpp      ****   float op2amp;
  62:fjol.cpp      ****   float op3amp;
  63:fjol.cpp      ****   //ratio of operators
  64:fjol.cpp      ****   float ratio2;
  65:fjol.cpp      ****   float ratio3;
  66:fjol.cpp      ****   //detune of operator2 and 3
  67:fjol.cpp      ****   float op2_detune;
  68:fjol.cpp      ****   float op3_detune;
  69:fjol.cpp      **** };
  70:fjol.cpp      **** 
  71:fjol.cpp      **** struct filter_
  72:fjol.cpp      **** {
  73:fjol.cpp      ****   Svf filter;
  74:fjol.cpp      ****   float freq;
  75:fjol.cpp      ****   float res;
  76:fjol.cpp      ****   float drive = 0;
  77:fjol.cpp      **** };
  78:fjol.cpp      **** 
  79:fjol.cpp      **** struct gate_i
  80:fjol.cpp      **** {
  81:fjol.cpp      ****   GateIn gate;
  82:fjol.cpp      **** };
  83:fjol.cpp      **** 
  84:fjol.cpp      **** struct knob
  85:fjol.cpp      **** {
  86:fjol.cpp      ****   AnalogControl input;
  87:fjol.cpp      ****   Parameter param;
  88:fjol.cpp      ****   float value;
  89:fjol.cpp      **** };
  90:fjol.cpp      **** 
  91:fjol.cpp      **** struct rotary
  92:fjol.cpp      **** {
  93:fjol.cpp      ****     Encoder enc;
  94:fjol.cpp      ****     uint8_t ctldest = 0;
  95:fjol.cpp      ****     uint8_t ctlcvdest = 0;
  96:fjol.cpp      **** };
  97:fjol.cpp      **** 
  98:fjol.cpp      **** op voice[voicecount]; 
 100              		.loc 7 98 4 is_stmt 1 view -0
 101              		.cfi_startproc
 102              		@ args = 0, pretend = 0, frame = 0
 103              		@ frame_needed = 0, uses_anonymous_args = 0
 104              		@ link register save eliminated.
ARM GAS  /tmp/ccxnfbgf.s 			page 11


 105              		.loc 7 98 4 is_stmt 0 view .LVU13
 106 0000 7047     		bx	lr
 107              		.cfi_endproc
 108              	.LFE5422:
 110 0002 00BF     		.section	.text._ZN7ADStrucD2Ev,"axG",%progbits,_ZN7ADStrucD5Ev,comdat
 111              		.align	1
 112              		.p2align 2,,3
 113              		.weak	_ZN7ADStrucD2Ev
 114              		.syntax unified
 115              		.thumb
 116              		.thumb_func
 118              	_ZN7ADStrucD2Ev:
 119              	.LVL2:
 120              	.LFB5428:
  37:fjol.cpp      **** {
 121              		.loc 7 37 8 is_stmt 1 view -0
 122              		.cfi_startproc
 123              		@ args = 0, pretend = 0, frame = 0
 124              		@ frame_needed = 0, uses_anonymous_args = 0
 125              		@ link register save eliminated.
 126              	.LBB553:
 127              	.LBI553:
 128              		.file 8 "DaisySP/Source/Control/adenv.h"
   1:DaisySP/Source/Control/adenv.h **** #pragma once
   2:DaisySP/Source/Control/adenv.h **** #ifndef ADENV_H
   3:DaisySP/Source/Control/adenv.h **** #define ADENV_H
   4:DaisySP/Source/Control/adenv.h **** #include <stdint.h>
   5:DaisySP/Source/Control/adenv.h **** #ifdef __cplusplus
   6:DaisySP/Source/Control/adenv.h **** 
   7:DaisySP/Source/Control/adenv.h **** namespace daisysp
   8:DaisySP/Source/Control/adenv.h **** {
   9:DaisySP/Source/Control/adenv.h **** /** Distinct stages that the phase of the envelope can be located in.
  10:DaisySP/Source/Control/adenv.h ****     @see AdEnv
  11:DaisySP/Source/Control/adenv.h **** */
  12:DaisySP/Source/Control/adenv.h **** enum AdEnvSegment
  13:DaisySP/Source/Control/adenv.h **** {
  14:DaisySP/Source/Control/adenv.h ****     /** located at phase location 0, and not currently running */
  15:DaisySP/Source/Control/adenv.h ****     ADENV_SEG_IDLE,
  16:DaisySP/Source/Control/adenv.h ****     /** First segment of envelope where phase moves from MIN value to MAX value */
  17:DaisySP/Source/Control/adenv.h ****     ADENV_SEG_ATTACK,
  18:DaisySP/Source/Control/adenv.h ****     /** Second segment of envelope where phase moves from MAX to MIN value */
  19:DaisySP/Source/Control/adenv.h ****     ADENV_SEG_DECAY,
  20:DaisySP/Source/Control/adenv.h ****     /** The final segment of the envelope (currently decay) */
  21:DaisySP/Source/Control/adenv.h ****     ADENV_SEG_LAST,
  22:DaisySP/Source/Control/adenv.h **** };
  23:DaisySP/Source/Control/adenv.h **** 
  24:DaisySP/Source/Control/adenv.h **** /** Trigger-able envelope with adjustable min/max, and independent per-segment time control.
  25:DaisySP/Source/Control/adenv.h **** 
  26:DaisySP/Source/Control/adenv.h ****     \author shensley
  27:DaisySP/Source/Control/adenv.h ****     \todo - Add Cycling
  28:DaisySP/Source/Control/adenv.h ****     \todo - Implement Curve (its only linear for now).
  29:DaisySP/Source/Control/adenv.h ****     \todo - Maybe make this an ADsr_ that has AD/AR/Asr_ modes.
  30:DaisySP/Source/Control/adenv.h ****  */
  31:DaisySP/Source/Control/adenv.h **** class AdEnv
  32:DaisySP/Source/Control/adenv.h **** {
  33:DaisySP/Source/Control/adenv.h ****   public:
  34:DaisySP/Source/Control/adenv.h ****     AdEnv() {}
ARM GAS  /tmp/ccxnfbgf.s 			page 12


  35:DaisySP/Source/Control/adenv.h ****     ~AdEnv() {}
 129              		.loc 8 35 5 view .LVU15
 130              		.loc 8 35 5 is_stmt 0 view .LVU16
 131              	.LBE553:
  37:fjol.cpp      **** {
 132              		.loc 7 37 8 view .LVU17
 133 0000 7047     		bx	lr
 134              		.cfi_endproc
 135              	.LFE5428:
 137              		.weak	_ZN7ADStrucD1Ev
 138              		.thumb_set _ZN7ADStrucD1Ev,_ZN7ADStrucD2Ev
 139 0002 00BF     		.section	.text._ZN5daisy11MidiHandlerINS_17MidiUartTransportEED2Ev,"axG",%progbits,_ZN5daisy11Midi
 140              		.align	1
 141              		.p2align 2,,3
 142              		.weak	_ZN5daisy11MidiHandlerINS_17MidiUartTransportEED2Ev
 143              		.syntax unified
 144              		.thumb
 145              		.thumb_func
 147              	_ZN5daisy11MidiHandlerINS_17MidiUartTransportEED2Ev:
 148              	.LVL3:
 149              	.LFB5449:
 150              		.file 9 "libDaisy/src/hid/midi.h"
   1:libDaisy/src/hid/midi.h **** #pragma once
   2:libDaisy/src/hid/midi.h **** #ifndef DSY_MIDI_H
   3:libDaisy/src/hid/midi.h **** #define DSY_MIDI_H
   4:libDaisy/src/hid/midi.h **** 
   5:libDaisy/src/hid/midi.h **** // TODO: make this adjustable
   6:libDaisy/src/hid/midi.h **** #define SYSEX_BUFFER_LEN 128
   7:libDaisy/src/hid/midi.h **** 
   8:libDaisy/src/hid/midi.h **** #include <stdint.h>
   9:libDaisy/src/hid/midi.h **** #include <stdlib.h>
  10:libDaisy/src/hid/midi.h **** #include "per/uart.h"
  11:libDaisy/src/hid/midi.h **** #include "util/ringbuffer.h"
  12:libDaisy/src/hid/midi.h **** #include "hid/MidiEvent.h"
  13:libDaisy/src/hid/midi.h **** #include "hid/usb_midi.h"
  14:libDaisy/src/hid/midi.h **** #include "sys/system.h"
  15:libDaisy/src/hid/midi.h **** 
  16:libDaisy/src/hid/midi.h **** namespace daisy
  17:libDaisy/src/hid/midi.h **** {
  18:libDaisy/src/hid/midi.h **** /** @brief   Transport layer for sending and receiving MIDI data over UART 
  19:libDaisy/src/hid/midi.h ****  *  @details This is the mode of communication used for TRS and DIN MIDI
  20:libDaisy/src/hid/midi.h ****  *  @ingroup midi
  21:libDaisy/src/hid/midi.h **** */
  22:libDaisy/src/hid/midi.h **** class MidiUartTransport
  23:libDaisy/src/hid/midi.h **** {
  24:libDaisy/src/hid/midi.h ****   public:
  25:libDaisy/src/hid/midi.h ****     MidiUartTransport() {}
  26:libDaisy/src/hid/midi.h ****     ~MidiUartTransport() {}
  27:libDaisy/src/hid/midi.h **** 
  28:libDaisy/src/hid/midi.h ****     struct Config
  29:libDaisy/src/hid/midi.h ****     {
  30:libDaisy/src/hid/midi.h ****         UartHandler::Config::Peripheral periph;
  31:libDaisy/src/hid/midi.h ****         dsy_gpio_pin                    rx;
  32:libDaisy/src/hid/midi.h ****         dsy_gpio_pin                    tx;
  33:libDaisy/src/hid/midi.h **** 
  34:libDaisy/src/hid/midi.h ****         Config()
  35:libDaisy/src/hid/midi.h ****         {
ARM GAS  /tmp/ccxnfbgf.s 			page 13


  36:libDaisy/src/hid/midi.h ****             periph = UartHandler::Config::Peripheral::USART_1;
  37:libDaisy/src/hid/midi.h ****             rx     = {DSY_GPIOB, 7};
  38:libDaisy/src/hid/midi.h ****             tx     = {DSY_GPIOB, 6};
  39:libDaisy/src/hid/midi.h ****         }
  40:libDaisy/src/hid/midi.h ****     };
  41:libDaisy/src/hid/midi.h **** 
  42:libDaisy/src/hid/midi.h ****     inline void Init(Config config)
  43:libDaisy/src/hid/midi.h ****     {
  44:libDaisy/src/hid/midi.h ****         UartHandler::Config uart_config;
  45:libDaisy/src/hid/midi.h **** 
  46:libDaisy/src/hid/midi.h ****         //defaults
  47:libDaisy/src/hid/midi.h ****         uart_config.baudrate   = 31250;
  48:libDaisy/src/hid/midi.h ****         uart_config.stopbits   = UartHandler::Config::StopBits::BITS_1;
  49:libDaisy/src/hid/midi.h ****         uart_config.parity     = UartHandler::Config::Parity::NONE;
  50:libDaisy/src/hid/midi.h ****         uart_config.mode       = UartHandler::Config::Mode::TX_RX;
  51:libDaisy/src/hid/midi.h ****         uart_config.wordlength = UartHandler::Config::WordLength::BITS_8;
  52:libDaisy/src/hid/midi.h **** 
  53:libDaisy/src/hid/midi.h ****         //user settings
  54:libDaisy/src/hid/midi.h ****         uart_config.periph        = config.periph;
  55:libDaisy/src/hid/midi.h ****         uart_config.pin_config.rx = config.rx;
  56:libDaisy/src/hid/midi.h ****         uart_config.pin_config.tx = config.tx;
  57:libDaisy/src/hid/midi.h **** 
  58:libDaisy/src/hid/midi.h ****         uart_.Init(uart_config);
  59:libDaisy/src/hid/midi.h ****     }
  60:libDaisy/src/hid/midi.h **** 
  61:libDaisy/src/hid/midi.h ****     inline void    StartRx() { uart_.StartRx(); }
  62:libDaisy/src/hid/midi.h ****     inline size_t  Readable() { return uart_.Readable(); }
  63:libDaisy/src/hid/midi.h ****     inline uint8_t Rx() { return uart_.PopRx(); }
  64:libDaisy/src/hid/midi.h ****     inline bool    RxActive() { return uart_.RxActive(); }
  65:libDaisy/src/hid/midi.h ****     inline void    FlushRx() { uart_.FlushRx(); }
  66:libDaisy/src/hid/midi.h ****     inline void    Tx(uint8_t* buff, size_t size) { uart_.PollTx(buff, size); }
  67:libDaisy/src/hid/midi.h **** 
  68:libDaisy/src/hid/midi.h ****   private:
  69:libDaisy/src/hid/midi.h ****     UartHandler uart_;
  70:libDaisy/src/hid/midi.h **** };
  71:libDaisy/src/hid/midi.h **** 
  72:libDaisy/src/hid/midi.h **** /** 
  73:libDaisy/src/hid/midi.h ****     @brief Simple MIDI Handler \n 
  74:libDaisy/src/hid/midi.h ****     Parses bytes from an input into valid MidiEvents. \n 
  75:libDaisy/src/hid/midi.h ****     The MidiEvents fill a FIFO queue that the user can pop messages from.
  76:libDaisy/src/hid/midi.h ****     @author shensley
  77:libDaisy/src/hid/midi.h ****     @date March 2020
  78:libDaisy/src/hid/midi.h ****     @ingroup midi
  79:libDaisy/src/hid/midi.h **** */
  80:libDaisy/src/hid/midi.h **** template <typename Transport>
  81:libDaisy/src/hid/midi.h **** class MidiHandler
  82:libDaisy/src/hid/midi.h **** {
  83:libDaisy/src/hid/midi.h ****   public:
  84:libDaisy/src/hid/midi.h ****     MidiHandler() {}
  85:libDaisy/src/hid/midi.h ****     ~MidiHandler() {}
 151              		.loc 9 85 5 is_stmt 1 view -0
 152              		.cfi_startproc
 153              		@ args = 0, pretend = 0, frame = 0
 154              		@ frame_needed = 0, uses_anonymous_args = 0
 155              		@ link register save eliminated.
 156              	.LBB554:
 157              	.LBI554:
ARM GAS  /tmp/ccxnfbgf.s 			page 14


  26:libDaisy/src/hid/midi.h **** 
 158              		.loc 9 26 5 view .LVU19
  26:libDaisy/src/hid/midi.h **** 
 159              		.loc 9 26 5 is_stmt 0 view .LVU20
 160              	.LBE554:
 161              		.loc 9 85 21 view .LVU21
 162 0000 7047     		bx	lr
 163              		.cfi_endproc
 164              	.LFE5449:
 166              		.weak	_ZN5daisy11MidiHandlerINS_17MidiUartTransportEED1Ev
 167              		.thumb_set _ZN5daisy11MidiHandlerINS_17MidiUartTransportEED1Ev,_ZN5daisy11MidiHandlerINS_17MidiUar
 168 0002 00BF     		.section	.text._ZL13AudioCallbackPKfPfj,"ax",%progbits
 169              		.align	1
 170              		.p2align 2,,3
 171              		.syntax unified
 172              		.thumb
 173              		.thumb_func
 175              	_ZL13AudioCallbackPKfPfj:
 176              	.LVL4:
 177              	.LFB4810:
  99:fjol.cpp      **** envStruc envelope[voicecount];
 100:fjol.cpp      **** ADStruc filtenvelope; //stereo
 101:fjol.cpp      **** filter_ stfilter[2]; //stereo
 102:fjol.cpp      **** 
 103:fjol.cpp      **** Switch shift_sw;
 104:fjol.cpp      **** Switch algo_sw;
 105:fjol.cpp      **** Switch midi_sw;
 106:fjol.cpp      **** gate_i gate[4];
 107:fjol.cpp      **** knob voct[4];
 108:fjol.cpp      **** knob controls[8]; //8 knobs
 109:fjol.cpp      **** knob cv[2]; //2 cv ins for ctl1 and ctl2
 110:fjol.cpp      **** rotary enc[2];
 111:fjol.cpp      **** 
 112:fjol.cpp      **** //debug variables
 113:fjol.cpp      **** bool debug_pots = 1;
 114:fjol.cpp      **** bool debug_midi = 0;
 115:fjol.cpp      **** 
 116:fjol.cpp      **** 
 117:fjol.cpp      **** static void AudioCallback(AudioHandle::InterleavingInputBuffer  in,
 118:fjol.cpp      ****                           AudioHandle::InterleavingOutputBuffer out,
 119:fjol.cpp      ****                           size_t                                size)
 120:fjol.cpp      **** {
 178              		.loc 7 120 1 is_stmt 1 view -0
 179              		.cfi_startproc
 180              		@ args = 0, pretend = 0, frame = 0
 181              		@ frame_needed = 0, uses_anonymous_args = 0
 121:fjol.cpp      ****     for(int i = 0; i < voicecount;i++)
 182              		.loc 7 121 5 view .LVU23
 183              	.LBB555:
 184              		.loc 7 121 22 view .LVU24
 185              	.LBE555:
 120:fjol.cpp      ****     for(int i = 0; i < voicecount;i++)
 186              		.loc 7 120 1 is_stmt 0 view .LVU25
 187 0000 2DE9F047 		push	{r4, r5, r6, r7, r8, r9, r10, lr}
 188              		.cfi_def_cfa_offset 32
 189              		.cfi_offset 4, -32
 190              		.cfi_offset 5, -28
ARM GAS  /tmp/ccxnfbgf.s 			page 15


 191              		.cfi_offset 6, -24
 192              		.cfi_offset 7, -20
 193              		.cfi_offset 8, -16
 194              		.cfi_offset 9, -12
 195              		.cfi_offset 10, -8
 196              		.cfi_offset 14, -4
 197 0004 DFF8CCA1 		ldr	r10, .L13+44
 198 0008 9146     		mov	r9, r2
 199 000a 694C     		ldr	r4, .L13+8
 200 000c 0AF11008 		add	r8, r10, #16
 201 0010 684F     		ldr	r7, .L13+12
 202 0012 2546     		mov	r5, r4
 203 0014 684E     		ldr	r6, .L13+16
 204 0016 2DED048B 		vpush.64	{d8, d9}
 205              		.cfi_def_cfa_offset 48
 206              		.cfi_offset 80, -48
 207              		.cfi_offset 81, -44
 208              		.cfi_offset 82, -40
 209              		.cfi_offset 83, -36
 210              	.LVL5:
 211              	.L8:
 212              	.LBB574:
 122:fjol.cpp      ****     {
 123:fjol.cpp      ****       voice[i].op1.SetFreq(voicefreq[i]);
 213              		.loc 7 123 7 is_stmt 1 discriminator 2 view .LVU26
 214              		.loc 7 123 27 is_stmt 0 discriminator 2 view .LVU27
 215 001a 9AED000A 		vldr.32	s0, [r10]
 216              	.LVL6:
 217              	.LBB556:
 218              	.LBI556:
 219              		.file 10 "DaisySP/Source/Synthesis/oscillator.h"
   1:DaisySP/Source/Synthesis/oscillator.h **** #pragma once
   2:DaisySP/Source/Synthesis/oscillator.h **** #ifndef DSY_OSCILLATOR_H
   3:DaisySP/Source/Synthesis/oscillator.h **** #define DSY_OSCILLATOR_H
   4:DaisySP/Source/Synthesis/oscillator.h **** #include <stdint.h>
   5:DaisySP/Source/Synthesis/oscillator.h **** #include "Utility/dsp.h"
   6:DaisySP/Source/Synthesis/oscillator.h **** #ifdef __cplusplus
   7:DaisySP/Source/Synthesis/oscillator.h **** 
   8:DaisySP/Source/Synthesis/oscillator.h **** namespace daisysp
   9:DaisySP/Source/Synthesis/oscillator.h **** {
  10:DaisySP/Source/Synthesis/oscillator.h **** /** Synthesis of several waveforms, including polyBLEP bandlimited waveforms.
  11:DaisySP/Source/Synthesis/oscillator.h **** */
  12:DaisySP/Source/Synthesis/oscillator.h **** class Oscillator
  13:DaisySP/Source/Synthesis/oscillator.h **** {
  14:DaisySP/Source/Synthesis/oscillator.h ****   public:
  15:DaisySP/Source/Synthesis/oscillator.h ****     Oscillator() {}
  16:DaisySP/Source/Synthesis/oscillator.h ****     ~Oscillator() {}
  17:DaisySP/Source/Synthesis/oscillator.h ****     /** Choices for output waveforms, POLYBLEP are appropriately labeled. Others are naive forms.
  18:DaisySP/Source/Synthesis/oscillator.h ****     */
  19:DaisySP/Source/Synthesis/oscillator.h ****     enum
  20:DaisySP/Source/Synthesis/oscillator.h ****     {
  21:DaisySP/Source/Synthesis/oscillator.h ****         WAVE_SIN,
  22:DaisySP/Source/Synthesis/oscillator.h ****         WAVE_TRI,
  23:DaisySP/Source/Synthesis/oscillator.h ****         WAVE_SAW,
  24:DaisySP/Source/Synthesis/oscillator.h ****         WAVE_RAMP,
  25:DaisySP/Source/Synthesis/oscillator.h ****         WAVE_SQUARE,
  26:DaisySP/Source/Synthesis/oscillator.h ****         WAVE_POLYBLEP_TRI,
ARM GAS  /tmp/ccxnfbgf.s 			page 16


  27:DaisySP/Source/Synthesis/oscillator.h ****         WAVE_POLYBLEP_SAW,
  28:DaisySP/Source/Synthesis/oscillator.h ****         WAVE_POLYBLEP_SQUARE,
  29:DaisySP/Source/Synthesis/oscillator.h ****         WAVE_LAST,
  30:DaisySP/Source/Synthesis/oscillator.h ****     };
  31:DaisySP/Source/Synthesis/oscillator.h **** 
  32:DaisySP/Source/Synthesis/oscillator.h **** 
  33:DaisySP/Source/Synthesis/oscillator.h ****     /** Initializes the Oscillator
  34:DaisySP/Source/Synthesis/oscillator.h **** 
  35:DaisySP/Source/Synthesis/oscillator.h ****         \param sample_rate - sample rate of the audio engine being run, and the frequency that the 
  36:DaisySP/Source/Synthesis/oscillator.h **** 
  37:DaisySP/Source/Synthesis/oscillator.h ****         Defaults:
  38:DaisySP/Source/Synthesis/oscillator.h ****         - freq_ = 100 Hz
  39:DaisySP/Source/Synthesis/oscillator.h ****         - amp_ = 0.5
  40:DaisySP/Source/Synthesis/oscillator.h ****         - waveform_ = sine wave.
  41:DaisySP/Source/Synthesis/oscillator.h ****     */
  42:DaisySP/Source/Synthesis/oscillator.h ****     void Init(float sample_rate)
  43:DaisySP/Source/Synthesis/oscillator.h ****     {
  44:DaisySP/Source/Synthesis/oscillator.h ****         sr_        = sample_rate;
  45:DaisySP/Source/Synthesis/oscillator.h ****         sr_recip_  = 1.0f / sample_rate;
  46:DaisySP/Source/Synthesis/oscillator.h ****         freq_      = 100.0f;
  47:DaisySP/Source/Synthesis/oscillator.h ****         amp_       = 0.5f;
  48:DaisySP/Source/Synthesis/oscillator.h ****         pw_        = 0.5f;
  49:DaisySP/Source/Synthesis/oscillator.h ****         pw_rad_    = pw_ * TWOPI_F;
  50:DaisySP/Source/Synthesis/oscillator.h ****         phase_     = 0.0f;
  51:DaisySP/Source/Synthesis/oscillator.h ****         phase_inc_ = CalcPhaseInc(freq_);
  52:DaisySP/Source/Synthesis/oscillator.h ****         waveform_  = WAVE_SIN;
  53:DaisySP/Source/Synthesis/oscillator.h ****         eoc_       = true;
  54:DaisySP/Source/Synthesis/oscillator.h ****         eor_       = true;
  55:DaisySP/Source/Synthesis/oscillator.h ****     }
  56:DaisySP/Source/Synthesis/oscillator.h **** 
  57:DaisySP/Source/Synthesis/oscillator.h **** 
  58:DaisySP/Source/Synthesis/oscillator.h ****     /** Changes the frequency of the Oscillator, and recalculates phase increment.
  59:DaisySP/Source/Synthesis/oscillator.h ****     */
  60:DaisySP/Source/Synthesis/oscillator.h ****     inline void SetFreq(const float f)
 220              		.loc 10 60 17 is_stmt 1 discriminator 2 view .LVU28
 221              	.LBB557:
  61:DaisySP/Source/Synthesis/oscillator.h ****     {
  62:DaisySP/Source/Synthesis/oscillator.h ****         freq_      = f;
 222              		.loc 10 62 9 discriminator 2 view .LVU29
  63:DaisySP/Source/Synthesis/oscillator.h ****         phase_inc_ = CalcPhaseInc(f);
 223              		.loc 10 63 34 is_stmt 0 discriminator 2 view .LVU30
 224 001e 2846     		mov	r0, r5
 225              	.LBE557:
 226              	.LBE556:
 124:fjol.cpp      ****       voice[i].op2.SetFreq(voicefreq[i]*ratioindex[(int)knob_value[1]]*(1+voice[i].op2_detune*0.2))
 227              		.loc 7 124 74 discriminator 2 view .LVU31
 228 0020 B7EE008B 		vmov.f64	d8, #1.0e+0
 229              	.LBB560:
 230              	.LBB558:
  62:DaisySP/Source/Synthesis/oscillator.h ****         phase_inc_ = CalcPhaseInc(f);
 231              		.loc 10 62 20 discriminator 2 view .LVU32
 232 0024 85ED020A 		vstr.32	s0, [r5, #8]
 233              		.loc 10 63 9 is_stmt 1 discriminator 2 view .LVU33
 234              		.loc 10 63 34 is_stmt 0 discriminator 2 view .LVU34
 235 0028 FFF7FEFF 		bl	_ZN7daisysp10Oscillator12CalcPhaseIncEf
 236              	.LVL7:
 237              		.loc 10 63 34 discriminator 2 view .LVU35
ARM GAS  /tmp/ccxnfbgf.s 			page 17


 238              	.LBE558:
 239              	.LBE560:
 240              		.loc 7 124 52 discriminator 2 view .LVU36
 241 002c D6ED017A 		vldr.32	s15, [r6, #4]
 242              		.loc 7 124 84 discriminator 2 view .LVU37
 243 0030 95ED2C6A 		vldr.32	s12, [r5, #176]
 244              	.LBB561:
 245              	.LBB562:
 246              		.loc 10 63 34 discriminator 2 view .LVU38
 247 0034 05F13000 		add	r0, r5, #48
 248              	.LBE562:
 249              	.LBE561:
 250              		.loc 7 124 52 discriminator 2 view .LVU39
 251 0038 FDEEE77A 		vcvt.s32.f32	s15, s15
 252              		.loc 7 124 40 discriminator 2 view .LVU40
 253 003c FAEC015A 		vldmia.32	r10!, {s11}
 254              		.loc 7 124 84 discriminator 2 view .LVU41
 255 0040 B7EEC66A 		vcvt.f64.f32	d6, s12
 256              	.LBB565:
 257              	.LBB559:
 258              		.loc 10 63 20 discriminator 2 view .LVU42
 259 0044 85ED080A 		vstr.32	s0, [r5, #32]
 260              	.LVL8:
 261              		.loc 10 63 20 discriminator 2 view .LVU43
 262              	.LBE559:
 263              	.LBE565:
 264              		.loc 7 124 7 is_stmt 1 discriminator 2 view .LVU44
 265              		.loc 7 124 74 is_stmt 0 discriminator 2 view .LVU45
 266 0048 9FED579B 		vldr.64	d9, .L13
 267              		.loc 7 124 52 discriminator 2 view .LVU46
 268 004c 17EE903A 		vmov	r3, s15	@ int
 269              		.loc 7 124 74 discriminator 2 view .LVU47
 270 0050 B0EE487B 		vmov.f64	d7, d8
 271              		.loc 7 124 70 discriminator 2 view .LVU48
 272 0054 07EB8303 		add	r3, r7, r3, lsl #2
 273              		.loc 7 124 74 discriminator 2 view .LVU49
 274 0058 A6EE097B 		vfma.f64	d7, d6, d9
 275              		.loc 7 124 40 discriminator 2 view .LVU50
 276 005c 93ED000A 		vldr.32	s0, [r3]
 277 0060 20EE250A 		vmul.f32	s0, s0, s11
 278 0064 B7EEC00A 		vcvt.f64.f32	d0, s0
 279              		.loc 7 124 71 discriminator 2 view .LVU51
 280 0068 20EE070B 		vmul.f64	d0, d0, d7
 281              		.loc 7 124 27 discriminator 2 view .LVU52
 282 006c B7EEC00B 		vcvt.f32.f64	s0, d0
 283              	.LVL9:
 284              	.LBB566:
 285              	.LBI561:
  60:DaisySP/Source/Synthesis/oscillator.h ****     {
 286              		.loc 10 60 17 is_stmt 1 discriminator 2 view .LVU53
 287              	.LBB563:
  62:DaisySP/Source/Synthesis/oscillator.h ****         phase_inc_ = CalcPhaseInc(f);
 288              		.loc 10 62 9 discriminator 2 view .LVU54
  62:DaisySP/Source/Synthesis/oscillator.h ****         phase_inc_ = CalcPhaseInc(f);
 289              		.loc 10 62 20 is_stmt 0 discriminator 2 view .LVU55
 290 0070 85ED0E0A 		vstr.32	s0, [r5, #56]
 291              		.loc 10 63 9 is_stmt 1 discriminator 2 view .LVU56
ARM GAS  /tmp/ccxnfbgf.s 			page 18


 292              		.loc 10 63 34 is_stmt 0 discriminator 2 view .LVU57
 293 0074 FFF7FEFF 		bl	_ZN7daisysp10Oscillator12CalcPhaseIncEf
 294              	.LVL10:
 295              		.loc 10 63 34 discriminator 2 view .LVU58
 296              	.LBE563:
 297              	.LBE566:
 125:fjol.cpp      ****       voice[i].op3.SetFreq(voicefreq[i]*ratioindex[(int)knob_value[3]]*(1+voice[i].op3_detune*0.2))
 298              		.loc 7 125 52 discriminator 2 view .LVU59
 299 0078 D6ED037A 		vldr.32	s15, [r6, #12]
 300              		.loc 7 125 84 discriminator 2 view .LVU60
 301 007c 95ED2D6A 		vldr.32	s12, [r5, #180]
 302              	.LBB567:
 303              	.LBB568:
 304              		.loc 10 63 34 discriminator 2 view .LVU61
 305 0080 05F16000 		add	r0, r5, #96
 306              	.LBE568:
 307              	.LBE567:
 308              		.loc 7 125 52 discriminator 2 view .LVU62
 309 0084 FDEEE77A 		vcvt.s32.f32	s15, s15
 310              	.LBB571:
 311              	.LBB564:
 312              		.loc 10 63 20 discriminator 2 view .LVU63
 313 0088 85ED140A 		vstr.32	s0, [r5, #80]
 314              	.LVL11:
 315              		.loc 10 63 20 discriminator 2 view .LVU64
 316              	.LBE564:
 317              	.LBE571:
 318              		.loc 7 125 7 is_stmt 1 discriminator 2 view .LVU65
 319              		.loc 7 125 84 is_stmt 0 discriminator 2 view .LVU66
 320 008c B7EEC66A 		vcvt.f64.f32	d6, s12
 321              		.loc 7 125 40 discriminator 2 view .LVU67
 322 0090 1AED017A 		vldr.32	s14, [r10, #-4]
 121:fjol.cpp      ****     {
 323              		.loc 7 121 22 discriminator 2 view .LVU68
 324 0094 B835     		adds	r5, r5, #184
 325              		.loc 7 125 52 discriminator 2 view .LVU69
 326 0096 17EE903A 		vmov	r3, s15	@ int
 327              		.loc 7 125 74 discriminator 2 view .LVU70
 328 009a A6EE098B 		vfma.f64	d8, d6, d9
 329              		.loc 7 125 70 discriminator 2 view .LVU71
 330 009e 07EB8303 		add	r3, r7, r3, lsl #2
 331              		.loc 7 125 40 discriminator 2 view .LVU72
 332 00a2 93ED000A 		vldr.32	s0, [r3]
 333 00a6 20EE070A 		vmul.f32	s0, s0, s14
 334 00aa B7EEC00A 		vcvt.f64.f32	d0, s0
 335              		.loc 7 125 71 discriminator 2 view .LVU73
 336 00ae 20EE080B 		vmul.f64	d0, d0, d8
 337              		.loc 7 125 27 discriminator 2 view .LVU74
 338 00b2 B7EEC00B 		vcvt.f32.f64	s0, d0
 339              	.LVL12:
 340              	.LBB572:
 341              	.LBI567:
  60:DaisySP/Source/Synthesis/oscillator.h ****     {
 342              		.loc 10 60 17 is_stmt 1 discriminator 2 view .LVU75
 343              	.LBB569:
  62:DaisySP/Source/Synthesis/oscillator.h ****         phase_inc_ = CalcPhaseInc(f);
 344              		.loc 10 62 9 discriminator 2 view .LVU76
ARM GAS  /tmp/ccxnfbgf.s 			page 19


  62:DaisySP/Source/Synthesis/oscillator.h ****         phase_inc_ = CalcPhaseInc(f);
 345              		.loc 10 62 20 is_stmt 0 discriminator 2 view .LVU77
 346 00b6 05ED140A 		vstr.32	s0, [r5, #-80]
 347              		.loc 10 63 9 is_stmt 1 discriminator 2 view .LVU78
 348              		.loc 10 63 34 is_stmt 0 discriminator 2 view .LVU79
 349 00ba FFF7FEFF 		bl	_ZN7daisysp10Oscillator12CalcPhaseIncEf
 350              	.LVL13:
 351              		.loc 10 63 34 discriminator 2 view .LVU80
 352              	.LBE569:
 353              	.LBE572:
 121:fjol.cpp      ****     {
 354              		.loc 7 121 22 discriminator 2 view .LVU81
 355 00be C245     		cmp	r10, r8
 356              	.LBB573:
 357              	.LBB570:
 358              		.loc 10 63 20 discriminator 2 view .LVU82
 359 00c0 05ED0E0A 		vstr.32	s0, [r5, #-56]
 360              		.loc 10 63 20 discriminator 2 view .LVU83
 361              	.LBE570:
 362              	.LBE573:
 121:fjol.cpp      ****     {
 363              		.loc 7 121 5 is_stmt 1 discriminator 2 view .LVU84
 121:fjol.cpp      ****     {
 364              		.loc 7 121 22 discriminator 2 view .LVU85
 365 00c4 A9D1     		bne	.L8
 366              	.LBE574:
 126:fjol.cpp      ****     }
 127:fjol.cpp      **** 
 128:fjol.cpp      ****     float left,right,temp1,temp2,temp3;
 367              		.loc 7 128 5 discriminator 1 view .LVU86
 129:fjol.cpp      **** 
 130:fjol.cpp      ****     for(size_t i = 0; i < size; i += 2)
 368              		.loc 7 130 5 discriminator 1 view .LVU87
 369              	.LVL14:
 370              	.LBB575:
 371              		.loc 7 130 25 discriminator 1 view .LVU88
 372 00c6 B9F1000F 		cmp	r9, #0
 373 00ca 68D0     		beq	.L7
 374 00cc DFF80881 		ldr	r8, .L13+48
 375 00d0 3A4F     		ldr	r7, .L13+20
 376 00d2 3B4E     		ldr	r6, .L13+24
 377 00d4 3B4D     		ldr	r5, .L13+28
 378              	.LVL15:
 379              	.L10:
 380              	.LBB576:
 381              	.LBB577:
 131:fjol.cpp      ****     {
 132:fjol.cpp      ****       for(int k = 0; k < voicecount;i++)
 382              		.loc 7 132 24 discriminator 3 view .LVU89
 133:fjol.cpp      ****       {
 134:fjol.cpp      ****         envelope[k].envSig = envelope[k].env.Process(voicetrig[k]);
 383              		.loc 7 134 9 discriminator 3 view .LVU90
 384              		.loc 7 134 53 is_stmt 0 discriminator 3 view .LVU91
 385 00d6 98F80010 		ldrb	r1, [r8]	@ zero_extendqisi2
 386 00da 3848     		ldr	r0, .L13+20
 387 00dc FFF7FEFF 		bl	_ZN7daisysp4Adsr7ProcessEb
 388              	.LVL16:
ARM GAS  /tmp/ccxnfbgf.s 			page 20


 135:fjol.cpp      **** 
 136:fjol.cpp      ****         voice[k].op1.SetAmp(envelope[k].envSig);
 137:fjol.cpp      ****         voice[k].op2.SetAmp(envelope[k].envSig*controls[0].value);
 389              		.loc 7 137 28 discriminator 3 view .LVU92
 390 00e0 96ED167A 		vldr.32	s14, [r6, #88]
 138:fjol.cpp      ****         voice[k].op3.SetAmp(envelope[k].envSig*controls[1].value);
 391              		.loc 7 138 28 discriminator 3 view .LVU93
 392 00e4 D6ED2D7A 		vldr.32	s15, [r6, #180]
 137:fjol.cpp      ****         voice[k].op3.SetAmp(envelope[k].envSig*controls[1].value);
 393              		.loc 7 137 28 discriminator 3 view .LVU94
 394 00e8 27EE007A 		vmul.f32	s14, s14, s0
 139:fjol.cpp      **** 
 140:fjol.cpp      ****         //operator 3 processing
 141:fjol.cpp      ****         temp1 = voice[k].op3.Process();
 395              		.loc 7 141 37 discriminator 3 view .LVU95
 396 00ec 3648     		ldr	r0, .L13+32
 138:fjol.cpp      **** 
 397              		.loc 7 138 28 discriminator 3 view .LVU96
 398 00ee 67EE807A 		vmul.f32	s15, s15, s0
 134:fjol.cpp      **** 
 399              		.loc 7 134 28 discriminator 3 view .LVU97
 400 00f2 87ED0E0A 		vstr.32	s0, [r7, #56]
 136:fjol.cpp      ****         voice[k].op2.SetAmp(envelope[k].envSig*controls[0].value);
 401              		.loc 7 136 9 is_stmt 1 discriminator 3 view .LVU98
 402              	.LVL17:
 403              	.LBB578:
 404              	.LBI578:
  64:DaisySP/Source/Synthesis/oscillator.h ****     }
  65:DaisySP/Source/Synthesis/oscillator.h **** 
  66:DaisySP/Source/Synthesis/oscillator.h **** 
  67:DaisySP/Source/Synthesis/oscillator.h ****     /** Sets the amplitude of the waveform.
  68:DaisySP/Source/Synthesis/oscillator.h ****     */
  69:DaisySP/Source/Synthesis/oscillator.h ****     inline void SetAmp(const float a) { amp_ = a; }
 405              		.loc 10 69 17 discriminator 3 view .LVU99
 406              	.LBB579:
 407              		.loc 10 69 41 discriminator 3 view .LVU100
 408              		.loc 10 69 46 is_stmt 0 discriminator 3 view .LVU101
 409 00f6 84ED010A 		vstr.32	s0, [r4, #4]
 410              	.LVL18:
 411              		.loc 10 69 46 discriminator 3 view .LVU102
 412              	.LBE579:
 413              	.LBE578:
 137:fjol.cpp      ****         voice[k].op3.SetAmp(envelope[k].envSig*controls[1].value);
 414              		.loc 7 137 9 is_stmt 1 discriminator 3 view .LVU103
 415              	.LBB580:
 416              	.LBI580:
 417              		.loc 10 69 17 discriminator 3 view .LVU104
 418              	.LBB581:
 419              		.loc 10 69 41 discriminator 3 view .LVU105
 420              		.loc 10 69 46 is_stmt 0 discriminator 3 view .LVU106
 421 00fa 84ED0D7A 		vstr.32	s14, [r4, #52]
 422              	.LVL19:
 423              		.loc 10 69 46 discriminator 3 view .LVU107
 424              	.LBE581:
 425              	.LBE580:
 138:fjol.cpp      **** 
 426              		.loc 7 138 9 is_stmt 1 discriminator 3 view .LVU108
ARM GAS  /tmp/ccxnfbgf.s 			page 21


 427              	.LBB582:
 428              	.LBI582:
 429              		.loc 10 69 17 discriminator 3 view .LVU109
 430              	.LBB583:
 431              		.loc 10 69 41 discriminator 3 view .LVU110
 432              		.loc 10 69 46 is_stmt 0 discriminator 3 view .LVU111
 433 00fe C4ED197A 		vstr.32	s15, [r4, #100]
 434              	.LVL20:
 435              		.loc 10 69 46 discriminator 3 view .LVU112
 436              	.LBE583:
 437              	.LBE582:
 438              		.loc 7 141 9 is_stmt 1 discriminator 3 view .LVU113
 439              		.loc 7 141 37 is_stmt 0 discriminator 3 view .LVU114
 440 0102 FFF7FEFF 		bl	_ZN7daisysp10Oscillator7ProcessEv
 441              	.LVL21:
 142:fjol.cpp      ****         //operator 2 processing
 143:fjol.cpp      ****         voice[k].op2.PhaseAdd(temp1*voice[k].op32);
 442              		.loc 7 143 46 discriminator 3 view .LVU115
 443 0106 94F89830 		ldrb	r3, [r4, #152]	@ zero_extendqisi2
 141:fjol.cpp      ****         //operator 2 processing
 444              		.loc 7 141 37 discriminator 3 view .LVU116
 445 010a F0EE408A 		vmov.f32	s17, s0
 446              	.LVL22:
 447              		.loc 7 143 9 is_stmt 1 discriminator 3 view .LVU117
 448              	.LBB584:
 449              	.LBI584:
  70:DaisySP/Source/Synthesis/oscillator.h ****     /** Sets the waveform to be synthesized by the Process() function.
  71:DaisySP/Source/Synthesis/oscillator.h ****     */
  72:DaisySP/Source/Synthesis/oscillator.h ****     inline void SetWaveform(const uint8_t wf)
  73:DaisySP/Source/Synthesis/oscillator.h ****     {
  74:DaisySP/Source/Synthesis/oscillator.h ****         waveform_ = wf < WAVE_LAST ? wf : WAVE_SIN;
  75:DaisySP/Source/Synthesis/oscillator.h ****     }
  76:DaisySP/Source/Synthesis/oscillator.h ****     /** Sets the pulse width for WAVE_SQUARE and WAVE_POLYBLEP_SQUARE (range 0 - 1)
  77:DaisySP/Source/Synthesis/oscillator.h ****      */
  78:DaisySP/Source/Synthesis/oscillator.h ****     inline void SetPw(const float pw)
  79:DaisySP/Source/Synthesis/oscillator.h ****     {
  80:DaisySP/Source/Synthesis/oscillator.h ****         pw_     = fclamp(pw, 0.0f, 1.0f);
  81:DaisySP/Source/Synthesis/oscillator.h ****         pw_rad_ = pw_ * TWOPI_F;
  82:DaisySP/Source/Synthesis/oscillator.h ****     }
  83:DaisySP/Source/Synthesis/oscillator.h **** 
  84:DaisySP/Source/Synthesis/oscillator.h ****     /** Returns true if cycle is at end of rise. Set during call to Process.
  85:DaisySP/Source/Synthesis/oscillator.h ****     */
  86:DaisySP/Source/Synthesis/oscillator.h ****     inline bool IsEOR() { return eor_; }
  87:DaisySP/Source/Synthesis/oscillator.h **** 
  88:DaisySP/Source/Synthesis/oscillator.h ****     /** Returns true if cycle is at end of cycle. Set during call to Process.
  89:DaisySP/Source/Synthesis/oscillator.h ****     */
  90:DaisySP/Source/Synthesis/oscillator.h ****     inline bool IsEOC() { return eoc_; }
  91:DaisySP/Source/Synthesis/oscillator.h **** 
  92:DaisySP/Source/Synthesis/oscillator.h ****     /** Returns true if cycle rising.
  93:DaisySP/Source/Synthesis/oscillator.h ****     */
  94:DaisySP/Source/Synthesis/oscillator.h ****     inline bool IsRising() { return phase_ < PI_F; }
  95:DaisySP/Source/Synthesis/oscillator.h **** 
  96:DaisySP/Source/Synthesis/oscillator.h ****     /** Returns true if cycle falling.
  97:DaisySP/Source/Synthesis/oscillator.h ****     */
  98:DaisySP/Source/Synthesis/oscillator.h ****     inline bool IsFalling() { return phase_ >= PI_F; }
  99:DaisySP/Source/Synthesis/oscillator.h **** 
 100:DaisySP/Source/Synthesis/oscillator.h ****     /** Processes the waveform to be generated, returning one sample. This should be called once pe
ARM GAS  /tmp/ccxnfbgf.s 			page 22


 101:DaisySP/Source/Synthesis/oscillator.h ****     */
 102:DaisySP/Source/Synthesis/oscillator.h ****     float Process();
 103:DaisySP/Source/Synthesis/oscillator.h **** 
 104:DaisySP/Source/Synthesis/oscillator.h **** 
 105:DaisySP/Source/Synthesis/oscillator.h ****     /** Adds a value 0.0-1.0 (mapped to 0.0-TWO_PI) to the current phase. Useful for PM and "FM" sy
 106:DaisySP/Source/Synthesis/oscillator.h ****     */
 107:DaisySP/Source/Synthesis/oscillator.h ****     void PhaseAdd(float _phase) { phase_ += (_phase * TWOPI_F); }
 450              		.loc 10 107 10 discriminator 3 view .LVU118
 451              	.LBB585:
 452              		.loc 10 107 35 discriminator 3 view .LVU119
 453              		.loc 10 107 42 is_stmt 0 discriminator 3 view .LVU120
 454 010e 9FED2F8A 		vldr.32	s16, .L13+36
 455              	.LBE585:
 456              	.LBE584:
 457              		.loc 7 143 46 discriminator 3 view .LVU121
 458 0112 07EE903A 		vmov	s15, r3	@ int
 459              	.LBB588:
 460              	.LBB586:
 461              		.loc 10 107 42 discriminator 3 view .LVU122
 462 0116 94ED137A 		vldr.32	s14, [r4, #76]
 463              	.LBE586:
 464              	.LBE588:
 144:fjol.cpp      ****         temp2 = voice[k].op2.Process();
 465              		.loc 7 144 37 discriminator 3 view .LVU123
 466 011a 2D48     		ldr	r0, .L13+40
 143:fjol.cpp      ****         temp2 = voice[k].op2.Process();
 467              		.loc 7 143 30 discriminator 3 view .LVU124
 468 011c F8EEE77A 		vcvt.f32.s32	s15, s15
 469 0120 67EE807A 		vmul.f32	s15, s15, s0
 470              	.LVL23:
 471              	.LBB589:
 472              	.LBB587:
 473              		.loc 10 107 42 discriminator 3 view .LVU125
 474 0124 A7EE887A 		vfma.f32	s14, s15, s16
 475 0128 84ED137A 		vstr.32	s14, [r4, #76]
 476              	.LVL24:
 477              		.loc 10 107 42 discriminator 3 view .LVU126
 478              	.LBE587:
 479              	.LBE589:
 480              		.loc 7 144 9 is_stmt 1 discriminator 3 view .LVU127
 481              		.loc 7 144 37 is_stmt 0 discriminator 3 view .LVU128
 482 012c FFF7FEFF 		bl	_ZN7daisysp10Oscillator7ProcessEv
 483              	.LVL25:
 145:fjol.cpp      ****         voice[k].op2.PhaseAdd(param[7]*temp2); //operator 2 feedback
 484              		.loc 7 145 9 is_stmt 1 discriminator 3 view .LVU129
 485              	.LBB590:
 486              	.LBI590:
 487              		.loc 10 107 10 discriminator 3 view .LVU130
 488              	.LBB591:
 489              		.loc 10 107 35 discriminator 3 view .LVU131
 490              	.LBE591:
 491              	.LBE590:
 492              		.loc 7 145 30 is_stmt 0 discriminator 3 view .LVU132
 493 0130 95ED077A 		vldr.32	s14, [r5, #28]
 494              	.LBB594:
 495              	.LBB592:
 496              		.loc 10 107 42 discriminator 3 view .LVU133
ARM GAS  /tmp/ccxnfbgf.s 			page 23


 497 0134 D4ED137A 		vldr.32	s15, [r4, #76]
 498              	.LBE592:
 499              	.LBE594:
 500              		.loc 7 145 30 discriminator 3 view .LVU134
 501 0138 20EE070A 		vmul.f32	s0, s0, s14
 502              	.LVL26:
 146:fjol.cpp      ****         temp2 = voice[k].op2.Process(); 
 503              		.loc 7 146 37 discriminator 3 view .LVU135
 504 013c 2448     		ldr	r0, .L13+40
 505              	.LBB595:
 506              	.LBB593:
 507              		.loc 10 107 42 discriminator 3 view .LVU136
 508 013e E0EE087A 		vfma.f32	s15, s0, s16
 509 0142 C4ED137A 		vstr.32	s15, [r4, #76]
 510              	.LVL27:
 511              		.loc 10 107 42 discriminator 3 view .LVU137
 512              	.LBE593:
 513              	.LBE595:
 514              		.loc 7 146 9 is_stmt 1 discriminator 3 view .LVU138
 515              		.loc 7 146 37 is_stmt 0 discriminator 3 view .LVU139
 516 0146 FFF7FEFF 		bl	_ZN7daisysp10Oscillator7ProcessEv
 517              	.LVL28:
 147:fjol.cpp      ****         //operator 1 processing
 148:fjol.cpp      ****         voice[k].op1.PhaseAdd(temp1*voice[k].op31 + temp2*voice[k].op21);
 518              		.loc 7 148 9 is_stmt 1 discriminator 3 view .LVU140
 519              		.loc 7 148 68 is_stmt 0 discriminator 3 view .LVU141
 520 014a 94F89A30 		ldrb	r3, [r4, #154]	@ zero_extendqisi2
 521              	.LBB596:
 522              	.LBB597:
 523              		.loc 10 107 42 discriminator 3 view .LVU142
 524 014e 94ED077A 		vldr.32	s14, [r4, #28]
 525              	.LBE597:
 526              	.LBE596:
 527              		.loc 7 148 68 discriminator 3 view .LVU143
 528 0152 07EE903A 		vmov	s15, r3	@ int
 529              		.loc 7 148 46 discriminator 3 view .LVU144
 530 0156 94F89930 		ldrb	r3, [r4, #153]	@ zero_extendqisi2
 149:fjol.cpp      ****         temp3 = voice[k].op1.Process();
 531              		.loc 7 149 37 discriminator 3 view .LVU145
 532 015a 1548     		ldr	r0, .L13+8
 148:fjol.cpp      ****         temp3 = voice[k].op1.Process();
 533              		.loc 7 148 58 discriminator 3 view .LVU146
 534 015c F8EEE77A 		vcvt.f32.s32	s15, s15
 148:fjol.cpp      ****         temp3 = voice[k].op1.Process();
 535              		.loc 7 148 46 discriminator 3 view .LVU147
 536 0160 06EE903A 		vmov	s13, r3	@ int
 148:fjol.cpp      ****         temp3 = voice[k].op1.Process();
 537              		.loc 7 148 36 discriminator 3 view .LVU148
 538 0164 F8EEE66A 		vcvt.f32.s32	s13, s13
 148:fjol.cpp      ****         temp3 = voice[k].op1.Process();
 539              		.loc 7 148 58 discriminator 3 view .LVU149
 540 0168 67EE807A 		vmul.f32	s15, s15, s0
 148:fjol.cpp      ****         temp3 = voice[k].op1.Process();
 541              		.loc 7 148 30 discriminator 3 view .LVU150
 542 016c E6EEA87A 		vfma.f32	s15, s13, s17
 543              	.LVL29:
 544              	.LBB599:
ARM GAS  /tmp/ccxnfbgf.s 			page 24


 545              	.LBI596:
 546              		.loc 10 107 10 is_stmt 1 discriminator 3 view .LVU151
 547              	.LBB598:
 548              		.loc 10 107 35 discriminator 3 view .LVU152
 549              		.loc 10 107 42 is_stmt 0 discriminator 3 view .LVU153
 550 0170 A7EE887A 		vfma.f32	s14, s15, s16
 551 0174 84ED077A 		vstr.32	s14, [r4, #28]
 552              	.LVL30:
 553              		.loc 10 107 42 discriminator 3 view .LVU154
 554              	.LBE598:
 555              	.LBE599:
 556              		.loc 7 149 9 is_stmt 1 discriminator 3 view .LVU155
 557              		.loc 7 149 37 is_stmt 0 discriminator 3 view .LVU156
 558 0178 FFF7FEFF 		bl	_ZN7daisysp10Oscillator7ProcessEv
 559              	.LVL31:
 150:fjol.cpp      ****         voice[k].op1.PhaseAdd(temp3*param[6]); //operator 1 feedback
 560              		.loc 7 150 9 is_stmt 1 discriminator 3 view .LVU157
 561              	.LBB600:
 562              	.LBI600:
 563              		.loc 10 107 10 discriminator 3 view .LVU158
 564              	.LBB601:
 565              		.loc 10 107 35 discriminator 3 view .LVU159
 566              	.LBE601:
 567              	.LBE600:
 568              		.loc 7 150 30 is_stmt 0 discriminator 3 view .LVU160
 569 017c 95ED067A 		vldr.32	s14, [r5, #24]
 570              	.LBB604:
 571              	.LBB602:
 572              		.loc 10 107 42 discriminator 3 view .LVU161
 573 0180 D4ED077A 		vldr.32	s15, [r4, #28]
 574              	.LBE602:
 575              	.LBE604:
 576              		.loc 7 150 30 discriminator 3 view .LVU162
 577 0184 20EE070A 		vmul.f32	s0, s0, s14
 578              	.LVL32:
 151:fjol.cpp      **** 
 152:fjol.cpp      ****         //stereo mix
 153:fjol.cpp      ****         left+=voice[k].op1.Process()*voice[k].panL;
 579              		.loc 7 153 35 discriminator 3 view .LVU163
 580 0188 0948     		ldr	r0, .L13+8
 581              	.LBB605:
 582              	.LBB603:
 583              		.loc 10 107 42 discriminator 3 view .LVU164
 584 018a E0EE087A 		vfma.f32	s15, s0, s16
 585 018e C4ED077A 		vstr.32	s15, [r4, #28]
 586              	.LVL33:
 587              		.loc 10 107 42 discriminator 3 view .LVU165
 588              	.LBE603:
 589              	.LBE605:
 590              		.loc 7 153 9 is_stmt 1 discriminator 3 view .LVU166
 591              		.loc 7 153 35 is_stmt 0 discriminator 3 view .LVU167
 592 0192 FFF7FEFF 		bl	_ZN7daisysp10Oscillator7ProcessEv
 593              	.LVL34:
 154:fjol.cpp      ****         left+=(temp2*voice[k].op2out*voice[k].panL)*pm1amp;
 594              		.loc 7 154 9 is_stmt 1 discriminator 3 view .LVU168
 155:fjol.cpp      ****         right+=voice[k].op1.Process()*voice[k].panR;
 595              		.loc 7 155 9 discriminator 3 view .LVU169
ARM GAS  /tmp/ccxnfbgf.s 			page 25


 596              		.loc 7 155 36 is_stmt 0 discriminator 3 view .LVU170
 597 0196 0648     		ldr	r0, .L13+8
 598 0198 FFF7FEFF 		bl	_ZN7daisysp10Oscillator7ProcessEv
 599              	.LVL35:
 156:fjol.cpp      ****         right+=(temp2*voice[k].op2out*voice[k].panR)*pm1amp;
 600              		.loc 7 156 9 is_stmt 1 discriminator 3 view .LVU171
 132:fjol.cpp      ****       {
 601              		.loc 7 132 7 discriminator 3 view .LVU172
 602 019c 9BE7     		b	.L10
 603              	.LVL36:
 604              	.L7:
 132:fjol.cpp      ****       {
 605              		.loc 7 132 7 is_stmt 0 discriminator 3 view .LVU173
 606              	.LBE577:
 607              	.LBE576:
 608              	.LBE575:
 157:fjol.cpp      **** 
 158:fjol.cpp      ****       }
 159:fjol.cpp      **** 
 160:fjol.cpp      ****       //stereo filter with envelope
 161:fjol.cpp      ****       if(filtenv_trig){filtenvelope.env.Trigger();}
 162:fjol.cpp      ****       filtenvelope.envSig = filtenvelope.env.Process();
 163:fjol.cpp      ****       float sum = (filtenvelope.envSig*20000) + controls[6].value;
 164:fjol.cpp      ****       sum = DSY_CLAMP(sum,20,20000);
 165:fjol.cpp      ****       
 166:fjol.cpp      ****       for(int j = 0; i<2;i++)
 167:fjol.cpp      ****       {
 168:fjol.cpp      ****         stfilter[j].filter.SetFreq(sum);
 169:fjol.cpp      ****         stfilter[j].filter.SetFreq(param[1]);
 170:fjol.cpp      ****       }
 171:fjol.cpp      ****       stfilter[0].filter.Process(left);
 172:fjol.cpp      ****       stfilter[0].filter.Process(right);
 173:fjol.cpp      **** 
 174:fjol.cpp      ****       //main out
 175:fjol.cpp      ****       // left out
 176:fjol.cpp      ****       out[i] = stfilter[0].filter.Low();
 177:fjol.cpp      ****       // right out
 178:fjol.cpp      ****       out[i + 1] = stfilter[1].filter.Low();
 179:fjol.cpp      ****     }
 180:fjol.cpp      **** }
 609              		.loc 7 180 1 view .LVU174
 610 019e BDEC048B 		vldm	sp!, {d8-d9}
 611              		.cfi_restore 82
 612              		.cfi_restore 83
 613              		.cfi_restore 80
 614              		.cfi_restore 81
 615              		.cfi_def_cfa_offset 32
 616 01a2 BDE8F087 		pop	{r4, r5, r6, r7, r8, r9, r10, pc}
 617              	.LVL37:
 618              	.L14:
 619              		.loc 7 180 1 view .LVU175
 620 01a6 00BF     		.align	3
 621              	.L13:
 622 01a8 9A999999 		.word	-1717986918
 623 01ac 9999C93F 		.word	1070176665
 624 01b0 00000000 		.word	.LANCHOR0
 625 01b4 00000000 		.word	ratioindex
ARM GAS  /tmp/ccxnfbgf.s 			page 26


 626 01b8 00000000 		.word	knob_value
 627 01bc 00000000 		.word	.LANCHOR1
 628 01c0 00000000 		.word	.LANCHOR2
 629 01c4 00000000 		.word	param
 630 01c8 60000000 		.word	.LANCHOR0+96
 631 01cc DB0FC940 		.word	1086918619
 632 01d0 30000000 		.word	.LANCHOR0+48
 633 01d4 00000000 		.word	voicefreq
 634 01d8 00000000 		.word	voicetrig
 635              		.cfi_endproc
 636              	.LFE4810:
 638              		.section	.text._Z8glidevalv.part.0,"ax",%progbits
 639              		.align	1
 640              		.p2align 2,,3
 641              		.syntax unified
 642              		.thumb
 643              		.thumb_func
 645              	_Z8glidevalv.part.0:
 646              	.LFB5454:
 181:fjol.cpp      **** 
 182:fjol.cpp      **** 
 183:fjol.cpp      **** int main(void)
 184:fjol.cpp      **** {
 185:fjol.cpp      ****   hw.PrintLine("Initialize started");
 186:fjol.cpp      **** 
 187:fjol.cpp      ****   i2c.Init(i2c_config);
 188:fjol.cpp      **** 
 189:fjol.cpp      ****   initializeadc();
 190:fjol.cpp      ****   //Initialize the adc with the config we just made
 191:fjol.cpp      ****   hw.adc.Init(&adcConfig, 1);
 192:fjol.cpp      **** 
 193:fjol.cpp      ****   hw.Init();
 194:fjol.cpp      ****   hw.SetAudioBlockSize(2);
 195:fjol.cpp      ****   initializecontrols();
 196:fjol.cpp      **** 
 197:fjol.cpp      ****   shift_sw.Debounce();
 198:fjol.cpp      ****   if(shift_sw.Pressed())
 199:fjol.cpp      ****   {
 200:fjol.cpp      ****     calibrate();
 201:fjol.cpp      ****   }
 202:fjol.cpp      ****   
 203:fjol.cpp      ****   updatecontrols();
 204:fjol.cpp      **** 
 205:fjol.cpp      ****   //getorsetsettings(load); //get settings from EEPROM
 206:fjol.cpp      **** 
 207:fjol.cpp      ****   samplerate = hw.AudioSampleRate();
 208:fjol.cpp      ****   initializeaudio();
 209:fjol.cpp      ****   hw.StartAudio(AudioCallback);
 210:fjol.cpp      **** 
 211:fjol.cpp      ****   startPCA9622();
 212:fjol.cpp      **** 
 213:fjol.cpp      ****   for(int i = 0; i<15;i++)
 214:fjol.cpp      ****   {
 215:fjol.cpp      ****     setpwm(i,128);
 216:fjol.cpp      ****     System::Delay(25);
 217:fjol.cpp      ****     setpwm(i,0);
 218:fjol.cpp      ****     System::Delay(25);
ARM GAS  /tmp/ccxnfbgf.s 			page 27


 219:fjol.cpp      ****   }
 220:fjol.cpp      ****   led_update(8);
 221:fjol.cpp      ****   MidiUartHandler::Config midi_config;
 222:fjol.cpp      ****   midi.Init(midi_config);
 223:fjol.cpp      ****   midi.StartReceive();
 224:fjol.cpp      ****   while(1)
 225:fjol.cpp      ****   {
 226:fjol.cpp      ****     updatecontrols();
 227:fjol.cpp      ****     /** Listen to MIDI for new changes */
 228:fjol.cpp      ****     midi.Listen();
 229:fjol.cpp      ****     // Handle MIDI Events
 230:fjol.cpp      ****     while(midi.HasEvents())
 231:fjol.cpp      ****     {
 232:fjol.cpp      ****       HandleMidiMessage(midi.PopEvent());
 233:fjol.cpp      ****     }
 234:fjol.cpp      ****     if(led_takeover == 0)
 235:fjol.cpp      ****     {
 236:fjol.cpp      ****       for(int i = 0;i<8;i++)
 237:fjol.cpp      ****       {
 238:fjol.cpp      ****         if(params_changed[i] == 1 && !(midi_sw.Pressed()) && !(algo_sw.Pressed()) && !(shift_sw.Pre
 239:fjol.cpp      ****         {
 240:fjol.cpp      ****           led_update(i);
 241:fjol.cpp      ****           params_changed[i] = 0; 
 242:fjol.cpp      ****         }
 243:fjol.cpp      ****       } //for ends
 244:fjol.cpp      ****     } //if led takeover ends
 245:fjol.cpp      ****         
 246:fjol.cpp      ****     //if any other UI feature has taken over the LED's then count up to 2 seconds and go back to th
 247:fjol.cpp      ****     if( led_takeover == 1 && ((System::GetNow()- ledlastmillis) >= 500) )
 248:fjol.cpp      ****     {
 249:fjol.cpp      ****        led_takeover = 0;
 250:fjol.cpp      ****       //Serial.println(led_takeover);
 251:fjol.cpp      ****        led_update(8); //update all leds
 252:fjol.cpp      ****     } 
 253:fjol.cpp      ****     
 254:fjol.cpp      ****       //---------glide-------
 255:fjol.cpp      ****     if ((System::GetNow() - lastMillis) >= glidetime)
 256:fjol.cpp      ****     {
 257:fjol.cpp      ****       lastMillis = System::GetNow(); //get ready for the next iteration
 258:fjol.cpp      ****       glideval();
 259:fjol.cpp      ****     }
 260:fjol.cpp      ****   } //while ends
 261:fjol.cpp      ****  hw.PrintLine("OH SHIT, WHILE ENDED!!");
 262:fjol.cpp      **** } //main ends
 263:fjol.cpp      **** 
 264:fjol.cpp      **** 
 265:fjol.cpp      **** float calcright(float theta) //calculate -4.5dB pan law
 266:fjol.cpp      **** {
 267:fjol.cpp      **** 
 268:fjol.cpp      ****   float right = sqrt((theta) * (2 / PI) * sin(theta));
 269:fjol.cpp      ****   //Serial.println(String("Right:") + right);
 270:fjol.cpp      ****   return right;
 271:fjol.cpp      **** }
 272:fjol.cpp      **** 
 273:fjol.cpp      **** float calcleft(float theta) //calculate -4.5dB pan law
 274:fjol.cpp      **** {
 275:fjol.cpp      ****   float left = sqrt((PI / 2 - (theta)) * (2 / PI) * cos(theta));
ARM GAS  /tmp/ccxnfbgf.s 			page 28


 276:fjol.cpp      ****   //Serial.println(String("Left:") + left);
 277:fjol.cpp      ****   return left;
 278:fjol.cpp      **** }
 279:fjol.cpp      **** 
 280:fjol.cpp      **** void updatespread()
 281:fjol.cpp      **** {
 282:fjol.cpp      ****    //spread algorithm starts
 283:fjol.cpp      ****   float righttemp = calcright( ((param[0]/2)+0.5)*PI/2 );
 284:fjol.cpp      ****   float lefttemp = calcleft( ((param[0]/2)+0.5)*PI/2 );
 285:fjol.cpp      ****   voice[0].panL = lefttemp;
 286:fjol.cpp      ****   voice[0].panR = righttemp;
 287:fjol.cpp      ****   voice[3].panL = lefttemp;
 288:fjol.cpp      ****   voice[3].panR = righttemp;
 289:fjol.cpp      **** 
 290:fjol.cpp      ****   righttemp = calcright( (( (1-param[0])/400 ) +0.25)*PI/2 );
 291:fjol.cpp      ****   lefttemp = calcleft( (( (1-param[0])/400 )+0.25)*PI/2 );
 292:fjol.cpp      ****   voice[1].panL = lefttemp;
 293:fjol.cpp      ****   voice[1].panR = righttemp;
 294:fjol.cpp      ****   voice[2].panL = lefttemp;
 295:fjol.cpp      ****   voice[2].panR = righttemp;
 296:fjol.cpp      **** }
 297:fjol.cpp      **** 
 298:fjol.cpp      **** void getorsetsettings(bool getorset)
 299:fjol.cpp      **** {
 300:fjol.cpp      ****   uint8_t eeaddress = 0;
 301:fjol.cpp      **** 
 302:fjol.cpp      ****   data qspidata;
 303:fjol.cpp      ****   if (getorset == load)
 304:fjol.cpp      ****   {
 305:fjol.cpp      ****    
 306:fjol.cpp      ****     for(int i = 0; i<8; i++)
 307:fjol.cpp      ****     {
 308:fjol.cpp      ****       param[i] = qspidata.d_param[i];
 309:fjol.cpp      ****     }
 310:fjol.cpp      ****     enc[0].ctldest = qspidata.d_states[0];
 311:fjol.cpp      ****     enc[0].ctlcvdest = qspidata.d_states[1];
 312:fjol.cpp      ****     enc[1].ctldest = qspidata.d_states[2];
 313:fjol.cpp      ****     enc[1].ctlcvdest = qspidata.d_states[3];
 314:fjol.cpp      ****     algo_select = qspidata.d_states[4];
 315:fjol.cpp      ****     midichannel = qspidata.d_states[5];
 316:fjol.cpp      ****     return;
 317:fjol.cpp      ****   }
 318:fjol.cpp      ****   else if (getorset == save)
 319:fjol.cpp      ****   {
 320:fjol.cpp      ****     // Serial.println(String("saved data to point:")+ eeaddress);
 321:fjol.cpp      ****     // EEPROM.put(0, midichannel);
 322:fjol.cpp      ****     for(int i = 0; i<8; i++)
 323:fjol.cpp      ****     {
 324:fjol.cpp      ****        qspidata.d_param[i] = param[i];
 325:fjol.cpp      ****     }
 326:fjol.cpp      ****     qspidata.d_states[0] = enc[0].ctldest;
 327:fjol.cpp      ****     qspidata.d_states[1] = enc[0].ctlcvdest;
 328:fjol.cpp      ****     qspidata.d_states[2]= enc[1].ctldest;
 329:fjol.cpp      ****     qspidata.d_states[3] = enc[1].ctlcvdest;
 330:fjol.cpp      ****     qspidata.d_states[4] = algo_select;
 331:fjol.cpp      ****     qspidata.d_states[5] = midichannel;
 332:fjol.cpp      ****     //** Erase qspi and then write our new data
ARM GAS  /tmp/ccxnfbgf.s 			page 29


 333:fjol.cpp      ****     // for(int i = 0; i<8;i++)
 334:fjol.cpp      ****     // {
 335:fjol.cpp      ****     //   hw.qspi.Erase(eeaddress, eeaddress);
 336:fjol.cpp      ****     //   hw.qspi.Write(eeaddress, sizeof(qspidata.d_param[i]), qspidata.d_param[i]);
 337:fjol.cpp      ****     //   eeaddress += sizeof(qspidata.d_param[i]);
 338:fjol.cpp      ****     //   System::Delay(1);
 339:fjol.cpp      ****     // }
 340:fjol.cpp      ****     // for(int i = 0; i<6;i++)
 341:fjol.cpp      ****     // {
 342:fjol.cpp      ****     //   hw.qspi.Erase(eeaddress, eeaddress);
 343:fjol.cpp      ****     //   hw.qspi.Write(eeaddress, sizeof(qspidata.d_param[i]), qspidata.d_states[i]);
 344:fjol.cpp      ****     //   eeaddress += sizeof(qspidata.d_param[i]);
 345:fjol.cpp      ****     // }
 346:fjol.cpp      ****     return;
 347:fjol.cpp      ****   }
 348:fjol.cpp      **** } //get or set ends
 349:fjol.cpp      **** 
 350:fjol.cpp      **** void glideval()
 647              		.loc 7 350 6 is_stmt 1 view -0
 648              		.cfi_startproc
 649              		@ args = 0, pretend = 0, frame = 0
 650              		@ frame_needed = 0, uses_anonymous_args = 0
 651              		@ link register save eliminated.
 652              	.LVL38:
 653              	.LBB606:
 351:fjol.cpp      **** {
 352:fjol.cpp      ****   int voicenumb = 4;
 353:fjol.cpp      ****   if (glidetime > 0)
 354:fjol.cpp      ****   {
 355:fjol.cpp      **** 
 356:fjol.cpp      ****     for (int i = 0; i < voicenumb; i++)
 654              		.loc 7 356 23 view .LVU177
 357:fjol.cpp      ****     {
 358:fjol.cpp      ****       if (voicefreqtarget[i] > int(voicefreq[i]))
 359:fjol.cpp      ****       {
 360:fjol.cpp      ****         voicefreq[i] = voicefreq[i] + glide;
 361:fjol.cpp      ****         if (int(voicefreq[i]) > voicefreqtarget[i])
 362:fjol.cpp      ****           voicefreq[i] = voicefreqtarget[i];
 363:fjol.cpp      ****       }
 364:fjol.cpp      ****       else if (voicefreqtarget[i] < int(voicefreq[i]))
 365:fjol.cpp      ****       {
 366:fjol.cpp      ****         voicefreq[i] = voicefreq[i] - glide;
 655              		.loc 7 366 37 is_stmt 0 view .LVU178
 656 0000 1B49     		ldr	r1, .L31
 657 0002 1C4B     		ldr	r3, .L31+4
 658 0004 91ED006A 		vldr.32	s12, [r1]	@ int
 659 0008 1B4A     		ldr	r2, .L31+8
 660 000a 03F11001 		add	r1, r3, #16
 661              	.LVL39:
 662              	.L24:
 358:fjol.cpp      ****       {
 663              		.loc 7 358 7 is_stmt 1 view .LVU179
 360:fjol.cpp      ****         if (int(voicefreq[i]) > voicefreqtarget[i])
 664              		.loc 7 360 9 view .LVU180
 364:fjol.cpp      ****       {
 665              		.loc 7 364 12 view .LVU181
 358:fjol.cpp      ****       {
ARM GAS  /tmp/ccxnfbgf.s 			page 30


 666              		.loc 7 358 47 is_stmt 0 view .LVU182
 667 000e F2EC016A 		vldmia.32	r2!, {s13}
 358:fjol.cpp      ****       {
 668              		.loc 7 358 28 view .LVU183
 669 0012 B3EC017A 		vldmia.32	r3!, {s14}
 358:fjol.cpp      ****       {
 670              		.loc 7 358 32 view .LVU184
 671 0016 FDEEE67A 		vcvt.s32.f32	s15, s13
 358:fjol.cpp      ****       {
 672              		.loc 7 358 30 view .LVU185
 673 001a F8EEE77A 		vcvt.f32.s32	s15, s15
 358:fjol.cpp      ****       {
 674              		.loc 7 358 7 view .LVU186
 675 001e B4EEE77A 		vcmpe.f32	s14, s15
 676 0022 F1EE10FA 		vmrs	APSR_nzcv, FPSCR
 677 0026 11DD     		ble	.L28
 362:fjol.cpp      ****       }
 678              		.loc 7 362 11 is_stmt 1 view .LVU187
 360:fjol.cpp      ****         if (int(voicefreq[i]) > voicefreqtarget[i])
 679              		.loc 7 360 37 is_stmt 0 view .LVU188
 680 0028 F8EEC67A 		vcvt.f32.s32	s15, s12
 681 002c 77EEA66A 		vadd.f32	s13, s15, s13
 361:fjol.cpp      ****           voicefreq[i] = voicefreqtarget[i];
 682              		.loc 7 361 9 is_stmt 1 view .LVU189
 361:fjol.cpp      ****           voicefreq[i] = voicefreqtarget[i];
 683              		.loc 7 361 13 is_stmt 0 view .LVU190
 684 0030 FDEEE67A 		vcvt.s32.f32	s15, s13
 361:fjol.cpp      ****           voicefreq[i] = voicefreqtarget[i];
 685              		.loc 7 361 31 view .LVU191
 686 0034 F8EEE77A 		vcvt.f32.s32	s15, s15
 361:fjol.cpp      ****           voicefreq[i] = voicefreqtarget[i];
 687              		.loc 7 361 9 view .LVU192
 688 0038 B4EEE77A 		vcmpe.f32	s14, s15
 689 003c F1EE10FA 		vmrs	APSR_nzcv, FPSCR
 690 0040 12D4     		bmi	.L29
 691              	.L30:
 692              		.loc 7 366 22 view .LVU193
 693 0042 42ED016A 		vstr.32	s13, [r2, #-4]
 694              	.L19:
 356:fjol.cpp      ****     {
 695              		.loc 7 356 5 is_stmt 1 view .LVU194
 356:fjol.cpp      ****     {
 696              		.loc 7 356 23 view .LVU195
 697 0046 8B42     		cmp	r3, r1
 698 0048 E1D1     		bne	.L24
 699              	.LBE606:
 367:fjol.cpp      ****         if (int(voicefreq[i]) < voicefreqtarget[i])
 368:fjol.cpp      ****           voicefreq[i] = voicefreqtarget[i];
 369:fjol.cpp      ****       }
 370:fjol.cpp      ****       else
 371:fjol.cpp      ****       {
 372:fjol.cpp      ****         voicefreq[i] = voicefreqtarget[i];
 373:fjol.cpp      ****       }
 374:fjol.cpp      ****     }
 375:fjol.cpp      ****   } //if glidetime > 0 ends
 376:fjol.cpp      ****   else if (glidetime == 0)
 377:fjol.cpp      ****   {
ARM GAS  /tmp/ccxnfbgf.s 			page 31


 378:fjol.cpp      ****     for (int i = 0; i < voicenumb; i++)
 379:fjol.cpp      ****     {
 380:fjol.cpp      ****       voicefreq[i] = voicefreqtarget[i];
 381:fjol.cpp      ****     }
 382:fjol.cpp      ****   }
 383:fjol.cpp      **** } //glideval() ends
 700              		.loc 7 383 1 is_stmt 0 view .LVU196
 701 004a 7047     		bx	lr
 702              	.L28:
 703              	.LBB607:
 366:fjol.cpp      ****         if (int(voicefreq[i]) < voicefreqtarget[i])
 704              		.loc 7 366 9 is_stmt 1 view .LVU197
 372:fjol.cpp      ****       }
 705              		.loc 7 372 9 view .LVU198
 364:fjol.cpp      ****       {
 706              		.loc 7 364 12 is_stmt 0 view .LVU199
 707 004c 0CD5     		bpl	.L29
 368:fjol.cpp      ****       }
 708              		.loc 7 368 11 is_stmt 1 view .LVU200
 366:fjol.cpp      ****         if (int(voicefreq[i]) < voicefreqtarget[i])
 709              		.loc 7 366 37 is_stmt 0 view .LVU201
 710 004e F8EEC67A 		vcvt.f32.s32	s15, s12
 711 0052 76EEE76A 		vsub.f32	s13, s13, s15
 367:fjol.cpp      ****           voicefreq[i] = voicefreqtarget[i];
 712              		.loc 7 367 9 is_stmt 1 view .LVU202
 367:fjol.cpp      ****           voicefreq[i] = voicefreqtarget[i];
 713              		.loc 7 367 13 is_stmt 0 view .LVU203
 714 0056 FDEEE67A 		vcvt.s32.f32	s15, s13
 367:fjol.cpp      ****           voicefreq[i] = voicefreqtarget[i];
 715              		.loc 7 367 31 view .LVU204
 716 005a F8EEE77A 		vcvt.f32.s32	s15, s15
 367:fjol.cpp      ****           voicefreq[i] = voicefreqtarget[i];
 717              		.loc 7 367 9 view .LVU205
 718 005e B4EEE77A 		vcmpe.f32	s14, s15
 719 0062 F1EE10FA 		vmrs	APSR_nzcv, FPSCR
 720 0066 ECDD     		ble	.L30
 721              	.L29:
 372:fjol.cpp      ****       }
 722              		.loc 7 372 22 view .LVU206
 723 0068 02ED017A 		vstr.32	s14, [r2, #-4]
 724 006c EBE7     		b	.L19
 725              	.L32:
 726 006e 00BF     		.align	2
 727              	.L31:
 728 0070 00000000 		.word	glide
 729 0074 00000000 		.word	voicefreqtarget
 730 0078 00000000 		.word	voicefreq
 731              	.LBE607:
 732              		.cfi_endproc
 733              	.LFE5454:
 735              		.section	.text.__tcf_6,"ax",%progbits
 736              		.align	1
 737              		.p2align 2,,3
 738              		.syntax unified
 739              		.thumb
 740              		.thumb_func
 742              	__tcf_6:
ARM GAS  /tmp/ccxnfbgf.s 			page 32


 743              	.LFB5466:
 744              		.cfi_startproc
 745              		@ args = 0, pretend = 0, frame = 0
 746              		@ frame_needed = 0, uses_anonymous_args = 0
 747              		@ link register save eliminated.
 748 0000 7047     		bx	lr
 749              		.cfi_endproc
 750              	.LFE5466:
 752 0002 00BF     		.section	.text.__tcf_7,"ax",%progbits
 753              		.align	1
 754              		.p2align 2,,3
 755              		.syntax unified
 756              		.thumb
 757              		.thumb_func
 759              	__tcf_7:
 760              	.LFB5468:
 761              		.cfi_startproc
 762              		@ args = 0, pretend = 0, frame = 0
 763              		@ frame_needed = 0, uses_anonymous_args = 0
 764              		@ link register save eliminated.
 765 0000 7047     		bx	lr
 766              		.cfi_endproc
 767              	.LFE5468:
 769 0002 00BF     		.section	.text.__tcf_1,"ax",%progbits
 770              		.align	1
 771              		.p2align 2,,3
 772              		.syntax unified
 773              		.thumb
 774              		.thumb_func
 776              	__tcf_1:
 777              	.LFB5456:
 778              		.cfi_startproc
 779              		@ args = 0, pretend = 0, frame = 0
 780              		@ frame_needed = 0, uses_anonymous_args = 0
 781              		@ link register save eliminated.
 782 0000 7047     		bx	lr
 783              		.cfi_endproc
 784              	.LFE5456:
 786 0002 00BF     		.section	.text.__tcf_2,"ax",%progbits
 787              		.align	1
 788              		.p2align 2,,3
 789              		.syntax unified
 790              		.thumb
 791              		.thumb_func
 793              	__tcf_2:
 794              	.LFB5458:
 795              		.cfi_startproc
 796              		@ args = 0, pretend = 0, frame = 0
 797              		@ frame_needed = 0, uses_anonymous_args = 0
 798              		@ link register save eliminated.
 799 0000 7047     		bx	lr
 800              		.cfi_endproc
 801              	.LFE5458:
 803 0002 00BF     		.section	.text.__tcf_3,"ax",%progbits
 804              		.align	1
 805              		.p2align 2,,3
 806              		.syntax unified
ARM GAS  /tmp/ccxnfbgf.s 			page 33


 807              		.thumb
 808              		.thumb_func
 810              	__tcf_3:
 811              	.LFB5460:
 812              		.cfi_startproc
 813              		@ args = 0, pretend = 0, frame = 0
 814              		@ frame_needed = 0, uses_anonymous_args = 0
 815              		@ link register save eliminated.
 816 0000 7047     		bx	lr
 817              		.cfi_endproc
 818              	.LFE5460:
 820 0002 00BF     		.section	.text.__tcf_4,"ax",%progbits
 821              		.align	1
 822              		.p2align 2,,3
 823              		.syntax unified
 824              		.thumb
 825              		.thumb_func
 827              	__tcf_4:
 828              	.LFB5462:
 829              		.cfi_startproc
 830              		@ args = 0, pretend = 0, frame = 0
 831              		@ frame_needed = 0, uses_anonymous_args = 0
 832              		@ link register save eliminated.
 833 0000 7047     		bx	lr
 834              		.cfi_endproc
 835              	.LFE5462:
 837 0002 00BF     		.section	.text.__tcf_5,"ax",%progbits
 838              		.align	1
 839              		.p2align 2,,3
 840              		.syntax unified
 841              		.thumb
 842              		.thumb_func
 844              	__tcf_5:
 845              	.LFB5464:
 846              		.cfi_startproc
 847              		@ args = 0, pretend = 0, frame = 0
 848              		@ frame_needed = 0, uses_anonymous_args = 0
 849              		@ link register save eliminated.
 850 0000 7047     		bx	lr
 851              		.cfi_endproc
 852              	.LFE5464:
 854 0002 00BF     		.section	.text._Z9calcrightf,"ax",%progbits
 855              		.align	1
 856              		.p2align 2,,3
 857              		.global	_Z9calcrightf
 858              		.syntax unified
 859              		.thumb
 860              		.thumb_func
 862              	_Z9calcrightf:
 863              	.LVL40:
 864              	.LFB4815:
 266:fjol.cpp      **** 
 865              		.loc 7 266 1 is_stmt 1 view -0
 866              		.cfi_startproc
 867              		@ args = 0, pretend = 0, frame = 0
 868              		@ frame_needed = 0, uses_anonymous_args = 0
 268:fjol.cpp      ****   //Serial.println(String("Right:") + right);
ARM GAS  /tmp/ccxnfbgf.s 			page 34


 869              		.loc 7 268 3 view .LVU208
 266:fjol.cpp      **** 
 870              		.loc 7 266 1 is_stmt 0 view .LVU209
 871 0000 08B5     		push	{r3, lr}
 872              		.cfi_def_cfa_offset 8
 873              		.cfi_offset 3, -8
 874              		.cfi_offset 14, -4
 875 0002 2DED028B 		vpush.64	{d8}
 876              		.cfi_def_cfa_offset 16
 877              		.cfi_offset 80, -16
 878              		.cfi_offset 81, -12
 266:fjol.cpp      **** 
 879              		.loc 7 266 1 view .LVU210
 880 0006 B0EE408A 		vmov.f32	s16, s0
 881              	.LVL41:
 882              	.LBB610:
 883              	.LBI610:
 884              		.file 11 "/home/hallmar/Developer/gcc-arm-none-eabi-10.3-2021.10/arm-none-eabi/include/c++/10.3.1/
   1:/home/hallmar/Developer/gcc-arm-none-eabi-10.3-2021.10/arm-none-eabi/include/c++/10.3.1/cmath **** // -*- C++ -*- C forwarding header.
   2:/home/hallmar/Developer/gcc-arm-none-eabi-10.3-2021.10/arm-none-eabi/include/c++/10.3.1/cmath **** 
   3:/home/hallmar/Developer/gcc-arm-none-eabi-10.3-2021.10/arm-none-eabi/include/c++/10.3.1/cmath **** // Copyright (C) 1997-2020 Free Software Foundation, Inc.
   4:/home/hallmar/Developer/gcc-arm-none-eabi-10.3-2021.10/arm-none-eabi/include/c++/10.3.1/cmath **** //
   5:/home/hallmar/Developer/gcc-arm-none-eabi-10.3-2021.10/arm-none-eabi/include/c++/10.3.1/cmath **** // This file is part of the GNU ISO C++ Library.  This library is free
   6:/home/hallmar/Developer/gcc-arm-none-eabi-10.3-2021.10/arm-none-eabi/include/c++/10.3.1/cmath **** // software; you can redistribute it and/or modify it under the
   7:/home/hallmar/Developer/gcc-arm-none-eabi-10.3-2021.10/arm-none-eabi/include/c++/10.3.1/cmath **** // terms of the GNU General Public License as published by the
   8:/home/hallmar/Developer/gcc-arm-none-eabi-10.3-2021.10/arm-none-eabi/include/c++/10.3.1/cmath **** // Free Software Foundation; either version 3, or (at your option)
   9:/home/hallmar/Developer/gcc-arm-none-eabi-10.3-2021.10/arm-none-eabi/include/c++/10.3.1/cmath **** // any later version.
  10:/home/hallmar/Developer/gcc-arm-none-eabi-10.3-2021.10/arm-none-eabi/include/c++/10.3.1/cmath **** 
  11:/home/hallmar/Developer/gcc-arm-none-eabi-10.3-2021.10/arm-none-eabi/include/c++/10.3.1/cmath **** // This library is distributed in the hope that it will be useful,
  12:/home/hallmar/Developer/gcc-arm-none-eabi-10.3-2021.10/arm-none-eabi/include/c++/10.3.1/cmath **** // but WITHOUT ANY WARRANTY; without even the implied warranty of
  13:/home/hallmar/Developer/gcc-arm-none-eabi-10.3-2021.10/arm-none-eabi/include/c++/10.3.1/cmath **** // MERCHANTABILITY or FITNESS FOR A PARTICULAR PURPOSE.  See the
  14:/home/hallmar/Developer/gcc-arm-none-eabi-10.3-2021.10/arm-none-eabi/include/c++/10.3.1/cmath **** // GNU General Public License for more details.
  15:/home/hallmar/Developer/gcc-arm-none-eabi-10.3-2021.10/arm-none-eabi/include/c++/10.3.1/cmath **** 
  16:/home/hallmar/Developer/gcc-arm-none-eabi-10.3-2021.10/arm-none-eabi/include/c++/10.3.1/cmath **** // Under Section 7 of GPL version 3, you are granted additional
  17:/home/hallmar/Developer/gcc-arm-none-eabi-10.3-2021.10/arm-none-eabi/include/c++/10.3.1/cmath **** // permissions described in the GCC Runtime Library Exception, version
  18:/home/hallmar/Developer/gcc-arm-none-eabi-10.3-2021.10/arm-none-eabi/include/c++/10.3.1/cmath **** // 3.1, as published by the Free Software Foundation.
  19:/home/hallmar/Developer/gcc-arm-none-eabi-10.3-2021.10/arm-none-eabi/include/c++/10.3.1/cmath **** 
  20:/home/hallmar/Developer/gcc-arm-none-eabi-10.3-2021.10/arm-none-eabi/include/c++/10.3.1/cmath **** // You should have received a copy of the GNU General Public License and
  21:/home/hallmar/Developer/gcc-arm-none-eabi-10.3-2021.10/arm-none-eabi/include/c++/10.3.1/cmath **** // a copy of the GCC Runtime Library Exception along with this program;
  22:/home/hallmar/Developer/gcc-arm-none-eabi-10.3-2021.10/arm-none-eabi/include/c++/10.3.1/cmath **** // see the files COPYING3 and COPYING.RUNTIME respectively.  If not, see
  23:/home/hallmar/Developer/gcc-arm-none-eabi-10.3-2021.10/arm-none-eabi/include/c++/10.3.1/cmath **** // <http://www.gnu.org/licenses/>.
  24:/home/hallmar/Developer/gcc-arm-none-eabi-10.3-2021.10/arm-none-eabi/include/c++/10.3.1/cmath **** 
  25:/home/hallmar/Developer/gcc-arm-none-eabi-10.3-2021.10/arm-none-eabi/include/c++/10.3.1/cmath **** /** @file include/cmath
  26:/home/hallmar/Developer/gcc-arm-none-eabi-10.3-2021.10/arm-none-eabi/include/c++/10.3.1/cmath ****  *  This is a Standard C++ Library file.  You should @c \#include this file
  27:/home/hallmar/Developer/gcc-arm-none-eabi-10.3-2021.10/arm-none-eabi/include/c++/10.3.1/cmath ****  *  in your programs, rather than any of the @a *.h implementation files.
  28:/home/hallmar/Developer/gcc-arm-none-eabi-10.3-2021.10/arm-none-eabi/include/c++/10.3.1/cmath ****  *
  29:/home/hallmar/Developer/gcc-arm-none-eabi-10.3-2021.10/arm-none-eabi/include/c++/10.3.1/cmath ****  *  This is the C++ version of the Standard C Library header @c math.h,
  30:/home/hallmar/Developer/gcc-arm-none-eabi-10.3-2021.10/arm-none-eabi/include/c++/10.3.1/cmath ****  *  and its contents are (mostly) the same as that header, but are all
  31:/home/hallmar/Developer/gcc-arm-none-eabi-10.3-2021.10/arm-none-eabi/include/c++/10.3.1/cmath ****  *  contained in the namespace @c std (except for names which are defined
  32:/home/hallmar/Developer/gcc-arm-none-eabi-10.3-2021.10/arm-none-eabi/include/c++/10.3.1/cmath ****  *  as macros in C).
  33:/home/hallmar/Developer/gcc-arm-none-eabi-10.3-2021.10/arm-none-eabi/include/c++/10.3.1/cmath ****  */
  34:/home/hallmar/Developer/gcc-arm-none-eabi-10.3-2021.10/arm-none-eabi/include/c++/10.3.1/cmath **** 
  35:/home/hallmar/Developer/gcc-arm-none-eabi-10.3-2021.10/arm-none-eabi/include/c++/10.3.1/cmath **** //
  36:/home/hallmar/Developer/gcc-arm-none-eabi-10.3-2021.10/arm-none-eabi/include/c++/10.3.1/cmath **** // ISO C++ 14882: 26.5  C library
  37:/home/hallmar/Developer/gcc-arm-none-eabi-10.3-2021.10/arm-none-eabi/include/c++/10.3.1/cmath **** //
  38:/home/hallmar/Developer/gcc-arm-none-eabi-10.3-2021.10/arm-none-eabi/include/c++/10.3.1/cmath **** 
  39:/home/hallmar/Developer/gcc-arm-none-eabi-10.3-2021.10/arm-none-eabi/include/c++/10.3.1/cmath **** #pragma GCC system_header
ARM GAS  /tmp/ccxnfbgf.s 			page 35


  40:/home/hallmar/Developer/gcc-arm-none-eabi-10.3-2021.10/arm-none-eabi/include/c++/10.3.1/cmath **** 
  41:/home/hallmar/Developer/gcc-arm-none-eabi-10.3-2021.10/arm-none-eabi/include/c++/10.3.1/cmath **** #include <bits/c++config.h>
  42:/home/hallmar/Developer/gcc-arm-none-eabi-10.3-2021.10/arm-none-eabi/include/c++/10.3.1/cmath **** #include <bits/cpp_type_traits.h>
  43:/home/hallmar/Developer/gcc-arm-none-eabi-10.3-2021.10/arm-none-eabi/include/c++/10.3.1/cmath **** #include <ext/type_traits.h>
  44:/home/hallmar/Developer/gcc-arm-none-eabi-10.3-2021.10/arm-none-eabi/include/c++/10.3.1/cmath **** #define _GLIBCXX_INCLUDE_NEXT_C_HEADERS
  45:/home/hallmar/Developer/gcc-arm-none-eabi-10.3-2021.10/arm-none-eabi/include/c++/10.3.1/cmath **** #include_next <math.h>
  46:/home/hallmar/Developer/gcc-arm-none-eabi-10.3-2021.10/arm-none-eabi/include/c++/10.3.1/cmath **** #undef _GLIBCXX_INCLUDE_NEXT_C_HEADERS
  47:/home/hallmar/Developer/gcc-arm-none-eabi-10.3-2021.10/arm-none-eabi/include/c++/10.3.1/cmath **** #include <bits/std_abs.h>
  48:/home/hallmar/Developer/gcc-arm-none-eabi-10.3-2021.10/arm-none-eabi/include/c++/10.3.1/cmath **** 
  49:/home/hallmar/Developer/gcc-arm-none-eabi-10.3-2021.10/arm-none-eabi/include/c++/10.3.1/cmath **** #ifndef _GLIBCXX_CMATH
  50:/home/hallmar/Developer/gcc-arm-none-eabi-10.3-2021.10/arm-none-eabi/include/c++/10.3.1/cmath **** #define _GLIBCXX_CMATH 1
  51:/home/hallmar/Developer/gcc-arm-none-eabi-10.3-2021.10/arm-none-eabi/include/c++/10.3.1/cmath **** 
  52:/home/hallmar/Developer/gcc-arm-none-eabi-10.3-2021.10/arm-none-eabi/include/c++/10.3.1/cmath **** // Get rid of those macros defined in <math.h> in lieu of real functions.
  53:/home/hallmar/Developer/gcc-arm-none-eabi-10.3-2021.10/arm-none-eabi/include/c++/10.3.1/cmath **** #undef div
  54:/home/hallmar/Developer/gcc-arm-none-eabi-10.3-2021.10/arm-none-eabi/include/c++/10.3.1/cmath **** #undef acos
  55:/home/hallmar/Developer/gcc-arm-none-eabi-10.3-2021.10/arm-none-eabi/include/c++/10.3.1/cmath **** #undef asin
  56:/home/hallmar/Developer/gcc-arm-none-eabi-10.3-2021.10/arm-none-eabi/include/c++/10.3.1/cmath **** #undef atan
  57:/home/hallmar/Developer/gcc-arm-none-eabi-10.3-2021.10/arm-none-eabi/include/c++/10.3.1/cmath **** #undef atan2
  58:/home/hallmar/Developer/gcc-arm-none-eabi-10.3-2021.10/arm-none-eabi/include/c++/10.3.1/cmath **** #undef ceil
  59:/home/hallmar/Developer/gcc-arm-none-eabi-10.3-2021.10/arm-none-eabi/include/c++/10.3.1/cmath **** #undef cos
  60:/home/hallmar/Developer/gcc-arm-none-eabi-10.3-2021.10/arm-none-eabi/include/c++/10.3.1/cmath **** #undef cosh
  61:/home/hallmar/Developer/gcc-arm-none-eabi-10.3-2021.10/arm-none-eabi/include/c++/10.3.1/cmath **** #undef exp
  62:/home/hallmar/Developer/gcc-arm-none-eabi-10.3-2021.10/arm-none-eabi/include/c++/10.3.1/cmath **** #undef fabs
  63:/home/hallmar/Developer/gcc-arm-none-eabi-10.3-2021.10/arm-none-eabi/include/c++/10.3.1/cmath **** #undef floor
  64:/home/hallmar/Developer/gcc-arm-none-eabi-10.3-2021.10/arm-none-eabi/include/c++/10.3.1/cmath **** #undef fmod
  65:/home/hallmar/Developer/gcc-arm-none-eabi-10.3-2021.10/arm-none-eabi/include/c++/10.3.1/cmath **** #undef frexp
  66:/home/hallmar/Developer/gcc-arm-none-eabi-10.3-2021.10/arm-none-eabi/include/c++/10.3.1/cmath **** #undef ldexp
  67:/home/hallmar/Developer/gcc-arm-none-eabi-10.3-2021.10/arm-none-eabi/include/c++/10.3.1/cmath **** #undef log
  68:/home/hallmar/Developer/gcc-arm-none-eabi-10.3-2021.10/arm-none-eabi/include/c++/10.3.1/cmath **** #undef log10
  69:/home/hallmar/Developer/gcc-arm-none-eabi-10.3-2021.10/arm-none-eabi/include/c++/10.3.1/cmath **** #undef modf
  70:/home/hallmar/Developer/gcc-arm-none-eabi-10.3-2021.10/arm-none-eabi/include/c++/10.3.1/cmath **** #undef pow
  71:/home/hallmar/Developer/gcc-arm-none-eabi-10.3-2021.10/arm-none-eabi/include/c++/10.3.1/cmath **** #undef sin
  72:/home/hallmar/Developer/gcc-arm-none-eabi-10.3-2021.10/arm-none-eabi/include/c++/10.3.1/cmath **** #undef sinh
  73:/home/hallmar/Developer/gcc-arm-none-eabi-10.3-2021.10/arm-none-eabi/include/c++/10.3.1/cmath **** #undef sqrt
  74:/home/hallmar/Developer/gcc-arm-none-eabi-10.3-2021.10/arm-none-eabi/include/c++/10.3.1/cmath **** #undef tan
  75:/home/hallmar/Developer/gcc-arm-none-eabi-10.3-2021.10/arm-none-eabi/include/c++/10.3.1/cmath **** #undef tanh
  76:/home/hallmar/Developer/gcc-arm-none-eabi-10.3-2021.10/arm-none-eabi/include/c++/10.3.1/cmath **** 
  77:/home/hallmar/Developer/gcc-arm-none-eabi-10.3-2021.10/arm-none-eabi/include/c++/10.3.1/cmath **** extern "C++"
  78:/home/hallmar/Developer/gcc-arm-none-eabi-10.3-2021.10/arm-none-eabi/include/c++/10.3.1/cmath **** {
  79:/home/hallmar/Developer/gcc-arm-none-eabi-10.3-2021.10/arm-none-eabi/include/c++/10.3.1/cmath **** namespace std _GLIBCXX_VISIBILITY(default)
  80:/home/hallmar/Developer/gcc-arm-none-eabi-10.3-2021.10/arm-none-eabi/include/c++/10.3.1/cmath **** {
  81:/home/hallmar/Developer/gcc-arm-none-eabi-10.3-2021.10/arm-none-eabi/include/c++/10.3.1/cmath **** _GLIBCXX_BEGIN_NAMESPACE_VERSION
  82:/home/hallmar/Developer/gcc-arm-none-eabi-10.3-2021.10/arm-none-eabi/include/c++/10.3.1/cmath **** 
  83:/home/hallmar/Developer/gcc-arm-none-eabi-10.3-2021.10/arm-none-eabi/include/c++/10.3.1/cmath ****   using ::acos;
  84:/home/hallmar/Developer/gcc-arm-none-eabi-10.3-2021.10/arm-none-eabi/include/c++/10.3.1/cmath **** 
  85:/home/hallmar/Developer/gcc-arm-none-eabi-10.3-2021.10/arm-none-eabi/include/c++/10.3.1/cmath **** #ifndef __CORRECT_ISO_CPP_MATH_H_PROTO
  86:/home/hallmar/Developer/gcc-arm-none-eabi-10.3-2021.10/arm-none-eabi/include/c++/10.3.1/cmath ****   inline _GLIBCXX_CONSTEXPR float
  87:/home/hallmar/Developer/gcc-arm-none-eabi-10.3-2021.10/arm-none-eabi/include/c++/10.3.1/cmath ****   acos(float __x)
  88:/home/hallmar/Developer/gcc-arm-none-eabi-10.3-2021.10/arm-none-eabi/include/c++/10.3.1/cmath ****   { return __builtin_acosf(__x); }
  89:/home/hallmar/Developer/gcc-arm-none-eabi-10.3-2021.10/arm-none-eabi/include/c++/10.3.1/cmath **** 
  90:/home/hallmar/Developer/gcc-arm-none-eabi-10.3-2021.10/arm-none-eabi/include/c++/10.3.1/cmath ****   inline _GLIBCXX_CONSTEXPR long double
  91:/home/hallmar/Developer/gcc-arm-none-eabi-10.3-2021.10/arm-none-eabi/include/c++/10.3.1/cmath ****   acos(long double __x)
  92:/home/hallmar/Developer/gcc-arm-none-eabi-10.3-2021.10/arm-none-eabi/include/c++/10.3.1/cmath ****   { return __builtin_acosl(__x); }
  93:/home/hallmar/Developer/gcc-arm-none-eabi-10.3-2021.10/arm-none-eabi/include/c++/10.3.1/cmath **** #endif
  94:/home/hallmar/Developer/gcc-arm-none-eabi-10.3-2021.10/arm-none-eabi/include/c++/10.3.1/cmath **** 
  95:/home/hallmar/Developer/gcc-arm-none-eabi-10.3-2021.10/arm-none-eabi/include/c++/10.3.1/cmath ****   template<typename _Tp>
  96:/home/hallmar/Developer/gcc-arm-none-eabi-10.3-2021.10/arm-none-eabi/include/c++/10.3.1/cmath ****     inline _GLIBCXX_CONSTEXPR
ARM GAS  /tmp/ccxnfbgf.s 			page 36


  97:/home/hallmar/Developer/gcc-arm-none-eabi-10.3-2021.10/arm-none-eabi/include/c++/10.3.1/cmath ****     typename __gnu_cxx::__enable_if<__is_integer<_Tp>::__value, 
  98:/home/hallmar/Developer/gcc-arm-none-eabi-10.3-2021.10/arm-none-eabi/include/c++/10.3.1/cmath ****                                     double>::__type
  99:/home/hallmar/Developer/gcc-arm-none-eabi-10.3-2021.10/arm-none-eabi/include/c++/10.3.1/cmath ****     acos(_Tp __x)
 100:/home/hallmar/Developer/gcc-arm-none-eabi-10.3-2021.10/arm-none-eabi/include/c++/10.3.1/cmath ****     { return __builtin_acos(__x); }
 101:/home/hallmar/Developer/gcc-arm-none-eabi-10.3-2021.10/arm-none-eabi/include/c++/10.3.1/cmath **** 
 102:/home/hallmar/Developer/gcc-arm-none-eabi-10.3-2021.10/arm-none-eabi/include/c++/10.3.1/cmath ****   using ::asin;
 103:/home/hallmar/Developer/gcc-arm-none-eabi-10.3-2021.10/arm-none-eabi/include/c++/10.3.1/cmath **** 
 104:/home/hallmar/Developer/gcc-arm-none-eabi-10.3-2021.10/arm-none-eabi/include/c++/10.3.1/cmath **** #ifndef __CORRECT_ISO_CPP_MATH_H_PROTO
 105:/home/hallmar/Developer/gcc-arm-none-eabi-10.3-2021.10/arm-none-eabi/include/c++/10.3.1/cmath ****   inline _GLIBCXX_CONSTEXPR float
 106:/home/hallmar/Developer/gcc-arm-none-eabi-10.3-2021.10/arm-none-eabi/include/c++/10.3.1/cmath ****   asin(float __x)
 107:/home/hallmar/Developer/gcc-arm-none-eabi-10.3-2021.10/arm-none-eabi/include/c++/10.3.1/cmath ****   { return __builtin_asinf(__x); }
 108:/home/hallmar/Developer/gcc-arm-none-eabi-10.3-2021.10/arm-none-eabi/include/c++/10.3.1/cmath **** 
 109:/home/hallmar/Developer/gcc-arm-none-eabi-10.3-2021.10/arm-none-eabi/include/c++/10.3.1/cmath ****   inline _GLIBCXX_CONSTEXPR long double
 110:/home/hallmar/Developer/gcc-arm-none-eabi-10.3-2021.10/arm-none-eabi/include/c++/10.3.1/cmath ****   asin(long double __x)
 111:/home/hallmar/Developer/gcc-arm-none-eabi-10.3-2021.10/arm-none-eabi/include/c++/10.3.1/cmath ****   { return __builtin_asinl(__x); }
 112:/home/hallmar/Developer/gcc-arm-none-eabi-10.3-2021.10/arm-none-eabi/include/c++/10.3.1/cmath **** #endif
 113:/home/hallmar/Developer/gcc-arm-none-eabi-10.3-2021.10/arm-none-eabi/include/c++/10.3.1/cmath **** 
 114:/home/hallmar/Developer/gcc-arm-none-eabi-10.3-2021.10/arm-none-eabi/include/c++/10.3.1/cmath ****   template<typename _Tp>
 115:/home/hallmar/Developer/gcc-arm-none-eabi-10.3-2021.10/arm-none-eabi/include/c++/10.3.1/cmath ****     inline _GLIBCXX_CONSTEXPR
 116:/home/hallmar/Developer/gcc-arm-none-eabi-10.3-2021.10/arm-none-eabi/include/c++/10.3.1/cmath ****     typename __gnu_cxx::__enable_if<__is_integer<_Tp>::__value,
 117:/home/hallmar/Developer/gcc-arm-none-eabi-10.3-2021.10/arm-none-eabi/include/c++/10.3.1/cmath ****                                     double>::__type
 118:/home/hallmar/Developer/gcc-arm-none-eabi-10.3-2021.10/arm-none-eabi/include/c++/10.3.1/cmath ****     asin(_Tp __x)
 119:/home/hallmar/Developer/gcc-arm-none-eabi-10.3-2021.10/arm-none-eabi/include/c++/10.3.1/cmath ****     { return __builtin_asin(__x); }
 120:/home/hallmar/Developer/gcc-arm-none-eabi-10.3-2021.10/arm-none-eabi/include/c++/10.3.1/cmath **** 
 121:/home/hallmar/Developer/gcc-arm-none-eabi-10.3-2021.10/arm-none-eabi/include/c++/10.3.1/cmath ****   using ::atan;
 122:/home/hallmar/Developer/gcc-arm-none-eabi-10.3-2021.10/arm-none-eabi/include/c++/10.3.1/cmath **** 
 123:/home/hallmar/Developer/gcc-arm-none-eabi-10.3-2021.10/arm-none-eabi/include/c++/10.3.1/cmath **** #ifndef __CORRECT_ISO_CPP_MATH_H_PROTO
 124:/home/hallmar/Developer/gcc-arm-none-eabi-10.3-2021.10/arm-none-eabi/include/c++/10.3.1/cmath ****   inline _GLIBCXX_CONSTEXPR float
 125:/home/hallmar/Developer/gcc-arm-none-eabi-10.3-2021.10/arm-none-eabi/include/c++/10.3.1/cmath ****   atan(float __x)
 126:/home/hallmar/Developer/gcc-arm-none-eabi-10.3-2021.10/arm-none-eabi/include/c++/10.3.1/cmath ****   { return __builtin_atanf(__x); }
 127:/home/hallmar/Developer/gcc-arm-none-eabi-10.3-2021.10/arm-none-eabi/include/c++/10.3.1/cmath **** 
 128:/home/hallmar/Developer/gcc-arm-none-eabi-10.3-2021.10/arm-none-eabi/include/c++/10.3.1/cmath ****   inline _GLIBCXX_CONSTEXPR long double
 129:/home/hallmar/Developer/gcc-arm-none-eabi-10.3-2021.10/arm-none-eabi/include/c++/10.3.1/cmath ****   atan(long double __x)
 130:/home/hallmar/Developer/gcc-arm-none-eabi-10.3-2021.10/arm-none-eabi/include/c++/10.3.1/cmath ****   { return __builtin_atanl(__x); }
 131:/home/hallmar/Developer/gcc-arm-none-eabi-10.3-2021.10/arm-none-eabi/include/c++/10.3.1/cmath **** #endif
 132:/home/hallmar/Developer/gcc-arm-none-eabi-10.3-2021.10/arm-none-eabi/include/c++/10.3.1/cmath **** 
 133:/home/hallmar/Developer/gcc-arm-none-eabi-10.3-2021.10/arm-none-eabi/include/c++/10.3.1/cmath ****   template<typename _Tp>
 134:/home/hallmar/Developer/gcc-arm-none-eabi-10.3-2021.10/arm-none-eabi/include/c++/10.3.1/cmath ****     inline _GLIBCXX_CONSTEXPR
 135:/home/hallmar/Developer/gcc-arm-none-eabi-10.3-2021.10/arm-none-eabi/include/c++/10.3.1/cmath ****     typename __gnu_cxx::__enable_if<__is_integer<_Tp>::__value,
 136:/home/hallmar/Developer/gcc-arm-none-eabi-10.3-2021.10/arm-none-eabi/include/c++/10.3.1/cmath ****                                     double>::__type
 137:/home/hallmar/Developer/gcc-arm-none-eabi-10.3-2021.10/arm-none-eabi/include/c++/10.3.1/cmath ****     atan(_Tp __x)
 138:/home/hallmar/Developer/gcc-arm-none-eabi-10.3-2021.10/arm-none-eabi/include/c++/10.3.1/cmath ****     { return __builtin_atan(__x); }
 139:/home/hallmar/Developer/gcc-arm-none-eabi-10.3-2021.10/arm-none-eabi/include/c++/10.3.1/cmath **** 
 140:/home/hallmar/Developer/gcc-arm-none-eabi-10.3-2021.10/arm-none-eabi/include/c++/10.3.1/cmath ****   using ::atan2;
 141:/home/hallmar/Developer/gcc-arm-none-eabi-10.3-2021.10/arm-none-eabi/include/c++/10.3.1/cmath **** 
 142:/home/hallmar/Developer/gcc-arm-none-eabi-10.3-2021.10/arm-none-eabi/include/c++/10.3.1/cmath **** #ifndef __CORRECT_ISO_CPP_MATH_H_PROTO
 143:/home/hallmar/Developer/gcc-arm-none-eabi-10.3-2021.10/arm-none-eabi/include/c++/10.3.1/cmath ****   inline _GLIBCXX_CONSTEXPR float
 144:/home/hallmar/Developer/gcc-arm-none-eabi-10.3-2021.10/arm-none-eabi/include/c++/10.3.1/cmath ****   atan2(float __y, float __x)
 145:/home/hallmar/Developer/gcc-arm-none-eabi-10.3-2021.10/arm-none-eabi/include/c++/10.3.1/cmath ****   { return __builtin_atan2f(__y, __x); }
 146:/home/hallmar/Developer/gcc-arm-none-eabi-10.3-2021.10/arm-none-eabi/include/c++/10.3.1/cmath **** 
 147:/home/hallmar/Developer/gcc-arm-none-eabi-10.3-2021.10/arm-none-eabi/include/c++/10.3.1/cmath ****   inline _GLIBCXX_CONSTEXPR long double
 148:/home/hallmar/Developer/gcc-arm-none-eabi-10.3-2021.10/arm-none-eabi/include/c++/10.3.1/cmath ****   atan2(long double __y, long double __x)
 149:/home/hallmar/Developer/gcc-arm-none-eabi-10.3-2021.10/arm-none-eabi/include/c++/10.3.1/cmath ****   { return __builtin_atan2l(__y, __x); }
 150:/home/hallmar/Developer/gcc-arm-none-eabi-10.3-2021.10/arm-none-eabi/include/c++/10.3.1/cmath **** #endif
 151:/home/hallmar/Developer/gcc-arm-none-eabi-10.3-2021.10/arm-none-eabi/include/c++/10.3.1/cmath **** 
 152:/home/hallmar/Developer/gcc-arm-none-eabi-10.3-2021.10/arm-none-eabi/include/c++/10.3.1/cmath ****   template<typename _Tp, typename _Up>
 153:/home/hallmar/Developer/gcc-arm-none-eabi-10.3-2021.10/arm-none-eabi/include/c++/10.3.1/cmath ****     inline _GLIBCXX_CONSTEXPR
ARM GAS  /tmp/ccxnfbgf.s 			page 37


 154:/home/hallmar/Developer/gcc-arm-none-eabi-10.3-2021.10/arm-none-eabi/include/c++/10.3.1/cmath ****     typename __gnu_cxx::__promote_2<_Tp, _Up>::__type
 155:/home/hallmar/Developer/gcc-arm-none-eabi-10.3-2021.10/arm-none-eabi/include/c++/10.3.1/cmath ****     atan2(_Tp __y, _Up __x)
 156:/home/hallmar/Developer/gcc-arm-none-eabi-10.3-2021.10/arm-none-eabi/include/c++/10.3.1/cmath ****     {
 157:/home/hallmar/Developer/gcc-arm-none-eabi-10.3-2021.10/arm-none-eabi/include/c++/10.3.1/cmath ****       typedef typename __gnu_cxx::__promote_2<_Tp, _Up>::__type __type;
 158:/home/hallmar/Developer/gcc-arm-none-eabi-10.3-2021.10/arm-none-eabi/include/c++/10.3.1/cmath ****       return atan2(__type(__y), __type(__x));
 159:/home/hallmar/Developer/gcc-arm-none-eabi-10.3-2021.10/arm-none-eabi/include/c++/10.3.1/cmath ****     }
 160:/home/hallmar/Developer/gcc-arm-none-eabi-10.3-2021.10/arm-none-eabi/include/c++/10.3.1/cmath **** 
 161:/home/hallmar/Developer/gcc-arm-none-eabi-10.3-2021.10/arm-none-eabi/include/c++/10.3.1/cmath ****   using ::ceil;
 162:/home/hallmar/Developer/gcc-arm-none-eabi-10.3-2021.10/arm-none-eabi/include/c++/10.3.1/cmath **** 
 163:/home/hallmar/Developer/gcc-arm-none-eabi-10.3-2021.10/arm-none-eabi/include/c++/10.3.1/cmath **** #ifndef __CORRECT_ISO_CPP_MATH_H_PROTO
 164:/home/hallmar/Developer/gcc-arm-none-eabi-10.3-2021.10/arm-none-eabi/include/c++/10.3.1/cmath ****   inline _GLIBCXX_CONSTEXPR float
 165:/home/hallmar/Developer/gcc-arm-none-eabi-10.3-2021.10/arm-none-eabi/include/c++/10.3.1/cmath ****   ceil(float __x)
 166:/home/hallmar/Developer/gcc-arm-none-eabi-10.3-2021.10/arm-none-eabi/include/c++/10.3.1/cmath ****   { return __builtin_ceilf(__x); }
 167:/home/hallmar/Developer/gcc-arm-none-eabi-10.3-2021.10/arm-none-eabi/include/c++/10.3.1/cmath **** 
 168:/home/hallmar/Developer/gcc-arm-none-eabi-10.3-2021.10/arm-none-eabi/include/c++/10.3.1/cmath ****   inline _GLIBCXX_CONSTEXPR long double
 169:/home/hallmar/Developer/gcc-arm-none-eabi-10.3-2021.10/arm-none-eabi/include/c++/10.3.1/cmath ****   ceil(long double __x)
 170:/home/hallmar/Developer/gcc-arm-none-eabi-10.3-2021.10/arm-none-eabi/include/c++/10.3.1/cmath ****   { return __builtin_ceill(__x); }
 171:/home/hallmar/Developer/gcc-arm-none-eabi-10.3-2021.10/arm-none-eabi/include/c++/10.3.1/cmath **** #endif
 172:/home/hallmar/Developer/gcc-arm-none-eabi-10.3-2021.10/arm-none-eabi/include/c++/10.3.1/cmath **** 
 173:/home/hallmar/Developer/gcc-arm-none-eabi-10.3-2021.10/arm-none-eabi/include/c++/10.3.1/cmath ****   template<typename _Tp>
 174:/home/hallmar/Developer/gcc-arm-none-eabi-10.3-2021.10/arm-none-eabi/include/c++/10.3.1/cmath ****     inline _GLIBCXX_CONSTEXPR
 175:/home/hallmar/Developer/gcc-arm-none-eabi-10.3-2021.10/arm-none-eabi/include/c++/10.3.1/cmath ****     typename __gnu_cxx::__enable_if<__is_integer<_Tp>::__value, 
 176:/home/hallmar/Developer/gcc-arm-none-eabi-10.3-2021.10/arm-none-eabi/include/c++/10.3.1/cmath ****                                     double>::__type
 177:/home/hallmar/Developer/gcc-arm-none-eabi-10.3-2021.10/arm-none-eabi/include/c++/10.3.1/cmath ****     ceil(_Tp __x)
 178:/home/hallmar/Developer/gcc-arm-none-eabi-10.3-2021.10/arm-none-eabi/include/c++/10.3.1/cmath ****     { return __builtin_ceil(__x); }
 179:/home/hallmar/Developer/gcc-arm-none-eabi-10.3-2021.10/arm-none-eabi/include/c++/10.3.1/cmath **** 
 180:/home/hallmar/Developer/gcc-arm-none-eabi-10.3-2021.10/arm-none-eabi/include/c++/10.3.1/cmath ****   using ::cos;
 181:/home/hallmar/Developer/gcc-arm-none-eabi-10.3-2021.10/arm-none-eabi/include/c++/10.3.1/cmath **** 
 182:/home/hallmar/Developer/gcc-arm-none-eabi-10.3-2021.10/arm-none-eabi/include/c++/10.3.1/cmath **** #ifndef __CORRECT_ISO_CPP_MATH_H_PROTO
 183:/home/hallmar/Developer/gcc-arm-none-eabi-10.3-2021.10/arm-none-eabi/include/c++/10.3.1/cmath ****   inline _GLIBCXX_CONSTEXPR float
 184:/home/hallmar/Developer/gcc-arm-none-eabi-10.3-2021.10/arm-none-eabi/include/c++/10.3.1/cmath ****   cos(float __x)
 185:/home/hallmar/Developer/gcc-arm-none-eabi-10.3-2021.10/arm-none-eabi/include/c++/10.3.1/cmath ****   { return __builtin_cosf(__x); }
 186:/home/hallmar/Developer/gcc-arm-none-eabi-10.3-2021.10/arm-none-eabi/include/c++/10.3.1/cmath **** 
 187:/home/hallmar/Developer/gcc-arm-none-eabi-10.3-2021.10/arm-none-eabi/include/c++/10.3.1/cmath ****   inline _GLIBCXX_CONSTEXPR long double
 188:/home/hallmar/Developer/gcc-arm-none-eabi-10.3-2021.10/arm-none-eabi/include/c++/10.3.1/cmath ****   cos(long double __x)
 189:/home/hallmar/Developer/gcc-arm-none-eabi-10.3-2021.10/arm-none-eabi/include/c++/10.3.1/cmath ****   { return __builtin_cosl(__x); }
 190:/home/hallmar/Developer/gcc-arm-none-eabi-10.3-2021.10/arm-none-eabi/include/c++/10.3.1/cmath **** #endif
 191:/home/hallmar/Developer/gcc-arm-none-eabi-10.3-2021.10/arm-none-eabi/include/c++/10.3.1/cmath **** 
 192:/home/hallmar/Developer/gcc-arm-none-eabi-10.3-2021.10/arm-none-eabi/include/c++/10.3.1/cmath ****   template<typename _Tp>
 193:/home/hallmar/Developer/gcc-arm-none-eabi-10.3-2021.10/arm-none-eabi/include/c++/10.3.1/cmath ****     inline _GLIBCXX_CONSTEXPR
 194:/home/hallmar/Developer/gcc-arm-none-eabi-10.3-2021.10/arm-none-eabi/include/c++/10.3.1/cmath ****     typename __gnu_cxx::__enable_if<__is_integer<_Tp>::__value,
 195:/home/hallmar/Developer/gcc-arm-none-eabi-10.3-2021.10/arm-none-eabi/include/c++/10.3.1/cmath ****                                     double>::__type
 196:/home/hallmar/Developer/gcc-arm-none-eabi-10.3-2021.10/arm-none-eabi/include/c++/10.3.1/cmath ****     cos(_Tp __x)
 197:/home/hallmar/Developer/gcc-arm-none-eabi-10.3-2021.10/arm-none-eabi/include/c++/10.3.1/cmath ****     { return __builtin_cos(__x); }
 198:/home/hallmar/Developer/gcc-arm-none-eabi-10.3-2021.10/arm-none-eabi/include/c++/10.3.1/cmath **** 
 199:/home/hallmar/Developer/gcc-arm-none-eabi-10.3-2021.10/arm-none-eabi/include/c++/10.3.1/cmath ****   using ::cosh;
 200:/home/hallmar/Developer/gcc-arm-none-eabi-10.3-2021.10/arm-none-eabi/include/c++/10.3.1/cmath **** 
 201:/home/hallmar/Developer/gcc-arm-none-eabi-10.3-2021.10/arm-none-eabi/include/c++/10.3.1/cmath **** #ifndef __CORRECT_ISO_CPP_MATH_H_PROTO
 202:/home/hallmar/Developer/gcc-arm-none-eabi-10.3-2021.10/arm-none-eabi/include/c++/10.3.1/cmath ****   inline _GLIBCXX_CONSTEXPR float
 203:/home/hallmar/Developer/gcc-arm-none-eabi-10.3-2021.10/arm-none-eabi/include/c++/10.3.1/cmath ****   cosh(float __x)
 204:/home/hallmar/Developer/gcc-arm-none-eabi-10.3-2021.10/arm-none-eabi/include/c++/10.3.1/cmath ****   { return __builtin_coshf(__x); }
 205:/home/hallmar/Developer/gcc-arm-none-eabi-10.3-2021.10/arm-none-eabi/include/c++/10.3.1/cmath **** 
 206:/home/hallmar/Developer/gcc-arm-none-eabi-10.3-2021.10/arm-none-eabi/include/c++/10.3.1/cmath ****   inline _GLIBCXX_CONSTEXPR long double
 207:/home/hallmar/Developer/gcc-arm-none-eabi-10.3-2021.10/arm-none-eabi/include/c++/10.3.1/cmath ****   cosh(long double __x)
 208:/home/hallmar/Developer/gcc-arm-none-eabi-10.3-2021.10/arm-none-eabi/include/c++/10.3.1/cmath ****   { return __builtin_coshl(__x); }
 209:/home/hallmar/Developer/gcc-arm-none-eabi-10.3-2021.10/arm-none-eabi/include/c++/10.3.1/cmath **** #endif
 210:/home/hallmar/Developer/gcc-arm-none-eabi-10.3-2021.10/arm-none-eabi/include/c++/10.3.1/cmath **** 
ARM GAS  /tmp/ccxnfbgf.s 			page 38


 211:/home/hallmar/Developer/gcc-arm-none-eabi-10.3-2021.10/arm-none-eabi/include/c++/10.3.1/cmath ****   template<typename _Tp>
 212:/home/hallmar/Developer/gcc-arm-none-eabi-10.3-2021.10/arm-none-eabi/include/c++/10.3.1/cmath ****     inline _GLIBCXX_CONSTEXPR
 213:/home/hallmar/Developer/gcc-arm-none-eabi-10.3-2021.10/arm-none-eabi/include/c++/10.3.1/cmath ****     typename __gnu_cxx::__enable_if<__is_integer<_Tp>::__value,
 214:/home/hallmar/Developer/gcc-arm-none-eabi-10.3-2021.10/arm-none-eabi/include/c++/10.3.1/cmath ****                                     double>::__type
 215:/home/hallmar/Developer/gcc-arm-none-eabi-10.3-2021.10/arm-none-eabi/include/c++/10.3.1/cmath ****     cosh(_Tp __x)
 216:/home/hallmar/Developer/gcc-arm-none-eabi-10.3-2021.10/arm-none-eabi/include/c++/10.3.1/cmath ****     { return __builtin_cosh(__x); }
 217:/home/hallmar/Developer/gcc-arm-none-eabi-10.3-2021.10/arm-none-eabi/include/c++/10.3.1/cmath **** 
 218:/home/hallmar/Developer/gcc-arm-none-eabi-10.3-2021.10/arm-none-eabi/include/c++/10.3.1/cmath ****   using ::exp;
 219:/home/hallmar/Developer/gcc-arm-none-eabi-10.3-2021.10/arm-none-eabi/include/c++/10.3.1/cmath **** 
 220:/home/hallmar/Developer/gcc-arm-none-eabi-10.3-2021.10/arm-none-eabi/include/c++/10.3.1/cmath **** #ifndef __CORRECT_ISO_CPP_MATH_H_PROTO
 221:/home/hallmar/Developer/gcc-arm-none-eabi-10.3-2021.10/arm-none-eabi/include/c++/10.3.1/cmath ****   inline _GLIBCXX_CONSTEXPR float
 222:/home/hallmar/Developer/gcc-arm-none-eabi-10.3-2021.10/arm-none-eabi/include/c++/10.3.1/cmath ****   exp(float __x)
 223:/home/hallmar/Developer/gcc-arm-none-eabi-10.3-2021.10/arm-none-eabi/include/c++/10.3.1/cmath ****   { return __builtin_expf(__x); }
 224:/home/hallmar/Developer/gcc-arm-none-eabi-10.3-2021.10/arm-none-eabi/include/c++/10.3.1/cmath **** 
 225:/home/hallmar/Developer/gcc-arm-none-eabi-10.3-2021.10/arm-none-eabi/include/c++/10.3.1/cmath ****   inline _GLIBCXX_CONSTEXPR long double
 226:/home/hallmar/Developer/gcc-arm-none-eabi-10.3-2021.10/arm-none-eabi/include/c++/10.3.1/cmath ****   exp(long double __x)
 227:/home/hallmar/Developer/gcc-arm-none-eabi-10.3-2021.10/arm-none-eabi/include/c++/10.3.1/cmath ****   { return __builtin_expl(__x); }
 228:/home/hallmar/Developer/gcc-arm-none-eabi-10.3-2021.10/arm-none-eabi/include/c++/10.3.1/cmath **** #endif
 229:/home/hallmar/Developer/gcc-arm-none-eabi-10.3-2021.10/arm-none-eabi/include/c++/10.3.1/cmath **** 
 230:/home/hallmar/Developer/gcc-arm-none-eabi-10.3-2021.10/arm-none-eabi/include/c++/10.3.1/cmath ****   template<typename _Tp>
 231:/home/hallmar/Developer/gcc-arm-none-eabi-10.3-2021.10/arm-none-eabi/include/c++/10.3.1/cmath ****     inline _GLIBCXX_CONSTEXPR
 232:/home/hallmar/Developer/gcc-arm-none-eabi-10.3-2021.10/arm-none-eabi/include/c++/10.3.1/cmath ****     typename __gnu_cxx::__enable_if<__is_integer<_Tp>::__value,
 233:/home/hallmar/Developer/gcc-arm-none-eabi-10.3-2021.10/arm-none-eabi/include/c++/10.3.1/cmath ****                                     double>::__type
 234:/home/hallmar/Developer/gcc-arm-none-eabi-10.3-2021.10/arm-none-eabi/include/c++/10.3.1/cmath ****     exp(_Tp __x)
 235:/home/hallmar/Developer/gcc-arm-none-eabi-10.3-2021.10/arm-none-eabi/include/c++/10.3.1/cmath ****     { return __builtin_exp(__x); }
 236:/home/hallmar/Developer/gcc-arm-none-eabi-10.3-2021.10/arm-none-eabi/include/c++/10.3.1/cmath **** 
 237:/home/hallmar/Developer/gcc-arm-none-eabi-10.3-2021.10/arm-none-eabi/include/c++/10.3.1/cmath ****   using ::fabs;
 238:/home/hallmar/Developer/gcc-arm-none-eabi-10.3-2021.10/arm-none-eabi/include/c++/10.3.1/cmath **** 
 239:/home/hallmar/Developer/gcc-arm-none-eabi-10.3-2021.10/arm-none-eabi/include/c++/10.3.1/cmath **** #ifndef __CORRECT_ISO_CPP_MATH_H_PROTO
 240:/home/hallmar/Developer/gcc-arm-none-eabi-10.3-2021.10/arm-none-eabi/include/c++/10.3.1/cmath ****   inline _GLIBCXX_CONSTEXPR float
 241:/home/hallmar/Developer/gcc-arm-none-eabi-10.3-2021.10/arm-none-eabi/include/c++/10.3.1/cmath ****   fabs(float __x)
 242:/home/hallmar/Developer/gcc-arm-none-eabi-10.3-2021.10/arm-none-eabi/include/c++/10.3.1/cmath ****   { return __builtin_fabsf(__x); }
 243:/home/hallmar/Developer/gcc-arm-none-eabi-10.3-2021.10/arm-none-eabi/include/c++/10.3.1/cmath **** 
 244:/home/hallmar/Developer/gcc-arm-none-eabi-10.3-2021.10/arm-none-eabi/include/c++/10.3.1/cmath ****   inline _GLIBCXX_CONSTEXPR long double
 245:/home/hallmar/Developer/gcc-arm-none-eabi-10.3-2021.10/arm-none-eabi/include/c++/10.3.1/cmath ****   fabs(long double __x)
 246:/home/hallmar/Developer/gcc-arm-none-eabi-10.3-2021.10/arm-none-eabi/include/c++/10.3.1/cmath ****   { return __builtin_fabsl(__x); }
 247:/home/hallmar/Developer/gcc-arm-none-eabi-10.3-2021.10/arm-none-eabi/include/c++/10.3.1/cmath **** #endif
 248:/home/hallmar/Developer/gcc-arm-none-eabi-10.3-2021.10/arm-none-eabi/include/c++/10.3.1/cmath **** 
 249:/home/hallmar/Developer/gcc-arm-none-eabi-10.3-2021.10/arm-none-eabi/include/c++/10.3.1/cmath ****   template<typename _Tp>
 250:/home/hallmar/Developer/gcc-arm-none-eabi-10.3-2021.10/arm-none-eabi/include/c++/10.3.1/cmath ****     inline _GLIBCXX_CONSTEXPR
 251:/home/hallmar/Developer/gcc-arm-none-eabi-10.3-2021.10/arm-none-eabi/include/c++/10.3.1/cmath ****     typename __gnu_cxx::__enable_if<__is_integer<_Tp>::__value,
 252:/home/hallmar/Developer/gcc-arm-none-eabi-10.3-2021.10/arm-none-eabi/include/c++/10.3.1/cmath ****                                     double>::__type
 253:/home/hallmar/Developer/gcc-arm-none-eabi-10.3-2021.10/arm-none-eabi/include/c++/10.3.1/cmath ****     fabs(_Tp __x)
 254:/home/hallmar/Developer/gcc-arm-none-eabi-10.3-2021.10/arm-none-eabi/include/c++/10.3.1/cmath ****     { return __builtin_fabs(__x); }
 255:/home/hallmar/Developer/gcc-arm-none-eabi-10.3-2021.10/arm-none-eabi/include/c++/10.3.1/cmath **** 
 256:/home/hallmar/Developer/gcc-arm-none-eabi-10.3-2021.10/arm-none-eabi/include/c++/10.3.1/cmath ****   using ::floor;
 257:/home/hallmar/Developer/gcc-arm-none-eabi-10.3-2021.10/arm-none-eabi/include/c++/10.3.1/cmath **** 
 258:/home/hallmar/Developer/gcc-arm-none-eabi-10.3-2021.10/arm-none-eabi/include/c++/10.3.1/cmath **** #ifndef __CORRECT_ISO_CPP_MATH_H_PROTO
 259:/home/hallmar/Developer/gcc-arm-none-eabi-10.3-2021.10/arm-none-eabi/include/c++/10.3.1/cmath ****   inline _GLIBCXX_CONSTEXPR float
 260:/home/hallmar/Developer/gcc-arm-none-eabi-10.3-2021.10/arm-none-eabi/include/c++/10.3.1/cmath ****   floor(float __x)
 261:/home/hallmar/Developer/gcc-arm-none-eabi-10.3-2021.10/arm-none-eabi/include/c++/10.3.1/cmath ****   { return __builtin_floorf(__x); }
 262:/home/hallmar/Developer/gcc-arm-none-eabi-10.3-2021.10/arm-none-eabi/include/c++/10.3.1/cmath **** 
 263:/home/hallmar/Developer/gcc-arm-none-eabi-10.3-2021.10/arm-none-eabi/include/c++/10.3.1/cmath ****   inline _GLIBCXX_CONSTEXPR long double
 264:/home/hallmar/Developer/gcc-arm-none-eabi-10.3-2021.10/arm-none-eabi/include/c++/10.3.1/cmath ****   floor(long double __x)
 265:/home/hallmar/Developer/gcc-arm-none-eabi-10.3-2021.10/arm-none-eabi/include/c++/10.3.1/cmath ****   { return __builtin_floorl(__x); }
 266:/home/hallmar/Developer/gcc-arm-none-eabi-10.3-2021.10/arm-none-eabi/include/c++/10.3.1/cmath **** #endif
 267:/home/hallmar/Developer/gcc-arm-none-eabi-10.3-2021.10/arm-none-eabi/include/c++/10.3.1/cmath **** 
ARM GAS  /tmp/ccxnfbgf.s 			page 39


 268:/home/hallmar/Developer/gcc-arm-none-eabi-10.3-2021.10/arm-none-eabi/include/c++/10.3.1/cmath ****   template<typename _Tp>
 269:/home/hallmar/Developer/gcc-arm-none-eabi-10.3-2021.10/arm-none-eabi/include/c++/10.3.1/cmath ****     inline _GLIBCXX_CONSTEXPR
 270:/home/hallmar/Developer/gcc-arm-none-eabi-10.3-2021.10/arm-none-eabi/include/c++/10.3.1/cmath ****     typename __gnu_cxx::__enable_if<__is_integer<_Tp>::__value,
 271:/home/hallmar/Developer/gcc-arm-none-eabi-10.3-2021.10/arm-none-eabi/include/c++/10.3.1/cmath ****                                     double>::__type
 272:/home/hallmar/Developer/gcc-arm-none-eabi-10.3-2021.10/arm-none-eabi/include/c++/10.3.1/cmath ****     floor(_Tp __x)
 273:/home/hallmar/Developer/gcc-arm-none-eabi-10.3-2021.10/arm-none-eabi/include/c++/10.3.1/cmath ****     { return __builtin_floor(__x); }
 274:/home/hallmar/Developer/gcc-arm-none-eabi-10.3-2021.10/arm-none-eabi/include/c++/10.3.1/cmath **** 
 275:/home/hallmar/Developer/gcc-arm-none-eabi-10.3-2021.10/arm-none-eabi/include/c++/10.3.1/cmath ****   using ::fmod;
 276:/home/hallmar/Developer/gcc-arm-none-eabi-10.3-2021.10/arm-none-eabi/include/c++/10.3.1/cmath **** 
 277:/home/hallmar/Developer/gcc-arm-none-eabi-10.3-2021.10/arm-none-eabi/include/c++/10.3.1/cmath **** #ifndef __CORRECT_ISO_CPP_MATH_H_PROTO
 278:/home/hallmar/Developer/gcc-arm-none-eabi-10.3-2021.10/arm-none-eabi/include/c++/10.3.1/cmath ****   inline _GLIBCXX_CONSTEXPR float
 279:/home/hallmar/Developer/gcc-arm-none-eabi-10.3-2021.10/arm-none-eabi/include/c++/10.3.1/cmath ****   fmod(float __x, float __y)
 280:/home/hallmar/Developer/gcc-arm-none-eabi-10.3-2021.10/arm-none-eabi/include/c++/10.3.1/cmath ****   { return __builtin_fmodf(__x, __y); }
 281:/home/hallmar/Developer/gcc-arm-none-eabi-10.3-2021.10/arm-none-eabi/include/c++/10.3.1/cmath **** 
 282:/home/hallmar/Developer/gcc-arm-none-eabi-10.3-2021.10/arm-none-eabi/include/c++/10.3.1/cmath ****   inline _GLIBCXX_CONSTEXPR long double
 283:/home/hallmar/Developer/gcc-arm-none-eabi-10.3-2021.10/arm-none-eabi/include/c++/10.3.1/cmath ****   fmod(long double __x, long double __y)
 284:/home/hallmar/Developer/gcc-arm-none-eabi-10.3-2021.10/arm-none-eabi/include/c++/10.3.1/cmath ****   { return __builtin_fmodl(__x, __y); }
 285:/home/hallmar/Developer/gcc-arm-none-eabi-10.3-2021.10/arm-none-eabi/include/c++/10.3.1/cmath **** #endif
 286:/home/hallmar/Developer/gcc-arm-none-eabi-10.3-2021.10/arm-none-eabi/include/c++/10.3.1/cmath **** 
 287:/home/hallmar/Developer/gcc-arm-none-eabi-10.3-2021.10/arm-none-eabi/include/c++/10.3.1/cmath ****   template<typename _Tp, typename _Up>
 288:/home/hallmar/Developer/gcc-arm-none-eabi-10.3-2021.10/arm-none-eabi/include/c++/10.3.1/cmath ****     inline _GLIBCXX_CONSTEXPR
 289:/home/hallmar/Developer/gcc-arm-none-eabi-10.3-2021.10/arm-none-eabi/include/c++/10.3.1/cmath ****     typename __gnu_cxx::__promote_2<_Tp, _Up>::__type
 290:/home/hallmar/Developer/gcc-arm-none-eabi-10.3-2021.10/arm-none-eabi/include/c++/10.3.1/cmath ****     fmod(_Tp __x, _Up __y)
 291:/home/hallmar/Developer/gcc-arm-none-eabi-10.3-2021.10/arm-none-eabi/include/c++/10.3.1/cmath ****     {
 292:/home/hallmar/Developer/gcc-arm-none-eabi-10.3-2021.10/arm-none-eabi/include/c++/10.3.1/cmath ****       typedef typename __gnu_cxx::__promote_2<_Tp, _Up>::__type __type;
 293:/home/hallmar/Developer/gcc-arm-none-eabi-10.3-2021.10/arm-none-eabi/include/c++/10.3.1/cmath ****       return fmod(__type(__x), __type(__y));
 294:/home/hallmar/Developer/gcc-arm-none-eabi-10.3-2021.10/arm-none-eabi/include/c++/10.3.1/cmath ****     }
 295:/home/hallmar/Developer/gcc-arm-none-eabi-10.3-2021.10/arm-none-eabi/include/c++/10.3.1/cmath **** 
 296:/home/hallmar/Developer/gcc-arm-none-eabi-10.3-2021.10/arm-none-eabi/include/c++/10.3.1/cmath ****   using ::frexp;
 297:/home/hallmar/Developer/gcc-arm-none-eabi-10.3-2021.10/arm-none-eabi/include/c++/10.3.1/cmath **** 
 298:/home/hallmar/Developer/gcc-arm-none-eabi-10.3-2021.10/arm-none-eabi/include/c++/10.3.1/cmath **** #ifndef __CORRECT_ISO_CPP_MATH_H_PROTO
 299:/home/hallmar/Developer/gcc-arm-none-eabi-10.3-2021.10/arm-none-eabi/include/c++/10.3.1/cmath ****   inline float
 300:/home/hallmar/Developer/gcc-arm-none-eabi-10.3-2021.10/arm-none-eabi/include/c++/10.3.1/cmath ****   frexp(float __x, int* __exp)
 301:/home/hallmar/Developer/gcc-arm-none-eabi-10.3-2021.10/arm-none-eabi/include/c++/10.3.1/cmath ****   { return __builtin_frexpf(__x, __exp); }
 302:/home/hallmar/Developer/gcc-arm-none-eabi-10.3-2021.10/arm-none-eabi/include/c++/10.3.1/cmath **** 
 303:/home/hallmar/Developer/gcc-arm-none-eabi-10.3-2021.10/arm-none-eabi/include/c++/10.3.1/cmath ****   inline long double
 304:/home/hallmar/Developer/gcc-arm-none-eabi-10.3-2021.10/arm-none-eabi/include/c++/10.3.1/cmath ****   frexp(long double __x, int* __exp)
 305:/home/hallmar/Developer/gcc-arm-none-eabi-10.3-2021.10/arm-none-eabi/include/c++/10.3.1/cmath ****   { return __builtin_frexpl(__x, __exp); }
 306:/home/hallmar/Developer/gcc-arm-none-eabi-10.3-2021.10/arm-none-eabi/include/c++/10.3.1/cmath **** #endif
 307:/home/hallmar/Developer/gcc-arm-none-eabi-10.3-2021.10/arm-none-eabi/include/c++/10.3.1/cmath **** 
 308:/home/hallmar/Developer/gcc-arm-none-eabi-10.3-2021.10/arm-none-eabi/include/c++/10.3.1/cmath ****   template<typename _Tp>
 309:/home/hallmar/Developer/gcc-arm-none-eabi-10.3-2021.10/arm-none-eabi/include/c++/10.3.1/cmath ****     inline _GLIBCXX_CONSTEXPR
 310:/home/hallmar/Developer/gcc-arm-none-eabi-10.3-2021.10/arm-none-eabi/include/c++/10.3.1/cmath ****     typename __gnu_cxx::__enable_if<__is_integer<_Tp>::__value, 
 311:/home/hallmar/Developer/gcc-arm-none-eabi-10.3-2021.10/arm-none-eabi/include/c++/10.3.1/cmath ****                                     double>::__type
 312:/home/hallmar/Developer/gcc-arm-none-eabi-10.3-2021.10/arm-none-eabi/include/c++/10.3.1/cmath ****     frexp(_Tp __x, int* __exp)
 313:/home/hallmar/Developer/gcc-arm-none-eabi-10.3-2021.10/arm-none-eabi/include/c++/10.3.1/cmath ****     { return __builtin_frexp(__x, __exp); }
 314:/home/hallmar/Developer/gcc-arm-none-eabi-10.3-2021.10/arm-none-eabi/include/c++/10.3.1/cmath **** 
 315:/home/hallmar/Developer/gcc-arm-none-eabi-10.3-2021.10/arm-none-eabi/include/c++/10.3.1/cmath ****   using ::ldexp;
 316:/home/hallmar/Developer/gcc-arm-none-eabi-10.3-2021.10/arm-none-eabi/include/c++/10.3.1/cmath **** 
 317:/home/hallmar/Developer/gcc-arm-none-eabi-10.3-2021.10/arm-none-eabi/include/c++/10.3.1/cmath **** #ifndef __CORRECT_ISO_CPP_MATH_H_PROTO
 318:/home/hallmar/Developer/gcc-arm-none-eabi-10.3-2021.10/arm-none-eabi/include/c++/10.3.1/cmath ****   inline _GLIBCXX_CONSTEXPR float
 319:/home/hallmar/Developer/gcc-arm-none-eabi-10.3-2021.10/arm-none-eabi/include/c++/10.3.1/cmath ****   ldexp(float __x, int __exp)
 320:/home/hallmar/Developer/gcc-arm-none-eabi-10.3-2021.10/arm-none-eabi/include/c++/10.3.1/cmath ****   { return __builtin_ldexpf(__x, __exp); }
 321:/home/hallmar/Developer/gcc-arm-none-eabi-10.3-2021.10/arm-none-eabi/include/c++/10.3.1/cmath **** 
 322:/home/hallmar/Developer/gcc-arm-none-eabi-10.3-2021.10/arm-none-eabi/include/c++/10.3.1/cmath ****   inline _GLIBCXX_CONSTEXPR long double
 323:/home/hallmar/Developer/gcc-arm-none-eabi-10.3-2021.10/arm-none-eabi/include/c++/10.3.1/cmath ****   ldexp(long double __x, int __exp)
 324:/home/hallmar/Developer/gcc-arm-none-eabi-10.3-2021.10/arm-none-eabi/include/c++/10.3.1/cmath ****   { return __builtin_ldexpl(__x, __exp); }
ARM GAS  /tmp/ccxnfbgf.s 			page 40


 325:/home/hallmar/Developer/gcc-arm-none-eabi-10.3-2021.10/arm-none-eabi/include/c++/10.3.1/cmath **** #endif
 326:/home/hallmar/Developer/gcc-arm-none-eabi-10.3-2021.10/arm-none-eabi/include/c++/10.3.1/cmath **** 
 327:/home/hallmar/Developer/gcc-arm-none-eabi-10.3-2021.10/arm-none-eabi/include/c++/10.3.1/cmath ****   template<typename _Tp>
 328:/home/hallmar/Developer/gcc-arm-none-eabi-10.3-2021.10/arm-none-eabi/include/c++/10.3.1/cmath ****     inline _GLIBCXX_CONSTEXPR
 329:/home/hallmar/Developer/gcc-arm-none-eabi-10.3-2021.10/arm-none-eabi/include/c++/10.3.1/cmath ****     typename __gnu_cxx::__enable_if<__is_integer<_Tp>::__value, 
 330:/home/hallmar/Developer/gcc-arm-none-eabi-10.3-2021.10/arm-none-eabi/include/c++/10.3.1/cmath ****                                     double>::__type
 331:/home/hallmar/Developer/gcc-arm-none-eabi-10.3-2021.10/arm-none-eabi/include/c++/10.3.1/cmath ****     ldexp(_Tp __x, int __exp)
 332:/home/hallmar/Developer/gcc-arm-none-eabi-10.3-2021.10/arm-none-eabi/include/c++/10.3.1/cmath ****     { return __builtin_ldexp(__x, __exp); }
 333:/home/hallmar/Developer/gcc-arm-none-eabi-10.3-2021.10/arm-none-eabi/include/c++/10.3.1/cmath **** 
 334:/home/hallmar/Developer/gcc-arm-none-eabi-10.3-2021.10/arm-none-eabi/include/c++/10.3.1/cmath ****   using ::log;
 335:/home/hallmar/Developer/gcc-arm-none-eabi-10.3-2021.10/arm-none-eabi/include/c++/10.3.1/cmath **** 
 336:/home/hallmar/Developer/gcc-arm-none-eabi-10.3-2021.10/arm-none-eabi/include/c++/10.3.1/cmath **** #ifndef __CORRECT_ISO_CPP_MATH_H_PROTO
 337:/home/hallmar/Developer/gcc-arm-none-eabi-10.3-2021.10/arm-none-eabi/include/c++/10.3.1/cmath ****   inline _GLIBCXX_CONSTEXPR float
 338:/home/hallmar/Developer/gcc-arm-none-eabi-10.3-2021.10/arm-none-eabi/include/c++/10.3.1/cmath ****   log(float __x)
 339:/home/hallmar/Developer/gcc-arm-none-eabi-10.3-2021.10/arm-none-eabi/include/c++/10.3.1/cmath ****   { return __builtin_logf(__x); }
 340:/home/hallmar/Developer/gcc-arm-none-eabi-10.3-2021.10/arm-none-eabi/include/c++/10.3.1/cmath **** 
 341:/home/hallmar/Developer/gcc-arm-none-eabi-10.3-2021.10/arm-none-eabi/include/c++/10.3.1/cmath ****   inline _GLIBCXX_CONSTEXPR long double
 342:/home/hallmar/Developer/gcc-arm-none-eabi-10.3-2021.10/arm-none-eabi/include/c++/10.3.1/cmath ****   log(long double __x)
 343:/home/hallmar/Developer/gcc-arm-none-eabi-10.3-2021.10/arm-none-eabi/include/c++/10.3.1/cmath ****   { return __builtin_logl(__x); }
 344:/home/hallmar/Developer/gcc-arm-none-eabi-10.3-2021.10/arm-none-eabi/include/c++/10.3.1/cmath **** #endif
 345:/home/hallmar/Developer/gcc-arm-none-eabi-10.3-2021.10/arm-none-eabi/include/c++/10.3.1/cmath **** 
 346:/home/hallmar/Developer/gcc-arm-none-eabi-10.3-2021.10/arm-none-eabi/include/c++/10.3.1/cmath ****   template<typename _Tp>
 347:/home/hallmar/Developer/gcc-arm-none-eabi-10.3-2021.10/arm-none-eabi/include/c++/10.3.1/cmath ****     inline _GLIBCXX_CONSTEXPR
 348:/home/hallmar/Developer/gcc-arm-none-eabi-10.3-2021.10/arm-none-eabi/include/c++/10.3.1/cmath ****     typename __gnu_cxx::__enable_if<__is_integer<_Tp>::__value, 
 349:/home/hallmar/Developer/gcc-arm-none-eabi-10.3-2021.10/arm-none-eabi/include/c++/10.3.1/cmath ****                                     double>::__type
 350:/home/hallmar/Developer/gcc-arm-none-eabi-10.3-2021.10/arm-none-eabi/include/c++/10.3.1/cmath ****     log(_Tp __x)
 351:/home/hallmar/Developer/gcc-arm-none-eabi-10.3-2021.10/arm-none-eabi/include/c++/10.3.1/cmath ****     { return __builtin_log(__x); }
 352:/home/hallmar/Developer/gcc-arm-none-eabi-10.3-2021.10/arm-none-eabi/include/c++/10.3.1/cmath **** 
 353:/home/hallmar/Developer/gcc-arm-none-eabi-10.3-2021.10/arm-none-eabi/include/c++/10.3.1/cmath ****   using ::log10;
 354:/home/hallmar/Developer/gcc-arm-none-eabi-10.3-2021.10/arm-none-eabi/include/c++/10.3.1/cmath **** 
 355:/home/hallmar/Developer/gcc-arm-none-eabi-10.3-2021.10/arm-none-eabi/include/c++/10.3.1/cmath **** #ifndef __CORRECT_ISO_CPP_MATH_H_PROTO
 356:/home/hallmar/Developer/gcc-arm-none-eabi-10.3-2021.10/arm-none-eabi/include/c++/10.3.1/cmath ****   inline _GLIBCXX_CONSTEXPR float
 357:/home/hallmar/Developer/gcc-arm-none-eabi-10.3-2021.10/arm-none-eabi/include/c++/10.3.1/cmath ****   log10(float __x)
 358:/home/hallmar/Developer/gcc-arm-none-eabi-10.3-2021.10/arm-none-eabi/include/c++/10.3.1/cmath ****   { return __builtin_log10f(__x); }
 359:/home/hallmar/Developer/gcc-arm-none-eabi-10.3-2021.10/arm-none-eabi/include/c++/10.3.1/cmath **** 
 360:/home/hallmar/Developer/gcc-arm-none-eabi-10.3-2021.10/arm-none-eabi/include/c++/10.3.1/cmath ****   inline _GLIBCXX_CONSTEXPR long double
 361:/home/hallmar/Developer/gcc-arm-none-eabi-10.3-2021.10/arm-none-eabi/include/c++/10.3.1/cmath ****   log10(long double __x)
 362:/home/hallmar/Developer/gcc-arm-none-eabi-10.3-2021.10/arm-none-eabi/include/c++/10.3.1/cmath ****   { return __builtin_log10l(__x); }
 363:/home/hallmar/Developer/gcc-arm-none-eabi-10.3-2021.10/arm-none-eabi/include/c++/10.3.1/cmath **** #endif
 364:/home/hallmar/Developer/gcc-arm-none-eabi-10.3-2021.10/arm-none-eabi/include/c++/10.3.1/cmath **** 
 365:/home/hallmar/Developer/gcc-arm-none-eabi-10.3-2021.10/arm-none-eabi/include/c++/10.3.1/cmath ****   template<typename _Tp>
 366:/home/hallmar/Developer/gcc-arm-none-eabi-10.3-2021.10/arm-none-eabi/include/c++/10.3.1/cmath ****     inline _GLIBCXX_CONSTEXPR
 367:/home/hallmar/Developer/gcc-arm-none-eabi-10.3-2021.10/arm-none-eabi/include/c++/10.3.1/cmath ****     typename __gnu_cxx::__enable_if<__is_integer<_Tp>::__value,
 368:/home/hallmar/Developer/gcc-arm-none-eabi-10.3-2021.10/arm-none-eabi/include/c++/10.3.1/cmath ****                                     double>::__type
 369:/home/hallmar/Developer/gcc-arm-none-eabi-10.3-2021.10/arm-none-eabi/include/c++/10.3.1/cmath ****     log10(_Tp __x)
 370:/home/hallmar/Developer/gcc-arm-none-eabi-10.3-2021.10/arm-none-eabi/include/c++/10.3.1/cmath ****     { return __builtin_log10(__x); }
 371:/home/hallmar/Developer/gcc-arm-none-eabi-10.3-2021.10/arm-none-eabi/include/c++/10.3.1/cmath **** 
 372:/home/hallmar/Developer/gcc-arm-none-eabi-10.3-2021.10/arm-none-eabi/include/c++/10.3.1/cmath ****   using ::modf;
 373:/home/hallmar/Developer/gcc-arm-none-eabi-10.3-2021.10/arm-none-eabi/include/c++/10.3.1/cmath **** 
 374:/home/hallmar/Developer/gcc-arm-none-eabi-10.3-2021.10/arm-none-eabi/include/c++/10.3.1/cmath **** #ifndef __CORRECT_ISO_CPP_MATH_H_PROTO
 375:/home/hallmar/Developer/gcc-arm-none-eabi-10.3-2021.10/arm-none-eabi/include/c++/10.3.1/cmath ****   inline float
 376:/home/hallmar/Developer/gcc-arm-none-eabi-10.3-2021.10/arm-none-eabi/include/c++/10.3.1/cmath ****   modf(float __x, float* __iptr)
 377:/home/hallmar/Developer/gcc-arm-none-eabi-10.3-2021.10/arm-none-eabi/include/c++/10.3.1/cmath ****   { return __builtin_modff(__x, __iptr); }
 378:/home/hallmar/Developer/gcc-arm-none-eabi-10.3-2021.10/arm-none-eabi/include/c++/10.3.1/cmath **** 
 379:/home/hallmar/Developer/gcc-arm-none-eabi-10.3-2021.10/arm-none-eabi/include/c++/10.3.1/cmath ****   inline long double
 380:/home/hallmar/Developer/gcc-arm-none-eabi-10.3-2021.10/arm-none-eabi/include/c++/10.3.1/cmath ****   modf(long double __x, long double* __iptr)
 381:/home/hallmar/Developer/gcc-arm-none-eabi-10.3-2021.10/arm-none-eabi/include/c++/10.3.1/cmath ****   { return __builtin_modfl(__x, __iptr); }
ARM GAS  /tmp/ccxnfbgf.s 			page 41


 382:/home/hallmar/Developer/gcc-arm-none-eabi-10.3-2021.10/arm-none-eabi/include/c++/10.3.1/cmath **** #endif
 383:/home/hallmar/Developer/gcc-arm-none-eabi-10.3-2021.10/arm-none-eabi/include/c++/10.3.1/cmath **** 
 384:/home/hallmar/Developer/gcc-arm-none-eabi-10.3-2021.10/arm-none-eabi/include/c++/10.3.1/cmath ****   using ::pow;
 385:/home/hallmar/Developer/gcc-arm-none-eabi-10.3-2021.10/arm-none-eabi/include/c++/10.3.1/cmath **** 
 386:/home/hallmar/Developer/gcc-arm-none-eabi-10.3-2021.10/arm-none-eabi/include/c++/10.3.1/cmath **** #ifndef __CORRECT_ISO_CPP_MATH_H_PROTO
 387:/home/hallmar/Developer/gcc-arm-none-eabi-10.3-2021.10/arm-none-eabi/include/c++/10.3.1/cmath ****   inline _GLIBCXX_CONSTEXPR float
 388:/home/hallmar/Developer/gcc-arm-none-eabi-10.3-2021.10/arm-none-eabi/include/c++/10.3.1/cmath ****   pow(float __x, float __y)
 389:/home/hallmar/Developer/gcc-arm-none-eabi-10.3-2021.10/arm-none-eabi/include/c++/10.3.1/cmath ****   { return __builtin_powf(__x, __y); }
 390:/home/hallmar/Developer/gcc-arm-none-eabi-10.3-2021.10/arm-none-eabi/include/c++/10.3.1/cmath **** 
 391:/home/hallmar/Developer/gcc-arm-none-eabi-10.3-2021.10/arm-none-eabi/include/c++/10.3.1/cmath ****   inline _GLIBCXX_CONSTEXPR long double
 392:/home/hallmar/Developer/gcc-arm-none-eabi-10.3-2021.10/arm-none-eabi/include/c++/10.3.1/cmath ****   pow(long double __x, long double __y)
 393:/home/hallmar/Developer/gcc-arm-none-eabi-10.3-2021.10/arm-none-eabi/include/c++/10.3.1/cmath ****   { return __builtin_powl(__x, __y); }
 394:/home/hallmar/Developer/gcc-arm-none-eabi-10.3-2021.10/arm-none-eabi/include/c++/10.3.1/cmath **** 
 395:/home/hallmar/Developer/gcc-arm-none-eabi-10.3-2021.10/arm-none-eabi/include/c++/10.3.1/cmath **** #if __cplusplus < 201103L
 396:/home/hallmar/Developer/gcc-arm-none-eabi-10.3-2021.10/arm-none-eabi/include/c++/10.3.1/cmath ****   // _GLIBCXX_RESOLVE_LIB_DEFECTS
 397:/home/hallmar/Developer/gcc-arm-none-eabi-10.3-2021.10/arm-none-eabi/include/c++/10.3.1/cmath ****   // DR 550. What should the return type of pow(float,int) be?
 398:/home/hallmar/Developer/gcc-arm-none-eabi-10.3-2021.10/arm-none-eabi/include/c++/10.3.1/cmath ****   inline double
 399:/home/hallmar/Developer/gcc-arm-none-eabi-10.3-2021.10/arm-none-eabi/include/c++/10.3.1/cmath ****   pow(double __x, int __i)
 400:/home/hallmar/Developer/gcc-arm-none-eabi-10.3-2021.10/arm-none-eabi/include/c++/10.3.1/cmath ****   { return __builtin_powi(__x, __i); }
 401:/home/hallmar/Developer/gcc-arm-none-eabi-10.3-2021.10/arm-none-eabi/include/c++/10.3.1/cmath **** 
 402:/home/hallmar/Developer/gcc-arm-none-eabi-10.3-2021.10/arm-none-eabi/include/c++/10.3.1/cmath ****   inline float
 403:/home/hallmar/Developer/gcc-arm-none-eabi-10.3-2021.10/arm-none-eabi/include/c++/10.3.1/cmath ****   pow(float __x, int __n)
 404:/home/hallmar/Developer/gcc-arm-none-eabi-10.3-2021.10/arm-none-eabi/include/c++/10.3.1/cmath ****   { return __builtin_powif(__x, __n); }
 405:/home/hallmar/Developer/gcc-arm-none-eabi-10.3-2021.10/arm-none-eabi/include/c++/10.3.1/cmath **** 
 406:/home/hallmar/Developer/gcc-arm-none-eabi-10.3-2021.10/arm-none-eabi/include/c++/10.3.1/cmath ****   inline long double
 407:/home/hallmar/Developer/gcc-arm-none-eabi-10.3-2021.10/arm-none-eabi/include/c++/10.3.1/cmath ****   pow(long double __x, int __n)
 408:/home/hallmar/Developer/gcc-arm-none-eabi-10.3-2021.10/arm-none-eabi/include/c++/10.3.1/cmath ****   { return __builtin_powil(__x, __n); }
 409:/home/hallmar/Developer/gcc-arm-none-eabi-10.3-2021.10/arm-none-eabi/include/c++/10.3.1/cmath **** #endif
 410:/home/hallmar/Developer/gcc-arm-none-eabi-10.3-2021.10/arm-none-eabi/include/c++/10.3.1/cmath **** #endif
 411:/home/hallmar/Developer/gcc-arm-none-eabi-10.3-2021.10/arm-none-eabi/include/c++/10.3.1/cmath **** 
 412:/home/hallmar/Developer/gcc-arm-none-eabi-10.3-2021.10/arm-none-eabi/include/c++/10.3.1/cmath ****   template<typename _Tp, typename _Up>
 413:/home/hallmar/Developer/gcc-arm-none-eabi-10.3-2021.10/arm-none-eabi/include/c++/10.3.1/cmath ****     inline _GLIBCXX_CONSTEXPR
 414:/home/hallmar/Developer/gcc-arm-none-eabi-10.3-2021.10/arm-none-eabi/include/c++/10.3.1/cmath ****     typename __gnu_cxx::__promote_2<_Tp, _Up>::__type
 415:/home/hallmar/Developer/gcc-arm-none-eabi-10.3-2021.10/arm-none-eabi/include/c++/10.3.1/cmath ****     pow(_Tp __x, _Up __y)
 416:/home/hallmar/Developer/gcc-arm-none-eabi-10.3-2021.10/arm-none-eabi/include/c++/10.3.1/cmath ****     {
 417:/home/hallmar/Developer/gcc-arm-none-eabi-10.3-2021.10/arm-none-eabi/include/c++/10.3.1/cmath ****       typedef typename __gnu_cxx::__promote_2<_Tp, _Up>::__type __type;
 418:/home/hallmar/Developer/gcc-arm-none-eabi-10.3-2021.10/arm-none-eabi/include/c++/10.3.1/cmath ****       return pow(__type(__x), __type(__y));
 419:/home/hallmar/Developer/gcc-arm-none-eabi-10.3-2021.10/arm-none-eabi/include/c++/10.3.1/cmath ****     }
 420:/home/hallmar/Developer/gcc-arm-none-eabi-10.3-2021.10/arm-none-eabi/include/c++/10.3.1/cmath **** 
 421:/home/hallmar/Developer/gcc-arm-none-eabi-10.3-2021.10/arm-none-eabi/include/c++/10.3.1/cmath ****   using ::sin;
 422:/home/hallmar/Developer/gcc-arm-none-eabi-10.3-2021.10/arm-none-eabi/include/c++/10.3.1/cmath **** 
 423:/home/hallmar/Developer/gcc-arm-none-eabi-10.3-2021.10/arm-none-eabi/include/c++/10.3.1/cmath **** #ifndef __CORRECT_ISO_CPP_MATH_H_PROTO
 424:/home/hallmar/Developer/gcc-arm-none-eabi-10.3-2021.10/arm-none-eabi/include/c++/10.3.1/cmath ****   inline _GLIBCXX_CONSTEXPR float
 425:/home/hallmar/Developer/gcc-arm-none-eabi-10.3-2021.10/arm-none-eabi/include/c++/10.3.1/cmath ****   sin(float __x)
 885              		.loc 11 425 3 is_stmt 1 view .LVU211
 886              	.LBB611:
 426:/home/hallmar/Developer/gcc-arm-none-eabi-10.3-2021.10/arm-none-eabi/include/c++/10.3.1/cmath ****   { return __builtin_sinf(__x); }
 887              		.loc 11 426 5 view .LVU212
 888              		.loc 11 426 26 is_stmt 0 view .LVU213
 889 000a FFF7FEFF 		bl	sinf
 890              	.LVL42:
 891              		.loc 11 426 26 view .LVU214
 892              	.LBE611:
 893              	.LBE610:
 268:fjol.cpp      ****   //Serial.println(String("Right:") + right);
 894              		.loc 7 268 46 view .LVU215
 895 000e B7EEC00A 		vcvt.f64.f32	d0, s0
ARM GAS  /tmp/ccxnfbgf.s 			page 42


 268:fjol.cpp      ****   //Serial.println(String("Right:") + right);
 896              		.loc 7 268 30 view .LVU216
 897 0012 9FED0D7B 		vldr.64	d7, .L47
 268:fjol.cpp      ****   //Serial.println(String("Right:") + right);
 898              		.loc 7 268 23 view .LVU217
 899 0016 B7EEC86A 		vcvt.f64.f32	d6, s16
 268:fjol.cpp      ****   //Serial.println(String("Right:") + right);
 900              		.loc 7 268 30 view .LVU218
 901 001a 26EE076B 		vmul.f64	d6, d6, d7
 268:fjol.cpp      ****   //Serial.println(String("Right:") + right);
 902              		.loc 7 268 21 view .LVU219
 903 001e 26EE006B 		vmul.f64	d6, d6, d0
 904 0022 B5EE406B 		vcmp.f64	d6, #0
 905 0026 F1EE10FA 		vmrs	APSR_nzcv, FPSCR
 906 002a 06D4     		bmi	.L45
 907 002c B1EEC60B 		vsqrt.f64	d0, d6
 908              	.L43:
 909              	.LVL43:
 270:fjol.cpp      **** }
 910              		.loc 7 270 3 is_stmt 1 view .LVU220
 271:fjol.cpp      **** 
 911              		.loc 7 271 1 is_stmt 0 view .LVU221
 912 0030 B7EEC00B 		vcvt.f32.f64	s0, d0
 913              	.LVL44:
 271:fjol.cpp      **** 
 914              		.loc 7 271 1 view .LVU222
 915 0034 BDEC028B 		vldm	sp!, {d8}
 916              		.cfi_remember_state
 917              		.cfi_restore 80
 918              		.cfi_restore 81
 919              		.cfi_def_cfa_offset 8
 920              	.LVL45:
 271:fjol.cpp      **** 
 921              		.loc 7 271 1 view .LVU223
 922 0038 08BD     		pop	{r3, pc}
 923              	.LVL46:
 924              	.L45:
 925              		.cfi_restore_state
 268:fjol.cpp      ****   //Serial.println(String("Right:") + right);
 926              		.loc 7 268 21 view .LVU224
 927 003a B0EE460B 		vmov.f64	d0, d6
 928 003e FFF7FEFF 		bl	sqrt
 929              	.LVL47:
 930 0042 F5E7     		b	.L43
 931              	.L48:
 932 0044 AFF30080 		.align	3
 933              	.L47:
 934 0048 F5DA7A8E 		.word	-1904551179
 935 004c 315FE43F 		.word	1071931185
 936              		.cfi_endproc
 937              	.LFE4815:
 939              		.section	.text._Z8calcleftf,"ax",%progbits
 940              		.align	1
 941              		.p2align 2,,3
 942              		.global	_Z8calcleftf
 943              		.syntax unified
 944              		.thumb
ARM GAS  /tmp/ccxnfbgf.s 			page 43


 945              		.thumb_func
 947              	_Z8calcleftf:
 948              	.LVL48:
 949              	.LFB4816:
 274:fjol.cpp      ****   float left = sqrt((PI / 2 - (theta)) * (2 / PI) * cos(theta));
 950              		.loc 7 274 1 is_stmt 1 view -0
 951              		.cfi_startproc
 952              		@ args = 0, pretend = 0, frame = 0
 953              		@ frame_needed = 0, uses_anonymous_args = 0
 275:fjol.cpp      ****   //Serial.println(String("Left:") + left);
 954              		.loc 7 275 3 view .LVU226
 274:fjol.cpp      ****   float left = sqrt((PI / 2 - (theta)) * (2 / PI) * cos(theta));
 955              		.loc 7 274 1 is_stmt 0 view .LVU227
 956 0000 08B5     		push	{r3, lr}
 957              		.cfi_def_cfa_offset 8
 958              		.cfi_offset 3, -8
 959              		.cfi_offset 14, -4
 960 0002 2DED028B 		vpush.64	{d8}
 961              		.cfi_def_cfa_offset 16
 962              		.cfi_offset 80, -16
 963              		.cfi_offset 81, -12
 274:fjol.cpp      ****   float left = sqrt((PI / 2 - (theta)) * (2 / PI) * cos(theta));
 964              		.loc 7 274 1 view .LVU228
 965 0006 B0EE408A 		vmov.f32	s16, s0
 966              	.LVL49:
 967              	.LBB614:
 968              	.LBI614:
 184:/home/hallmar/Developer/gcc-arm-none-eabi-10.3-2021.10/arm-none-eabi/include/c++/10.3.1/cmath ****   { return __builtin_cosf(__x); }
 969              		.loc 11 184 3 is_stmt 1 view .LVU229
 970              	.LBB615:
 185:/home/hallmar/Developer/gcc-arm-none-eabi-10.3-2021.10/arm-none-eabi/include/c++/10.3.1/cmath **** 
 971              		.loc 11 185 5 view .LVU230
 185:/home/hallmar/Developer/gcc-arm-none-eabi-10.3-2021.10/arm-none-eabi/include/c++/10.3.1/cmath **** 
 972              		.loc 11 185 26 is_stmt 0 view .LVU231
 973 000a FFF7FEFF 		bl	cosf
 974              	.LVL50:
 185:/home/hallmar/Developer/gcc-arm-none-eabi-10.3-2021.10/arm-none-eabi/include/c++/10.3.1/cmath **** 
 975              		.loc 11 185 26 view .LVU232
 976              	.LBE615:
 977              	.LBE614:
 275:fjol.cpp      ****   //Serial.println(String("Left:") + left);
 978              		.loc 7 275 56 view .LVU233
 979 000e B7EEC00A 		vcvt.f64.f32	d0, s0
 275:fjol.cpp      ****   //Serial.println(String("Left:") + left);
 980              		.loc 7 275 29 view .LVU234
 981 0012 9FED0F6B 		vldr.64	d6, .L56
 275:fjol.cpp      ****   //Serial.println(String("Left:") + left);
 982              		.loc 7 275 32 view .LVU235
 983 0016 B7EEC87A 		vcvt.f64.f32	d7, s16
 275:fjol.cpp      ****   //Serial.println(String("Left:") + left);
 984              		.loc 7 275 40 view .LVU236
 985 001a 9FED0F5B 		vldr.64	d5, .L56+8
 275:fjol.cpp      ****   //Serial.println(String("Left:") + left);
 986              		.loc 7 275 29 view .LVU237
 987 001e 36EE477B 		vsub.f64	d7, d6, d7
 275:fjol.cpp      ****   //Serial.println(String("Left:") + left);
 988              		.loc 7 275 40 view .LVU238
ARM GAS  /tmp/ccxnfbgf.s 			page 44


 989 0022 27EE057B 		vmul.f64	d7, d7, d5
 275:fjol.cpp      ****   //Serial.println(String("Left:") + left);
 990              		.loc 7 275 20 view .LVU239
 991 0026 27EE007B 		vmul.f64	d7, d7, d0
 992 002a B5EE407B 		vcmp.f64	d7, #0
 993 002e F1EE10FA 		vmrs	APSR_nzcv, FPSCR
 994 0032 06D4     		bmi	.L54
 995 0034 B1EEC70B 		vsqrt.f64	d0, d7
 996              	.L52:
 997              	.LVL51:
 277:fjol.cpp      **** }
 998              		.loc 7 277 3 is_stmt 1 view .LVU240
 278:fjol.cpp      **** 
 999              		.loc 7 278 1 is_stmt 0 view .LVU241
 1000 0038 B7EEC00B 		vcvt.f32.f64	s0, d0
 1001              	.LVL52:
 278:fjol.cpp      **** 
 1002              		.loc 7 278 1 view .LVU242
 1003 003c BDEC028B 		vldm	sp!, {d8}
 1004              		.cfi_remember_state
 1005              		.cfi_restore 80
 1006              		.cfi_restore 81
 1007              		.cfi_def_cfa_offset 8
 1008              	.LVL53:
 278:fjol.cpp      **** 
 1009              		.loc 7 278 1 view .LVU243
 1010 0040 08BD     		pop	{r3, pc}
 1011              	.LVL54:
 1012              	.L54:
 1013              		.cfi_restore_state
 275:fjol.cpp      ****   //Serial.println(String("Left:") + left);
 1014              		.loc 7 275 20 view .LVU244
 1015 0042 B0EE470B 		vmov.f64	d0, d7
 1016 0046 FFF7FEFF 		bl	sqrt
 1017              	.LVL55:
 1018 004a F5E7     		b	.L52
 1019              	.L57:
 1020 004c AFF30080 		.align	3
 1021              	.L56:
 1022 0050 6E861BF0 		.word	-266631570
 1023 0054 F921F93F 		.word	1073291769
 1024 0058 F5DA7A8E 		.word	-1904551179
 1025 005c 315FE43F 		.word	1071931185
 1026              		.cfi_endproc
 1027              	.LFE4816:
 1029              		.section	.text._Z12updatespreadv,"ax",%progbits
 1030              		.align	1
 1031              		.p2align 2,,3
 1032              		.global	_Z12updatespreadv
 1033              		.syntax unified
 1034              		.thumb
 1035              		.thumb_func
 1037              	_Z12updatespreadv:
 1038              	.LFB4817:
 281:fjol.cpp      ****    //spread algorithm starts
 1039              		.loc 7 281 1 is_stmt 1 view -0
 1040              		.cfi_startproc
ARM GAS  /tmp/ccxnfbgf.s 			page 45


 1041              		@ args = 0, pretend = 0, frame = 0
 1042              		@ frame_needed = 0, uses_anonymous_args = 0
 283:fjol.cpp      ****   float lefttemp = calcleft( ((param[0]/2)+0.5)*PI/2 );
 1043              		.loc 7 283 3 view .LVU246
 281:fjol.cpp      ****    //spread algorithm starts
 1044              		.loc 7 281 1 is_stmt 0 view .LVU247
 1045 0000 38B5     		push	{r3, r4, r5, lr}
 1046              		.cfi_def_cfa_offset 16
 1047              		.cfi_offset 3, -16
 1048              		.cfi_offset 4, -12
 1049              		.cfi_offset 5, -8
 1050              		.cfi_offset 14, -4
 283:fjol.cpp      ****   float lefttemp = calcleft( ((param[0]/2)+0.5)*PI/2 );
 1051              		.loc 7 283 41 view .LVU248
 1052 0002 754D     		ldr	r5, .L80+24
 281:fjol.cpp      ****    //spread algorithm starts
 1053              		.loc 7 281 1 view .LVU249
 1054 0004 2DED0C8B 		vpush.64	{d8, d9, d10, d11, d12, d13}
 1055              		.cfi_def_cfa_offset 64
 1056              		.cfi_offset 80, -64
 1057              		.cfi_offset 81, -60
 1058              		.cfi_offset 82, -56
 1059              		.cfi_offset 83, -52
 1060              		.cfi_offset 84, -48
 1061              		.cfi_offset 85, -44
 1062              		.cfi_offset 86, -40
 1063              		.cfi_offset 87, -36
 1064              		.cfi_offset 88, -32
 1065              		.cfi_offset 89, -28
 1066              		.cfi_offset 90, -24
 1067              		.cfi_offset 91, -20
 283:fjol.cpp      ****   float lefttemp = calcleft( ((param[0]/2)+0.5)*PI/2 );
 1068              		.loc 7 283 42 view .LVU250
 1069 0008 F6EE009A 		vmov.f32	s19, #5.0e-1
 283:fjol.cpp      ****   float lefttemp = calcleft( ((param[0]/2)+0.5)*PI/2 );
 1070              		.loc 7 283 41 view .LVU251
 1071 000c 95ED00CA 		vldr.32	s24, [r5]
 283:fjol.cpp      ****   float lefttemp = calcleft( ((param[0]/2)+0.5)*PI/2 );
 1072              		.loc 7 283 45 view .LVU252
 1073 0010 B6EE00BB 		vmov.f64	d11, #5.0e-1
 283:fjol.cpp      ****   float lefttemp = calcleft( ((param[0]/2)+0.5)*PI/2 );
 1074              		.loc 7 283 42 view .LVU253
 1075 0014 2CEE290A 		vmul.f32	s0, s24, s19
 283:fjol.cpp      ****   float lefttemp = calcleft( ((param[0]/2)+0.5)*PI/2 );
 1076              		.loc 7 283 50 view .LVU254
 1077 0018 9FED698B 		vldr.64	d8, .L80
 283:fjol.cpp      ****   float lefttemp = calcleft( ((param[0]/2)+0.5)*PI/2 );
 1078              		.loc 7 283 42 view .LVU255
 1079 001c B7EEC00A 		vcvt.f64.f32	d0, s0
 283:fjol.cpp      ****   float lefttemp = calcleft( ((param[0]/2)+0.5)*PI/2 );
 1080              		.loc 7 283 45 view .LVU256
 1081 0020 30EE0B0B 		vadd.f64	d0, d0, d11
 283:fjol.cpp      ****   float lefttemp = calcleft( ((param[0]/2)+0.5)*PI/2 );
 1082              		.loc 7 283 50 view .LVU257
 1083 0024 20EE080B 		vmul.f64	d0, d0, d8
 283:fjol.cpp      ****   float lefttemp = calcleft( ((param[0]/2)+0.5)*PI/2 );
 1084              		.loc 7 283 53 view .LVU258
ARM GAS  /tmp/ccxnfbgf.s 			page 46


 1085 0028 20EE0B0B 		vmul.f64	d0, d0, d11
 283:fjol.cpp      ****   float lefttemp = calcleft( ((param[0]/2)+0.5)*PI/2 );
 1086              		.loc 7 283 30 view .LVU259
 1087 002c B7EEC09B 		vcvt.f32.f64	s18, d0
 1088              	.LVL56:
 1089              	.LBB632:
 1090              	.LBI632:
 265:fjol.cpp      **** {
 1091              		.loc 7 265 7 is_stmt 1 view .LVU260
 1092              	.LBB633:
 268:fjol.cpp      ****   //Serial.println(String("Right:") + right);
 1093              		.loc 7 268 3 view .LVU261
 1094              	.LBB634:
 1095              	.LBB635:
 1096              		.loc 11 426 26 is_stmt 0 view .LVU262
 1097 0030 B0EE490A 		vmov.f32	s0, s18
 1098 0034 FFF7FEFF 		bl	sinf
 1099              	.LVL57:
 1100              	.LBE635:
 1101              	.LBE634:
 268:fjol.cpp      ****   //Serial.println(String("Right:") + right);
 1102              		.loc 7 268 23 view .LVU263
 1103 0038 B7EEC9AA 		vcvt.f64.f32	d10, s18
 1104              	.LVL58:
 1105              	.LBB637:
 1106              	.LBI634:
 425:/home/hallmar/Developer/gcc-arm-none-eabi-10.3-2021.10/arm-none-eabi/include/c++/10.3.1/cmath ****   { return __builtin_sinf(__x); }
 1107              		.loc 11 425 3 is_stmt 1 view .LVU264
 1108              	.LBB636:
 1109              		.loc 11 426 5 view .LVU265
 1110              		.loc 11 426 5 is_stmt 0 view .LVU266
 1111              	.LBE636:
 1112              	.LBE637:
 268:fjol.cpp      ****   //Serial.println(String("Right:") + right);
 1113              		.loc 7 268 46 view .LVU267
 1114 003c B7EEC00A 		vcvt.f64.f32	d0, s0
 268:fjol.cpp      ****   //Serial.println(String("Right:") + right);
 1115              		.loc 7 268 30 view .LVU268
 1116 0040 9FED617B 		vldr.64	d7, .L80+8
 1117 0044 2AEE077B 		vmul.f64	d7, d10, d7
 268:fjol.cpp      ****   //Serial.println(String("Right:") + right);
 1118              		.loc 7 268 21 view .LVU269
 1119 0048 27EE000B 		vmul.f64	d0, d7, d0
 1120 004c B5EE400B 		vcmp.f64	d0, #0
 1121 0050 F1EE10FA 		vmrs	APSR_nzcv, FPSCR
 1122 0054 79D4     		bmi	.L75
 1123 0056 B1EEC07B 		vsqrt.f64	d7, d0
 1124              	.LVL59:
 1125              	.L61:
 268:fjol.cpp      ****   //Serial.println(String("Right:") + right);
 1126              		.loc 7 268 21 view .LVU270
 1127              	.LBE633:
 1128              	.LBE632:
 1129              	.LBB641:
 1130              	.LBB642:
 1131              	.LBB643:
 1132              	.LBB644:
ARM GAS  /tmp/ccxnfbgf.s 			page 47


 185:/home/hallmar/Developer/gcc-arm-none-eabi-10.3-2021.10/arm-none-eabi/include/c++/10.3.1/cmath **** 
 1133              		.loc 11 185 26 view .LVU271
 1134 005a B0EE490A 		vmov.f32	s0, s18
 1135              	.LBE644:
 1136              	.LBE643:
 1137              	.LBE642:
 1138              	.LBE641:
 1139              	.LBB652:
 1140              	.LBB638:
 268:fjol.cpp      ****   //Serial.println(String("Right:") + right);
 1141              		.loc 7 268 53 view .LVU272
 1142 005e F7EEC7CB 		vcvt.f32.f64	s25, d7
 1143              	.LVL60:
 270:fjol.cpp      **** }
 1144              		.loc 7 270 3 is_stmt 1 view .LVU273
 270:fjol.cpp      **** }
 1145              		.loc 7 270 3 is_stmt 0 view .LVU274
 1146              	.LBE638:
 1147              	.LBE652:
 284:fjol.cpp      ****   voice[0].panL = lefttemp;
 1148              		.loc 7 284 3 is_stmt 1 view .LVU275
 1149              	.LBB653:
 1150              	.LBI641:
 273:fjol.cpp      **** {
 1151              		.loc 7 273 7 view .LVU276
 1152              	.LBB647:
 275:fjol.cpp      ****   //Serial.println(String("Left:") + left);
 1153              		.loc 7 275 3 view .LVU277
 1154              	.LBB646:
 1155              	.LBI643:
 184:/home/hallmar/Developer/gcc-arm-none-eabi-10.3-2021.10/arm-none-eabi/include/c++/10.3.1/cmath ****   { return __builtin_cosf(__x); }
 1156              		.loc 11 184 3 view .LVU278
 1157              	.LBB645:
 185:/home/hallmar/Developer/gcc-arm-none-eabi-10.3-2021.10/arm-none-eabi/include/c++/10.3.1/cmath **** 
 1158              		.loc 11 185 5 view .LVU279
 185:/home/hallmar/Developer/gcc-arm-none-eabi-10.3-2021.10/arm-none-eabi/include/c++/10.3.1/cmath **** 
 1159              		.loc 11 185 26 is_stmt 0 view .LVU280
 1160 0062 FFF7FEFF 		bl	cosf
 1161              	.LVL61:
 185:/home/hallmar/Developer/gcc-arm-none-eabi-10.3-2021.10/arm-none-eabi/include/c++/10.3.1/cmath **** 
 1162              		.loc 11 185 26 view .LVU281
 1163              	.LBE645:
 1164              	.LBE646:
 275:fjol.cpp      ****   //Serial.println(String("Left:") + left);
 1165              		.loc 7 275 56 view .LVU282
 1166 0066 B7EEC00A 		vcvt.f64.f32	d0, s0
 275:fjol.cpp      ****   //Serial.println(String("Left:") + left);
 1167              		.loc 7 275 29 view .LVU283
 1168 006a 9FED597B 		vldr.64	d7, .L80+16
 275:fjol.cpp      ****   //Serial.println(String("Left:") + left);
 1169              		.loc 7 275 40 view .LVU284
 1170 006e 9FED566B 		vldr.64	d6, .L80+8
 275:fjol.cpp      ****   //Serial.println(String("Left:") + left);
 1171              		.loc 7 275 29 view .LVU285
 1172 0072 37EE4A7B 		vsub.f64	d7, d7, d10
 275:fjol.cpp      ****   //Serial.println(String("Left:") + left);
 1173              		.loc 7 275 40 view .LVU286
ARM GAS  /tmp/ccxnfbgf.s 			page 48


 1174 0076 27EE067B 		vmul.f64	d7, d7, d6
 275:fjol.cpp      ****   //Serial.println(String("Left:") + left);
 1175              		.loc 7 275 20 view .LVU287
 1176 007a 27EE000B 		vmul.f64	d0, d7, d0
 1177 007e B5EE400B 		vcmp.f64	d0, #0
 1178 0082 F1EE10FA 		vmrs	APSR_nzcv, FPSCR
 1179 0086 00F19180 		bmi	.L76
 1180 008a B1EEC06B 		vsqrt.f64	d6, d0
 1181              	.L64:
 1182              	.LBE647:
 1183              	.LBE653:
 290:fjol.cpp      ****   lefttemp = calcleft( (( (1-param[0])/400 )+0.25)*PI/2 );
 1184              		.loc 7 290 41 view .LVU288
 1185 008e DFED53BA 		vldr.32	s23, .L80+28
 285:fjol.cpp      ****   voice[0].panR = righttemp;
 1186              		.loc 7 285 17 view .LVU289
 1187 0092 534C     		ldr	r4, .L80+32
 290:fjol.cpp      ****   lefttemp = calcleft( (( (1-param[0])/400 )+0.25)*PI/2 );
 1188              		.loc 7 290 31 view .LVU290
 1189 0094 B7EE00BA 		vmov.f32	s22, #1.0e+0
 286:fjol.cpp      ****   voice[3].panL = lefttemp;
 1190              		.loc 7 286 17 view .LVU291
 1191 0098 C4ED25CA 		vstr.32	s25, [r4, #148]
 290:fjol.cpp      ****   lefttemp = calcleft( (( (1-param[0])/400 )+0.25)*PI/2 );
 1192              		.loc 7 290 48 view .LVU292
 1193 009c B5EE00AB 		vmov.f64	d10, #2.5e-1
 288:fjol.cpp      **** 
 1194              		.loc 7 288 17 view .LVU293
 1195 00a0 C4EDAFCA 		vstr.32	s25, [r4, #700]
 290:fjol.cpp      ****   lefttemp = calcleft( (( (1-param[0])/400 )+0.25)*PI/2 );
 1196              		.loc 7 290 57 view .LVU294
 1197 00a4 B6EE008B 		vmov.f64	d8, #5.0e-1
 290:fjol.cpp      ****   lefttemp = calcleft( (( (1-param[0])/400 )+0.25)*PI/2 );
 1198              		.loc 7 290 31 view .LVU295
 1199 00a8 3BEE4CCA 		vsub.f32	s24, s22, s24
 1200              	.LBB654:
 1201              	.LBB648:
 275:fjol.cpp      ****   //Serial.println(String("Left:") + left);
 1202              		.loc 7 275 63 view .LVU296
 1203 00ac B7EEC66B 		vcvt.f32.f64	s12, d6
 1204              	.LVL62:
 277:fjol.cpp      **** }
 1205              		.loc 7 277 3 is_stmt 1 view .LVU297
 277:fjol.cpp      **** }
 1206              		.loc 7 277 3 is_stmt 0 view .LVU298
 1207              	.LBE648:
 1208              	.LBE654:
 285:fjol.cpp      ****   voice[0].panR = righttemp;
 1209              		.loc 7 285 3 is_stmt 1 view .LVU299
 290:fjol.cpp      ****   lefttemp = calcleft( (( (1-param[0])/400 )+0.25)*PI/2 );
 1210              		.loc 7 290 41 is_stmt 0 view .LVU300
 1211 00b0 8CEE2B0A 		vdiv.f32	s0, s24, s23
 285:fjol.cpp      ****   voice[0].panR = righttemp;
 1212              		.loc 7 285 17 view .LVU301
 1213 00b4 84ED246A 		vstr.32	s12, [r4, #144]
 286:fjol.cpp      ****   voice[3].panL = lefttemp;
 1214              		.loc 7 286 3 is_stmt 1 view .LVU302
ARM GAS  /tmp/ccxnfbgf.s 			page 49


 287:fjol.cpp      ****   voice[3].panR = righttemp;
 1215              		.loc 7 287 3 view .LVU303
 287:fjol.cpp      ****   voice[3].panR = righttemp;
 1216              		.loc 7 287 17 is_stmt 0 view .LVU304
 1217 00b8 84EDAE6A 		vstr.32	s12, [r4, #696]
 288:fjol.cpp      **** 
 1218              		.loc 7 288 3 is_stmt 1 view .LVU305
 290:fjol.cpp      ****   lefttemp = calcleft( (( (1-param[0])/400 )+0.25)*PI/2 );
 1219              		.loc 7 290 3 view .LVU306
 290:fjol.cpp      ****   lefttemp = calcleft( (( (1-param[0])/400 )+0.25)*PI/2 );
 1220              		.loc 7 290 54 is_stmt 0 view .LVU307
 1221 00bc 9FED409B 		vldr.64	d9, .L80
 290:fjol.cpp      ****   lefttemp = calcleft( (( (1-param[0])/400 )+0.25)*PI/2 );
 1222              		.loc 7 290 41 view .LVU308
 1223 00c0 B7EEC00A 		vcvt.f64.f32	d0, s0
 290:fjol.cpp      ****   lefttemp = calcleft( (( (1-param[0])/400 )+0.25)*PI/2 );
 1224              		.loc 7 290 48 view .LVU309
 1225 00c4 30EE0A0B 		vadd.f64	d0, d0, d10
 290:fjol.cpp      ****   lefttemp = calcleft( (( (1-param[0])/400 )+0.25)*PI/2 );
 1226              		.loc 7 290 54 view .LVU310
 1227 00c8 20EE090B 		vmul.f64	d0, d0, d9
 290:fjol.cpp      ****   lefttemp = calcleft( (( (1-param[0])/400 )+0.25)*PI/2 );
 1228              		.loc 7 290 57 view .LVU311
 1229 00cc 20EE080B 		vmul.f64	d0, d0, d8
 290:fjol.cpp      ****   lefttemp = calcleft( (( (1-param[0])/400 )+0.25)*PI/2 );
 1230              		.loc 7 290 24 view .LVU312
 1231 00d0 B7EEC0DB 		vcvt.f32.f64	s26, d0
 1232              	.LVL63:
 1233              	.LBB655:
 1234              	.LBI655:
 265:fjol.cpp      **** {
 1235              		.loc 7 265 7 is_stmt 1 view .LVU313
 1236              	.LBB656:
 268:fjol.cpp      ****   //Serial.println(String("Right:") + right);
 1237              		.loc 7 268 3 view .LVU314
 1238              	.LBB657:
 1239              	.LBB658:
 1240              		.loc 11 426 26 is_stmt 0 view .LVU315
 1241 00d4 B0EE4D0A 		vmov.f32	s0, s26
 1242 00d8 FFF7FEFF 		bl	sinf
 1243              	.LVL64:
 1244              		.loc 11 426 26 view .LVU316
 1245              	.LBE658:
 1246              	.LBE657:
 268:fjol.cpp      ****   //Serial.println(String("Right:") + right);
 1247              		.loc 7 268 23 view .LVU317
 1248 00dc B7EECDCA 		vcvt.f64.f32	d12, s26
 1249              	.LVL65:
 1250              	.LBB660:
 1251              	.LBI657:
 425:/home/hallmar/Developer/gcc-arm-none-eabi-10.3-2021.10/arm-none-eabi/include/c++/10.3.1/cmath ****   { return __builtin_sinf(__x); }
 1252              		.loc 11 425 3 is_stmt 1 view .LVU318
 1253              	.LBB659:
 1254              		.loc 11 426 5 view .LVU319
 1255              		.loc 11 426 5 is_stmt 0 view .LVU320
 1256              	.LBE659:
 1257              	.LBE660:
ARM GAS  /tmp/ccxnfbgf.s 			page 50


 268:fjol.cpp      ****   //Serial.println(String("Right:") + right);
 1258              		.loc 7 268 46 view .LVU321
 1259 00e0 B7EEC00A 		vcvt.f64.f32	d0, s0
 268:fjol.cpp      ****   //Serial.println(String("Right:") + right);
 1260              		.loc 7 268 30 view .LVU322
 1261 00e4 9FED387B 		vldr.64	d7, .L80+8
 1262 00e8 2CEE077B 		vmul.f64	d7, d12, d7
 268:fjol.cpp      ****   //Serial.println(String("Right:") + right);
 1263              		.loc 7 268 21 view .LVU323
 1264 00ec 27EE000B 		vmul.f64	d0, d7, d0
 1265 00f0 B5EE400B 		vcmp.f64	d0, #0
 1266 00f4 F1EE10FA 		vmrs	APSR_nzcv, FPSCR
 1267 00f8 41D4     		bmi	.L77
 1268 00fa B1EEC06B 		vsqrt.f64	d6, d0
 1269              	.LVL66:
 1270              	.L67:
 268:fjol.cpp      ****   //Serial.println(String("Right:") + right);
 1271              		.loc 7 268 21 view .LVU324
 1272              	.LBE656:
 1273              	.LBE655:
 1274              	.LBB664:
 1275              	.LBB665:
 1276              	.LBB666:
 1277              	.LBB667:
 185:/home/hallmar/Developer/gcc-arm-none-eabi-10.3-2021.10/arm-none-eabi/include/c++/10.3.1/cmath **** 
 1278              		.loc 11 185 26 view .LVU325
 1279 00fe B0EE4D0A 		vmov.f32	s0, s26
 1280              	.LBE667:
 1281              	.LBE666:
 1282              	.LBE665:
 1283              	.LBE664:
 1284              	.LBB674:
 1285              	.LBB661:
 268:fjol.cpp      ****   //Serial.println(String("Right:") + right);
 1286              		.loc 7 268 53 view .LVU326
 1287 0102 B7EEC68B 		vcvt.f32.f64	s16, d6
 1288              	.LVL67:
 270:fjol.cpp      **** }
 1289              		.loc 7 270 3 is_stmt 1 view .LVU327
 270:fjol.cpp      **** }
 1290              		.loc 7 270 3 is_stmt 0 view .LVU328
 1291              	.LBE661:
 1292              	.LBE674:
 291:fjol.cpp      ****   voice[1].panL = lefttemp;
 1293              		.loc 7 291 3 is_stmt 1 view .LVU329
 1294              	.LBB675:
 1295              	.LBI664:
 273:fjol.cpp      **** {
 1296              		.loc 7 273 7 view .LVU330
 1297              	.LBB670:
 275:fjol.cpp      ****   //Serial.println(String("Left:") + left);
 1298              		.loc 7 275 3 view .LVU331
 1299              	.LBB669:
 1300              	.LBI666:
 184:/home/hallmar/Developer/gcc-arm-none-eabi-10.3-2021.10/arm-none-eabi/include/c++/10.3.1/cmath ****   { return __builtin_cosf(__x); }
 1301              		.loc 11 184 3 view .LVU332
 1302              	.LBB668:
ARM GAS  /tmp/ccxnfbgf.s 			page 51


 185:/home/hallmar/Developer/gcc-arm-none-eabi-10.3-2021.10/arm-none-eabi/include/c++/10.3.1/cmath **** 
 1303              		.loc 11 185 5 view .LVU333
 185:/home/hallmar/Developer/gcc-arm-none-eabi-10.3-2021.10/arm-none-eabi/include/c++/10.3.1/cmath **** 
 1304              		.loc 11 185 26 is_stmt 0 view .LVU334
 1305 0106 FFF7FEFF 		bl	cosf
 1306              	.LVL68:
 185:/home/hallmar/Developer/gcc-arm-none-eabi-10.3-2021.10/arm-none-eabi/include/c++/10.3.1/cmath **** 
 1307              		.loc 11 185 26 view .LVU335
 1308              	.LBE668:
 1309              	.LBE669:
 275:fjol.cpp      ****   //Serial.println(String("Left:") + left);
 1310              		.loc 7 275 56 view .LVU336
 1311 010a B7EEC00A 		vcvt.f64.f32	d0, s0
 275:fjol.cpp      ****   //Serial.println(String("Left:") + left);
 1312              		.loc 7 275 29 view .LVU337
 1313 010e 9FED307B 		vldr.64	d7, .L80+16
 275:fjol.cpp      ****   //Serial.println(String("Left:") + left);
 1314              		.loc 7 275 40 view .LVU338
 1315 0112 9FED2D6B 		vldr.64	d6, .L80+8
 275:fjol.cpp      ****   //Serial.println(String("Left:") + left);
 1316              		.loc 7 275 29 view .LVU339
 1317 0116 37EE4CCB 		vsub.f64	d12, d7, d12
 275:fjol.cpp      ****   //Serial.println(String("Left:") + left);
 1318              		.loc 7 275 40 view .LVU340
 1319 011a 2CEE06CB 		vmul.f64	d12, d12, d6
 275:fjol.cpp      ****   //Serial.println(String("Left:") + left);
 1320              		.loc 7 275 20 view .LVU341
 1321 011e 2CEE000B 		vmul.f64	d0, d12, d0
 1322 0122 B5EE400B 		vcmp.f64	d0, #0
 1323 0126 F1EE10FA 		vmrs	APSR_nzcv, FPSCR
 1324 012a 23D4     		bmi	.L78
 1325 012c B1EEC07B 		vsqrt.f64	d7, d0
 1326              	.L70:
 1327              	.LBE670:
 1328              	.LBE675:
 293:fjol.cpp      ****   voice[2].panL = lefttemp;
 1329              		.loc 7 293 17 view .LVU342
 1330 0130 84ED538A 		vstr.32	s16, [r4, #332]
 295:fjol.cpp      **** }
 1331              		.loc 7 295 17 view .LVU343
 1332 0134 84ED818A 		vstr.32	s16, [r4, #516]
 1333              	.LBB676:
 1334              	.LBB671:
 275:fjol.cpp      ****   //Serial.println(String("Left:") + left);
 1335              		.loc 7 275 63 view .LVU344
 1336 0138 B7EEC77B 		vcvt.f32.f64	s14, d7
 1337              	.LVL69:
 277:fjol.cpp      **** }
 1338              		.loc 7 277 3 is_stmt 1 view .LVU345
 277:fjol.cpp      **** }
 1339              		.loc 7 277 3 is_stmt 0 view .LVU346
 1340              	.LBE671:
 1341              	.LBE676:
 292:fjol.cpp      ****   voice[1].panR = righttemp;
 1342              		.loc 7 292 3 is_stmt 1 view .LVU347
 296:fjol.cpp      **** 
 1343              		.loc 7 296 1 is_stmt 0 view .LVU348
ARM GAS  /tmp/ccxnfbgf.s 			page 52


 1344 013c BDEC0C8B 		vldm	sp!, {d8-d13}
 1345              		.cfi_remember_state
 1346              		.cfi_restore 90
 1347              		.cfi_restore 91
 1348              		.cfi_restore 88
 1349              		.cfi_restore 89
 1350              		.cfi_restore 86
 1351              		.cfi_restore 87
 1352              		.cfi_restore 84
 1353              		.cfi_restore 85
 1354              		.cfi_restore 82
 1355              		.cfi_restore 83
 1356              		.cfi_restore 80
 1357              		.cfi_restore 81
 1358              		.cfi_def_cfa_offset 16
 1359              	.LVL70:
 292:fjol.cpp      ****   voice[1].panR = righttemp;
 1360              		.loc 7 292 17 view .LVU349
 1361 0140 84ED527A 		vstr.32	s14, [r4, #328]
 293:fjol.cpp      ****   voice[2].panL = lefttemp;
 1362              		.loc 7 293 3 is_stmt 1 view .LVU350
 294:fjol.cpp      ****   voice[2].panR = righttemp;
 1363              		.loc 7 294 3 view .LVU351
 294:fjol.cpp      ****   voice[2].panR = righttemp;
 1364              		.loc 7 294 17 is_stmt 0 view .LVU352
 1365 0144 84ED807A 		vstr.32	s14, [r4, #512]
 295:fjol.cpp      **** }
 1366              		.loc 7 295 3 is_stmt 1 view .LVU353
 296:fjol.cpp      **** 
 1367              		.loc 7 296 1 is_stmt 0 view .LVU354
 1368 0148 38BD     		pop	{r3, r4, r5, pc}
 1369              	.LVL71:
 1370              	.L75:
 1371              		.cfi_restore_state
 1372              	.LBB677:
 1373              	.LBB639:
 268:fjol.cpp      ****   //Serial.println(String("Right:") + right);
 1374              		.loc 7 268 21 view .LVU355
 1375 014a FFF7FEFF 		bl	sqrt
 1376              	.LVL72:
 1377              	.LBE639:
 1378              	.LBE677:
 284:fjol.cpp      ****   voice[0].panL = lefttemp;
 1379              		.loc 7 284 39 view .LVU356
 1380 014e 95ED00CA 		vldr.32	s24, [r5]
 1381              	.LBB678:
 1382              	.LBB640:
 268:fjol.cpp      ****   //Serial.println(String("Right:") + right);
 1383              		.loc 7 268 21 view .LVU357
 1384 0152 B0EE407B 		vmov.f64	d7, d0
 1385              	.LBE640:
 1386              	.LBE678:
 284:fjol.cpp      ****   voice[0].panL = lefttemp;
 1387              		.loc 7 284 40 view .LVU358
 1388 0156 2CEE290A 		vmul.f32	s0, s24, s19
 1389 015a B7EEC00A 		vcvt.f64.f32	d0, s0
 284:fjol.cpp      ****   voice[0].panL = lefttemp;
ARM GAS  /tmp/ccxnfbgf.s 			page 53


 1390              		.loc 7 284 43 view .LVU359
 1391 015e 30EE0B0B 		vadd.f64	d0, d0, d11
 284:fjol.cpp      ****   voice[0].panL = lefttemp;
 1392              		.loc 7 284 48 view .LVU360
 1393 0162 20EE080B 		vmul.f64	d0, d0, d8
 284:fjol.cpp      ****   voice[0].panL = lefttemp;
 1394              		.loc 7 284 51 view .LVU361
 1395 0166 20EE0B0B 		vmul.f64	d0, d0, d11
 284:fjol.cpp      ****   voice[0].panL = lefttemp;
 1396              		.loc 7 284 28 view .LVU362
 1397 016a B7EEC09B 		vcvt.f32.f64	s18, d0
 1398              	.LVL73:
 1399              	.LBB679:
 1400              	.LBB649:
 275:fjol.cpp      ****   //Serial.println(String("Left:") + left);
 1401              		.loc 7 275 32 view .LVU363
 1402 016e B7EEC9AA 		vcvt.f64.f32	d10, s18
 1403 0172 72E7     		b	.L61
 1404              	.LVL74:
 1405              	.L78:
 275:fjol.cpp      ****   //Serial.println(String("Left:") + left);
 1406              		.loc 7 275 32 view .LVU364
 1407              	.LBE649:
 1408              	.LBE679:
 1409              	.LBB680:
 1410              	.LBB672:
 275:fjol.cpp      ****   //Serial.println(String("Left:") + left);
 1411              		.loc 7 275 20 view .LVU365
 1412 0174 FFF7FEFF 		bl	sqrt
 1413              	.LVL75:
 1414 0178 B0EE407B 		vmov.f64	d7, d0
 1415 017c D8E7     		b	.L70
 1416              	.LVL76:
 1417              	.L77:
 275:fjol.cpp      ****   //Serial.println(String("Left:") + left);
 1418              		.loc 7 275 20 view .LVU366
 1419              	.LBE672:
 1420              	.LBE680:
 1421              	.LBB681:
 1422              	.LBB662:
 268:fjol.cpp      ****   //Serial.println(String("Right:") + right);
 1423              		.loc 7 268 21 view .LVU367
 1424 017e FFF7FEFF 		bl	sqrt
 1425              	.LVL77:
 1426              	.LBE662:
 1427              	.LBE681:
 291:fjol.cpp      ****   voice[1].panL = lefttemp;
 1428              		.loc 7 291 29 view .LVU368
 1429 0182 D5ED007A 		vldr.32	s15, [r5]
 1430              	.LBB682:
 1431              	.LBB663:
 268:fjol.cpp      ****   //Serial.println(String("Right:") + right);
 1432              		.loc 7 268 21 view .LVU369
 1433 0186 B0EE406B 		vmov.f64	d6, d0
 1434              	.LBE663:
 1435              	.LBE682:
 291:fjol.cpp      ****   voice[1].panL = lefttemp;
ARM GAS  /tmp/ccxnfbgf.s 			page 54


 1436              		.loc 7 291 29 view .LVU370
 1437 018a 3BEE67BA 		vsub.f32	s22, s22, s15
 291:fjol.cpp      ****   voice[1].panL = lefttemp;
 1438              		.loc 7 291 39 view .LVU371
 1439 018e 8BEE2B7A 		vdiv.f32	s14, s22, s23
 1440 0192 B7EEC77A 		vcvt.f64.f32	d7, s14
 291:fjol.cpp      ****   voice[1].panL = lefttemp;
 1441              		.loc 7 291 45 view .LVU372
 1442 0196 37EE0AAB 		vadd.f64	d10, d7, d10
 291:fjol.cpp      ****   voice[1].panL = lefttemp;
 1443              		.loc 7 291 51 view .LVU373
 1444 019a 2AEE099B 		vmul.f64	d9, d10, d9
 291:fjol.cpp      ****   voice[1].panL = lefttemp;
 1445              		.loc 7 291 54 view .LVU374
 1446 019e 29EE088B 		vmul.f64	d8, d9, d8
 291:fjol.cpp      ****   voice[1].panL = lefttemp;
 1447              		.loc 7 291 22 view .LVU375
 1448 01a2 B7EEC8DB 		vcvt.f32.f64	s26, d8
 1449              	.LVL78:
 1450              	.LBB683:
 1451              	.LBB673:
 275:fjol.cpp      ****   //Serial.println(String("Left:") + left);
 1452              		.loc 7 275 32 view .LVU376
 1453 01a6 B7EECDCA 		vcvt.f64.f32	d12, s26
 1454 01aa A8E7     		b	.L67
 1455              	.L76:
 275:fjol.cpp      ****   //Serial.println(String("Left:") + left);
 1456              		.loc 7 275 32 view .LVU377
 1457              	.LBE673:
 1458              	.LBE683:
 1459              	.LBB684:
 1460              	.LBB650:
 275:fjol.cpp      ****   //Serial.println(String("Left:") + left);
 1461              		.loc 7 275 20 view .LVU378
 1462 01ac FFF7FEFF 		bl	sqrt
 1463              	.LVL79:
 1464              	.LBE650:
 1465              	.LBE684:
 290:fjol.cpp      ****   lefttemp = calcleft( (( (1-param[0])/400 )+0.25)*PI/2 );
 1466              		.loc 7 290 39 view .LVU379
 1467 01b0 95ED00CA 		vldr.32	s24, [r5]
 1468              	.LBB685:
 1469              	.LBB651:
 275:fjol.cpp      ****   //Serial.println(String("Left:") + left);
 1470              		.loc 7 275 20 view .LVU380
 1471 01b4 B0EE406B 		vmov.f64	d6, d0
 1472 01b8 69E7     		b	.L64
 1473              	.L81:
 1474 01ba 00BFAFF3 		.align	3
 1474      0080
 1475              	.L80:
 1476 01c0 6E861BF0 		.word	-266631570
 1477 01c4 F9210940 		.word	1074340345
 1478 01c8 F5DA7A8E 		.word	-1904551179
 1479 01cc 315FE43F 		.word	1071931185
 1480 01d0 6E861BF0 		.word	-266631570
 1481 01d4 F921F93F 		.word	1073291769
ARM GAS  /tmp/ccxnfbgf.s 			page 55


 1482 01d8 00000000 		.word	param
 1483 01dc 0000C843 		.word	1137180672
 1484 01e0 00000000 		.word	.LANCHOR0
 1485              	.LBE651:
 1486              	.LBE685:
 1487              		.cfi_endproc
 1488              	.LFE4817:
 1490              		.section	.text._Z16getorsetsettingsb,"ax",%progbits
 1491              		.align	1
 1492              		.p2align 2,,3
 1493              		.global	_Z16getorsetsettingsb
 1494              		.syntax unified
 1495              		.thumb
 1496              		.thumb_func
 1498              	_Z16getorsetsettingsb:
 1499              	.LVL80:
 1500              	.LFB4818:
 299:fjol.cpp      ****   uint8_t eeaddress = 0;
 1501              		.loc 7 299 1 is_stmt 1 view -0
 1502              		.cfi_startproc
 1503              		@ args = 0, pretend = 0, frame = 40
 1504              		@ frame_needed = 0, uses_anonymous_args = 0
 300:fjol.cpp      **** 
 1505              		.loc 7 300 3 view .LVU382
 302:fjol.cpp      ****   if (getorset == load)
 1506              		.loc 7 302 3 view .LVU383
 299:fjol.cpp      ****   uint8_t eeaddress = 0;
 1507              		.loc 7 299 1 is_stmt 0 view .LVU384
 1508 0000 30B5     		push	{r4, r5, lr}
 1509              		.cfi_def_cfa_offset 12
 1510              		.cfi_offset 4, -12
 1511              		.cfi_offset 5, -8
 1512              		.cfi_offset 14, -4
 302:fjol.cpp      ****   if (getorset == load)
 1513              		.loc 7 302 8 view .LVU385
 1514 0002 144C     		ldr	r4, .L85
 299:fjol.cpp      ****   uint8_t eeaddress = 0;
 1515              		.loc 7 299 1 view .LVU386
 1516 0004 8BB0     		sub	sp, sp, #44
 1517              		.cfi_def_cfa_offset 56
 1518              	.LBB700:
 303:fjol.cpp      ****   {
 1519              		.loc 7 303 3 view .LVU387
 1520 0006 8646     		mov	lr, r0
 1521              	.LBE700:
 302:fjol.cpp      ****   if (getorset == load)
 1522              		.loc 7 302 8 view .LVU388
 1523 0008 EC46     		mov	ip, sp
 1524 000a 0FCC     		ldmia	r4!, {r0, r1, r2, r3}
 1525              	.LVL81:
 302:fjol.cpp      ****   if (getorset == load)
 1526              		.loc 7 302 8 view .LVU389
 1527 000c ACE80F00 		stmia	ip!, {r0, r1, r2, r3}
 1528 0010 0FCC     		ldmia	r4!, {r0, r1, r2, r3}
 1529 0012 ACE80F00 		stmia	ip!, {r0, r1, r2, r3}
 1530 0016 94E80300 		ldm	r4, {r0, r1}
 1531 001a 8CE80300 		stm	ip, {r0, r1}
ARM GAS  /tmp/ccxnfbgf.s 			page 56


 303:fjol.cpp      ****   {
 1532              		.loc 7 303 3 is_stmt 1 view .LVU390
 1533              	.LBB703:
 1534 001e BEF1000F 		cmp	lr, #0
 1535 0022 14D1     		bne	.L82
 1536              	.LBE703:
 1537              	.LBB704:
 1538              	.LBB705:
 1539              	.LBB706:
 310:fjol.cpp      ****     enc[0].ctlcvdest = qspidata.d_states[1];
 1540              		.loc 7 310 20 is_stmt 0 view .LVU391
 1541 0024 0C4B     		ldr	r3, .L85+4
 312:fjol.cpp      ****     enc[1].ctlcvdest = qspidata.d_states[3];
 1542              		.loc 7 312 20 view .LVU392
 1543 0026 40F20442 		movw	r2, #1028
 1544              	.LBE706:
 1545              	.LBE705:
 1546              	.LBE704:
 1547              	.LBB711:
 1548              	.LBB701:
 308:fjol.cpp      ****     }
 1549              		.loc 7 308 16 view .LVU393
 1550 002a 6C46     		mov	r4, sp
 1551 002c 0B4D     		ldr	r5, .L85+8
 1552              	.LBE701:
 1553              	.LBE711:
 1554              	.LBB712:
 1555              	.LBB709:
 1556              	.LBB707:
 312:fjol.cpp      ****     enc[1].ctlcvdest = qspidata.d_states[3];
 1557              		.loc 7 312 20 view .LVU394
 1558 002e A3F85420 		strh	r2, [r3, #84]	@ movhi
 314:fjol.cpp      ****     midichannel = qspidata.d_states[5];
 1559              		.loc 7 314 17 view .LVU395
 1560 0032 0B4A     		ldr	r2, .L85+12
 310:fjol.cpp      ****     enc[0].ctlcvdest = qspidata.d_states[1];
 1561              		.loc 7 310 20 view .LVU396
 1562 0034 A3F828E0 		strh	lr, [r3, #40]	@ movhi
 314:fjol.cpp      ****     midichannel = qspidata.d_states[5];
 1563              		.loc 7 314 17 view .LVU397
 1564 0038 82F800E0 		strb	lr, [r2]
 315:fjol.cpp      ****     return;
 1565              		.loc 7 315 17 view .LVU398
 1566 003c 0122     		movs	r2, #1
 1567 003e 094B     		ldr	r3, .L85+16
 1568 0040 1A70     		strb	r2, [r3]
 1569              	.LBE707:
 1570              	.LBE709:
 1571              	.LBE712:
 1572              	.LBB713:
 1573              	.LBB702:
 308:fjol.cpp      ****     }
 1574              		.loc 7 308 16 view .LVU399
 1575 0042 0FCC     		ldmia	r4!, {r0, r1, r2, r3}
 1576 0044 0FC5     		stmia	r5!, {r0, r1, r2, r3}
 1577 0046 94E80F00 		ldm	r4, {r0, r1, r2, r3}
 1578 004a 85E80F00 		stm	r5, {r0, r1, r2, r3}
ARM GAS  /tmp/ccxnfbgf.s 			page 57


 1579              	.LBE702:
 1580              	.LBE713:
 1581              	.LBB714:
 1582              	.LBI704:
 298:fjol.cpp      **** {
 1583              		.loc 7 298 6 is_stmt 1 view .LVU400
 1584              	.LVL82:
 1585              	.LBB710:
 1586              	.LBB708:
 310:fjol.cpp      ****     enc[0].ctlcvdest = qspidata.d_states[1];
 1587              		.loc 7 310 5 view .LVU401
 311:fjol.cpp      ****     enc[1].ctldest = qspidata.d_states[2];
 1588              		.loc 7 311 5 view .LVU402
 312:fjol.cpp      ****     enc[1].ctlcvdest = qspidata.d_states[3];
 1589              		.loc 7 312 5 view .LVU403
 313:fjol.cpp      ****     algo_select = qspidata.d_states[4];
 1590              		.loc 7 313 5 view .LVU404
 314:fjol.cpp      ****     midichannel = qspidata.d_states[5];
 1591              		.loc 7 314 5 view .LVU405
 315:fjol.cpp      ****     return;
 1592              		.loc 7 315 5 view .LVU406
 316:fjol.cpp      ****   }
 1593              		.loc 7 316 5 view .LVU407
 1594              	.L82:
 316:fjol.cpp      ****   }
 1595              		.loc 7 316 5 is_stmt 0 view .LVU408
 1596              	.LBE708:
 1597              	.LBE710:
 1598              	.LBE714:
 348:fjol.cpp      **** 
 1599              		.loc 7 348 1 view .LVU409
 1600 004e 0BB0     		add	sp, sp, #44
 1601              		.cfi_def_cfa_offset 12
 1602              		@ sp needed
 1603 0050 30BD     		pop	{r4, r5, pc}
 1604              	.L86:
 1605 0052 00BF     		.align	2
 1606              	.L85:
 1607 0054 00000000 		.word	.LANCHOR3
 1608 0058 00000000 		.word	.LANCHOR4
 1609 005c 00000000 		.word	param
 1610 0060 00000000 		.word	algo_select
 1611 0064 00000000 		.word	midichannel
 1612              		.cfi_endproc
 1613              	.LFE4818:
 1615              		.section	.text._Z8glidevalv,"ax",%progbits
 1616              		.align	1
 1617              		.p2align 2,,3
 1618              		.global	_Z8glidevalv
 1619              		.syntax unified
 1620              		.thumb
 1621              		.thumb_func
 1623              	_Z8glidevalv:
 1624              	.LFB4822:
 351:fjol.cpp      ****   int voicenumb = 4;
 1625              		.loc 7 351 1 is_stmt 1 view -0
 1626              		.cfi_startproc
ARM GAS  /tmp/ccxnfbgf.s 			page 58


 1627              		@ args = 0, pretend = 0, frame = 0
 1628              		@ frame_needed = 0, uses_anonymous_args = 0
 1629              		@ link register save eliminated.
 352:fjol.cpp      ****   if (glidetime > 0)
 1630              		.loc 7 352 3 view .LVU411
 1631              	.LVL83:
 353:fjol.cpp      ****   {
 1632              		.loc 7 353 3 view .LVU412
 1633              	.LBB719:
 353:fjol.cpp      ****   {
 1634              		.loc 7 353 17 is_stmt 0 view .LVU413
 1635 0000 0D4B     		ldr	r3, .L93
 1636 0002 D3ED007A 		vldr.32	s15, [r3]
 353:fjol.cpp      ****   {
 1637              		.loc 7 353 3 view .LVU414
 1638 0006 F5EEC07A 		vcmpe.f32	s15, #0
 1639 000a F1EE10FA 		vmrs	APSR_nzcv, FPSCR
 1640 000e 01DD     		ble	.L92
 1641              	.LBE719:
 1642 0010 FFF7FEBF 		b	_Z8glidevalv.part.0
 1643              	.LVL84:
 1644              	.L92:
 376:fjol.cpp      ****   {
 1645              		.loc 7 376 8 is_stmt 1 view .LVU415
 1646              	.LBB722:
 1647              	.LBB720:
 1648 0014 F5EE407A 		vcmp.f32	s15, #0
 1649 0018 F1EE10FA 		vmrs	APSR_nzcv, FPSCR
 1650 001c 0BD1     		bne	.L87
 1651              	.LVL85:
 1652              	.LBB721:
 378:fjol.cpp      ****     {
 1653              		.loc 7 378 23 view .LVU416
 380:fjol.cpp      ****     }
 1654              		.loc 7 380 7 view .LVU417
 380:fjol.cpp      ****     }
 1655              		.loc 7 380 39 is_stmt 0 view .LVU418
 1656 001e 074A     		ldr	r2, .L93+4
 380:fjol.cpp      ****     }
 1657              		.loc 7 380 20 view .LVU419
 1658 0020 074B     		ldr	r3, .L93+8
 1659 0022 D2F800C0 		ldr	ip, [r2]	@ float
 1660 0026 5068     		ldr	r0, [r2, #4]	@ float
 1661 0028 9168     		ldr	r1, [r2, #8]	@ float
 1662 002a D268     		ldr	r2, [r2, #12]	@ float
 1663 002c C3F800C0 		str	ip, [r3]	@ float
 378:fjol.cpp      ****     {
 1664              		.loc 7 378 5 is_stmt 1 view .LVU420
 1665              	.LVL86:
 378:fjol.cpp      ****     {
 1666              		.loc 7 378 23 view .LVU421
 380:fjol.cpp      ****     }
 1667              		.loc 7 380 7 view .LVU422
 380:fjol.cpp      ****     }
 1668              		.loc 7 380 20 is_stmt 0 view .LVU423
 1669 0030 5860     		str	r0, [r3, #4]	@ float
 378:fjol.cpp      ****     {
ARM GAS  /tmp/ccxnfbgf.s 			page 59


 1670              		.loc 7 378 5 is_stmt 1 view .LVU424
 1671              	.LVL87:
 378:fjol.cpp      ****     {
 1672              		.loc 7 378 23 view .LVU425
 380:fjol.cpp      ****     }
 1673              		.loc 7 380 7 view .LVU426
 380:fjol.cpp      ****     }
 1674              		.loc 7 380 20 is_stmt 0 view .LVU427
 1675 0032 9960     		str	r1, [r3, #8]	@ float
 378:fjol.cpp      ****     {
 1676              		.loc 7 378 5 is_stmt 1 view .LVU428
 1677              	.LVL88:
 378:fjol.cpp      ****     {
 1678              		.loc 7 378 23 view .LVU429
 380:fjol.cpp      ****     }
 1679              		.loc 7 380 7 view .LVU430
 380:fjol.cpp      ****     }
 1680              		.loc 7 380 20 is_stmt 0 view .LVU431
 1681 0034 DA60     		str	r2, [r3, #12]	@ float
 378:fjol.cpp      ****     {
 1682              		.loc 7 378 5 is_stmt 1 view .LVU432
 1683              	.LVL89:
 378:fjol.cpp      ****     {
 1684              		.loc 7 378 23 view .LVU433
 1685              	.L87:
 378:fjol.cpp      ****     {
 1686              		.loc 7 378 23 is_stmt 0 view .LVU434
 1687              	.LBE721:
 1688              	.LBE720:
 1689              	.LBE722:
 1690              		.loc 7 383 1 view .LVU435
 1691 0036 7047     		bx	lr
 1692              	.L94:
 1693              		.align	2
 1694              	.L93:
 1695 0038 00000000 		.word	glidetime
 1696 003c 00000000 		.word	voicefreqtarget
 1697 0040 00000000 		.word	voicefreq
 1698              		.cfi_endproc
 1699              	.LFE4822:
 1701              		.section	.text._Z9midipanicv,"ax",%progbits
 1702              		.align	1
 1703              		.p2align 2,,3
 1704              		.global	_Z9midipanicv
 1705              		.syntax unified
 1706              		.thumb
 1707              		.thumb_func
 1709              	_Z9midipanicv:
 1710              	.LFB4823:
 384:fjol.cpp      **** 
 385:fjol.cpp      **** void midipanic()
 386:fjol.cpp      **** {
 1711              		.loc 7 386 1 is_stmt 1 view -0
 1712              		.cfi_startproc
 1713              		@ args = 0, pretend = 0, frame = 0
 1714              		@ frame_needed = 0, uses_anonymous_args = 0
 1715              		@ link register save eliminated.
ARM GAS  /tmp/ccxnfbgf.s 			page 60


 387:fjol.cpp      ****   voicetrig[0] = 0;
 1716              		.loc 7 387 3 view .LVU437
 1717              		.loc 7 387 16 is_stmt 0 view .LVU438
 1718 0000 0023     		movs	r3, #0
 1719 0002 044A     		ldr	r2, .L96
 388:fjol.cpp      ****   voicetrig[1] = 0;
 389:fjol.cpp      ****   voicetrig[2] = 0;
 390:fjol.cpp      ****   voicetrig[3] = 0;
 391:fjol.cpp      ****   gate_out = 0;
 1720              		.loc 7 391 12 view .LVU439
 1721 0004 0449     		ldr	r1, .L96+4
 387:fjol.cpp      ****   voicetrig[0] = 0;
 1722              		.loc 7 387 16 view .LVU440
 1723 0006 1370     		strb	r3, [r2]
 388:fjol.cpp      ****   voicetrig[1] = 0;
 1724              		.loc 7 388 3 is_stmt 1 view .LVU441
 388:fjol.cpp      ****   voicetrig[1] = 0;
 1725              		.loc 7 388 16 is_stmt 0 view .LVU442
 1726 0008 5370     		strb	r3, [r2, #1]
 389:fjol.cpp      ****   voicetrig[3] = 0;
 1727              		.loc 7 389 3 is_stmt 1 view .LVU443
 389:fjol.cpp      ****   voicetrig[3] = 0;
 1728              		.loc 7 389 16 is_stmt 0 view .LVU444
 1729 000a 9370     		strb	r3, [r2, #2]
 390:fjol.cpp      ****   gate_out = 0;
 1730              		.loc 7 390 3 is_stmt 1 view .LVU445
 390:fjol.cpp      ****   gate_out = 0;
 1731              		.loc 7 390 16 is_stmt 0 view .LVU446
 1732 000c D370     		strb	r3, [r2, #3]
 1733              		.loc 7 391 3 is_stmt 1 view .LVU447
 1734              		.loc 7 391 12 is_stmt 0 view .LVU448
 1735 000e 0B70     		strb	r3, [r1]
 392:fjol.cpp      **** }
 1736              		.loc 7 392 1 view .LVU449
 1737 0010 7047     		bx	lr
 1738              	.L97:
 1739 0012 00BF     		.align	2
 1740              	.L96:
 1741 0014 00000000 		.word	voicetrig
 1742 0018 00000000 		.word	gate_out
 1743              		.cfi_endproc
 1744              	.LFE4823:
 1746              		.section	.text._Z13update_paramsiff,"ax",%progbits
 1747              		.align	1
 1748              		.p2align 2,,3
 1749              		.global	_Z13update_paramsiff
 1750              		.syntax unified
 1751              		.thumb
 1752              		.thumb_func
 1754              	_Z13update_paramsiff:
 1755              	.LVL90:
 1756              	.LFB4824:
 393:fjol.cpp      **** 
 394:fjol.cpp      **** void update_params(int destination, float value, float mod)
 395:fjol.cpp      **** {
 1757              		.loc 7 395 1 is_stmt 1 view -0
 1758              		.cfi_startproc
ARM GAS  /tmp/ccxnfbgf.s 			page 61


 1759              		@ args = 0, pretend = 0, frame = 0
 1760              		@ frame_needed = 0, uses_anonymous_args = 0
 396:fjol.cpp      ****   
 397:fjol.cpp      ****   params_changed[destination] = 1;
 1761              		.loc 7 397 3 view .LVU451
 395:fjol.cpp      ****   
 1762              		.loc 7 395 1 is_stmt 0 view .LVU452
 1763 0000 2DE9F843 		push	{r3, r4, r5, r6, r7, r8, r9, lr}
 1764              		.cfi_def_cfa_offset 32
 1765              		.cfi_offset 3, -32
 1766              		.cfi_offset 4, -28
 1767              		.cfi_offset 5, -24
 1768              		.cfi_offset 6, -20
 1769              		.cfi_offset 7, -16
 1770              		.cfi_offset 8, -12
 1771              		.cfi_offset 9, -8
 1772              		.cfi_offset 14, -4
 1773              		.loc 7 397 31 view .LVU453
 1774 0004 274E     		ldr	r6, .L111
 1775 0006 0123     		movs	r3, #1
 395:fjol.cpp      ****   
 1776              		.loc 7 395 1 view .LVU454
 1777 0008 8146     		mov	r9, r0
 1778 000a DFF8A480 		ldr	r8, .L111+12
 1779 000e 264F     		ldr	r7, .L111+4
 1780              	.LBB723:
 398:fjol.cpp      ****   for(int i = 0; i<8; i++)
 1781              		.loc 7 398 11 view .LVU455
 1782 0010 0024     		movs	r4, #0
 1783 0012 264D     		ldr	r5, .L111+8
 1784              	.LBE723:
 397:fjol.cpp      ****   for(int i = 0; i<8; i++)
 1785              		.loc 7 397 31 view .LVU456
 1786 0014 3354     		strb	r3, [r6, r0]
 1787              		.loc 7 398 3 is_stmt 1 view .LVU457
 1788              	.LVL91:
 1789              	.LBB724:
 1790              		.loc 7 398 19 view .LVU458
 1791              	.LBE724:
 395:fjol.cpp      ****   
 1792              		.loc 7 395 1 is_stmt 0 view .LVU459
 1793 0016 2DED028B 		vpush.64	{d8}
 1794              		.cfi_def_cfa_offset 40
 1795              		.cfi_offset 80, -40
 1796              		.cfi_offset 81, -36
 395:fjol.cpp      ****   
 1797              		.loc 7 395 1 view .LVU460
 1798 001a B0EE408A 		vmov.f32	s16, s0
 1799 001e 08E0     		b	.L106
 1800              	.LVL92:
 1801              	.L100:
 1802              	.LBB725:
 1803              		.loc 7 398 3 is_stmt 1 discriminator 2 view .LVU461
 1804 0020 0134     		adds	r4, r4, #1
 1805              	.LVL93:
 1806              		.loc 7 398 19 discriminator 2 view .LVU462
 1807 0022 08F10408 		add	r8, r8, #4
ARM GAS  /tmp/ccxnfbgf.s 			page 62


 1808 0026 0437     		adds	r7, r7, #4
 1809 0028 0435     		adds	r5, r5, #4
 1810 002a 082C     		cmp	r4, #8
 1811 002c 06F10106 		add	r6, r6, #1
 1812 0030 2BD0     		beq	.L110
 1813              	.LVL94:
 1814              	.L106:
 399:fjol.cpp      ****   {
 400:fjol.cpp      ****     if(i == destination)
 1815              		.loc 7 400 5 view .LVU463
 1816 0032 A145     		cmp	r9, r4
 1817 0034 F4D1     		bne	.L100
 401:fjol.cpp      ****     {
 402:fjol.cpp      ****       param[i]+= value;
 1818              		.loc 7 402 7 view .LVU464
 403:fjol.cpp      ****       if(param[i] > 1){param[i] = 1; params_changed[i] = 0; led_update(i);}
 1819              		.loc 7 403 24 view .LVU465
 402:fjol.cpp      ****       if(param[i] > 1){param[i] = 1; params_changed[i] = 0; led_update(i);}
 1820              		.loc 7 402 15 is_stmt 0 view .LVU466
 1821 0036 D5ED007A 		vldr.32	s15, [r5]
 1822              		.loc 7 403 7 view .LVU467
 1823 003a B7EE007A 		vmov.f32	s14, #1.0e+0
 1824              		.loc 7 403 56 view .LVU468
 1825 003e 0023     		movs	r3, #0
 1826              		.loc 7 403 71 view .LVU469
 1827 0040 5FFA89F0 		uxtb	r0, r9
 402:fjol.cpp      ****       if(param[i] > 1){param[i] = 1; params_changed[i] = 0; led_update(i);}
 1828              		.loc 7 402 15 view .LVU470
 1829 0044 78EE277A 		vadd.f32	s15, s16, s15
 1830              		.loc 7 403 7 is_stmt 1 view .LVU471
 1831 0048 F4EEC77A 		vcmpe.f32	s15, s14
 1832 004c F1EE10FA 		vmrs	APSR_nzcv, FPSCR
 1833 0050 1FDC     		bgt	.L101
 402:fjol.cpp      ****       if(param[i] > 1){param[i] = 1; params_changed[i] = 0; led_update(i);}
 1834              		.loc 7 402 15 is_stmt 0 view .LVU472
 1835 0052 C5ED007A 		vstr.32	s15, [r5]
 1836              	.L102:
 404:fjol.cpp      ****       if(param[i] > 0){param[i] = 0; params_changed[i] = 0; led_update(i);}
 1837              		.loc 7 404 7 is_stmt 1 view .LVU473
 1838              		.loc 7 404 24 view .LVU474
 1839              		.loc 7 404 7 is_stmt 0 view .LVU475
 1840 0056 F5EEC07A 		vcmpe.f32	s15, #0
 1841 005a 0023     		movs	r3, #0
 1842              		.loc 7 404 56 view .LVU476
 1843 005c 0022     		movs	r2, #0
 1844              		.loc 7 404 71 view .LVU477
 1845 005e E0B2     		uxtb	r0, r4
 1846              		.loc 7 404 7 view .LVU478
 1847 0060 F1EE10FA 		vmrs	APSR_nzcv, FPSCR
 1848 0064 05DD     		ble	.L103
 1849              		.loc 7 404 56 discriminator 1 view .LVU479
 1850 0066 3270     		strb	r2, [r6]
 1851              		.loc 7 404 33 discriminator 1 view .LVU480
 1852 0068 2B60     		str	r3, [r5]	@ float
 1853              		.loc 7 404 38 is_stmt 1 discriminator 1 view .LVU481
 1854              		.loc 7 404 61 discriminator 1 view .LVU482
 1855              		.loc 7 404 71 is_stmt 0 discriminator 1 view .LVU483
ARM GAS  /tmp/ccxnfbgf.s 			page 63


 1856 006a FFF7FEFF 		bl	_Z10led_updateh
 1857              	.LVL95:
 405:fjol.cpp      ****       param_sum[i] = param[i] + cv_mod[i];
 1858              		.loc 7 405 29 discriminator 1 view .LVU484
 1859 006e D5ED007A 		vldr.32	s15, [r5]
 1860              	.L103:
 1861              		.loc 7 405 7 is_stmt 1 view .LVU485
 1862              		.loc 7 405 31 is_stmt 0 view .LVU486
 1863 0072 98ED007A 		vldr.32	s14, [r8]
 1864 0076 77EE277A 		vadd.f32	s15, s14, s15
 1865              		.loc 7 405 20 view .LVU487
 1866 007a C7ED007A 		vstr.32	s15, [r7]
 406:fjol.cpp      ****       if(destination == 0){updatespread();}
 1867              		.loc 7 406 7 is_stmt 1 view .LVU488
 1868 007e B9F1000F 		cmp	r9, #0
 1869 0082 CDD1     		bne	.L100
 1870              		.loc 7 406 28 discriminator 1 view .LVU489
 1871              		.loc 7 406 40 is_stmt 0 discriminator 1 view .LVU490
 1872 0084 FFF7FEFF 		bl	_Z12updatespreadv
 1873              	.LVL96:
 1874 0088 CAE7     		b	.L100
 1875              	.L110:
 1876              		.loc 7 406 40 discriminator 1 view .LVU491
 1877              	.LBE725:
 407:fjol.cpp      ****     }
 408:fjol.cpp      ****   }
 409:fjol.cpp      **** }
 1878              		.loc 7 409 1 view .LVU492
 1879 008a BDEC028B 		vldm	sp!, {d8}
 1880              		.cfi_remember_state
 1881              		.cfi_restore 80
 1882              		.cfi_restore 81
 1883              		.cfi_def_cfa_offset 32
 1884              	.LVL97:
 1885              		.loc 7 409 1 view .LVU493
 1886 008e BDE8F883 		pop	{r3, r4, r5, r6, r7, r8, r9, pc}
 1887              	.LVL98:
 1888              	.L101:
 1889              		.cfi_restore_state
 1890              	.LBB726:
 403:fjol.cpp      ****       if(param[i] > 0){param[i] = 0; params_changed[i] = 0; led_update(i);}
 1891              		.loc 7 403 56 discriminator 1 view .LVU494
 1892 0092 3370     		strb	r3, [r6]
 403:fjol.cpp      ****       if(param[i] > 0){param[i] = 0; params_changed[i] = 0; led_update(i);}
 1893              		.loc 7 403 33 discriminator 1 view .LVU495
 1894 0094 85ED007A 		vstr.32	s14, [r5]
 403:fjol.cpp      ****       if(param[i] > 0){param[i] = 0; params_changed[i] = 0; led_update(i);}
 1895              		.loc 7 403 38 is_stmt 1 discriminator 1 view .LVU496
 403:fjol.cpp      ****       if(param[i] > 0){param[i] = 0; params_changed[i] = 0; led_update(i);}
 1896              		.loc 7 403 61 discriminator 1 view .LVU497
 403:fjol.cpp      ****       if(param[i] > 0){param[i] = 0; params_changed[i] = 0; led_update(i);}
 1897              		.loc 7 403 71 is_stmt 0 discriminator 1 view .LVU498
 1898 0098 FFF7FEFF 		bl	_Z10led_updateh
 1899              	.LVL99:
 404:fjol.cpp      ****       param_sum[i] = param[i] + cv_mod[i];
 1900              		.loc 7 404 17 discriminator 1 view .LVU499
 1901 009c D5ED007A 		vldr.32	s15, [r5]
ARM GAS  /tmp/ccxnfbgf.s 			page 64


 1902 00a0 D9E7     		b	.L102
 1903              	.L112:
 1904 00a2 00BF     		.align	2
 1905              	.L111:
 1906 00a4 00000000 		.word	params_changed
 1907 00a8 00000000 		.word	param_sum
 1908 00ac 00000000 		.word	param
 1909 00b0 00000000 		.word	cv_mod
 1910              	.LBE726:
 1911              		.cfi_endproc
 1912              	.LFE4824:
 1914              		.section	.text._Z16select_algorithmv,"ax",%progbits
 1915              		.align	1
 1916              		.p2align 2,,3
 1917              		.global	_Z16select_algorithmv
 1918              		.syntax unified
 1919              		.thumb
 1920              		.thumb_func
 1922              	_Z16select_algorithmv:
 1923              	.LFB4825:
 410:fjol.cpp      **** 
 411:fjol.cpp      **** void select_algorithm()
 412:fjol.cpp      **** {
 1924              		.loc 7 412 1 is_stmt 1 view -0
 1925              		.cfi_startproc
 1926              		@ args = 0, pretend = 0, frame = 0
 1927              		@ frame_needed = 0, uses_anonymous_args = 0
 1928              		@ link register save eliminated.
 413:fjol.cpp      ****   switch(algo_select)
 1929              		.loc 7 413 3 view .LVU501
 1930              	.LBB727:
 1931              		.loc 7 413 10 is_stmt 0 view .LVU502
 1932 0000 1D4B     		ldr	r3, .L125
 1933 0002 1B78     		ldrb	r3, [r3]	@ zero_extendqisi2
 1934              		.loc 7 413 3 view .LVU503
 1935 0004 012B     		cmp	r3, #1
 1936 0006 03D0     		beq	.L114
 1937 0008 022B     		cmp	r3, #2
 1938 000a 23D0     		beq	.L115
 1939 000c 8BB1     		cbz	r3, .L124
 1940              	.LBE727:
 414:fjol.cpp      ****     {
 415:fjol.cpp      ****       case 0:
 416:fjol.cpp      ****       for(int i = 0; i<4; i++)
 417:fjol.cpp      ****       {
 418:fjol.cpp      ****         voice[i].op21 = 1;
 419:fjol.cpp      ****         voice[i].op31 = 1;
 420:fjol.cpp      ****         voice[i].op32 = 0;
 421:fjol.cpp      ****         voice[i].op2out = 0;
 422:fjol.cpp      ****       }
 423:fjol.cpp      ****       return;
 424:fjol.cpp      ****       break;
 425:fjol.cpp      ****       case 1:
 426:fjol.cpp      ****       for(int i = 0; i<4; i++)
 427:fjol.cpp      ****       {
 428:fjol.cpp      ****         voice[i].op21 = 1;
 429:fjol.cpp      ****         voice[i].op31 = 0;
ARM GAS  /tmp/ccxnfbgf.s 			page 65


 430:fjol.cpp      ****         voice[i].op32 = 1;
 431:fjol.cpp      ****         voice[i].op2out = 0;
 432:fjol.cpp      ****       }
 433:fjol.cpp      ****       return; 
 434:fjol.cpp      ****       break;
 435:fjol.cpp      ****       case 2:
 436:fjol.cpp      ****       for(int i = 0; i<4; i++)
 437:fjol.cpp      ****       {
 438:fjol.cpp      ****         voice[i].op21 = 0;
 439:fjol.cpp      ****         voice[i].op31 = 1;
 440:fjol.cpp      ****         voice[i].op32 = 0;
 441:fjol.cpp      ****         voice[i].op2out = 1;
 442:fjol.cpp      ****       }
 443:fjol.cpp      ****       return;
 444:fjol.cpp      ****       break;
 445:fjol.cpp      ****     }
 446:fjol.cpp      **** }
 1941              		.loc 7 446 1 view .LVU504
 1942 000e 7047     		bx	lr
 1943              	.L114:
 1944 0010 1A4B     		ldr	r3, .L125+4
 1945 0012 03F53870 		add	r0, r3, #736
 1946              	.L119:
 1947              	.LBB731:
 1948              	.LBB728:
 428:fjol.cpp      ****         voice[i].op31 = 0;
 1949              		.loc 7 428 9 is_stmt 1 discriminator 2 view .LVU505
 426:fjol.cpp      ****       {
 1950              		.loc 7 426 23 is_stmt 0 discriminator 2 view .LVU506
 1951 0016 B833     		adds	r3, r3, #184
 428:fjol.cpp      ****         voice[i].op31 = 0;
 1952              		.loc 7 428 23 discriminator 2 view .LVU507
 1953 0018 0121     		movs	r1, #1
 429:fjol.cpp      ****         voice[i].op32 = 1;
 1954              		.loc 7 429 23 discriminator 2 view .LVU508
 1955 001a 0022     		movs	r2, #0
 426:fjol.cpp      ****       {
 1956              		.loc 7 426 23 discriminator 2 view .LVU509
 1957 001c 8342     		cmp	r3, r0
 428:fjol.cpp      ****         voice[i].op31 = 0;
 1958              		.loc 7 428 23 discriminator 2 view .LVU510
 1959 001e 03F81E1C 		strb	r1, [r3, #-30]
 429:fjol.cpp      ****         voice[i].op32 = 1;
 1960              		.loc 7 429 9 is_stmt 1 discriminator 2 view .LVU511
 429:fjol.cpp      ****         voice[i].op32 = 1;
 1961              		.loc 7 429 23 is_stmt 0 discriminator 2 view .LVU512
 1962 0022 03F81F2C 		strb	r2, [r3, #-31]
 430:fjol.cpp      ****         voice[i].op2out = 0;
 1963              		.loc 7 430 9 is_stmt 1 discriminator 2 view .LVU513
 430:fjol.cpp      ****         voice[i].op2out = 0;
 1964              		.loc 7 430 23 is_stmt 0 discriminator 2 view .LVU514
 1965 0026 03F8201C 		strb	r1, [r3, #-32]
 431:fjol.cpp      ****       }
 1966              		.loc 7 431 9 is_stmt 1 discriminator 2 view .LVU515
 431:fjol.cpp      ****       }
 1967              		.loc 7 431 25 is_stmt 0 discriminator 2 view .LVU516
 1968 002a 03F81D2C 		strb	r2, [r3, #-29]
ARM GAS  /tmp/ccxnfbgf.s 			page 66


 426:fjol.cpp      ****       {
 1969              		.loc 7 426 7 is_stmt 1 discriminator 2 view .LVU517
 426:fjol.cpp      ****       {
 1970              		.loc 7 426 23 discriminator 2 view .LVU518
 1971 002e F2D1     		bne	.L119
 1972 0030 7047     		bx	lr
 1973              	.L124:
 1974 0032 124B     		ldr	r3, .L125+4
 1975 0034 03F53870 		add	r0, r3, #736
 1976              	.L117:
 1977              	.LBE728:
 1978              	.LBB729:
 418:fjol.cpp      ****         voice[i].op31 = 1;
 1979              		.loc 7 418 9 discriminator 2 view .LVU519
 416:fjol.cpp      ****       {
 1980              		.loc 7 416 23 is_stmt 0 discriminator 2 view .LVU520
 1981 0038 B833     		adds	r3, r3, #184
 418:fjol.cpp      ****         voice[i].op31 = 1;
 1982              		.loc 7 418 23 discriminator 2 view .LVU521
 1983 003a 0121     		movs	r1, #1
 420:fjol.cpp      ****         voice[i].op2out = 0;
 1984              		.loc 7 420 23 discriminator 2 view .LVU522
 1985 003c 0022     		movs	r2, #0
 416:fjol.cpp      ****       {
 1986              		.loc 7 416 23 discriminator 2 view .LVU523
 1987 003e 8342     		cmp	r3, r0
 418:fjol.cpp      ****         voice[i].op31 = 1;
 1988              		.loc 7 418 23 discriminator 2 view .LVU524
 1989 0040 03F81E1C 		strb	r1, [r3, #-30]
 419:fjol.cpp      ****         voice[i].op32 = 0;
 1990              		.loc 7 419 9 is_stmt 1 discriminator 2 view .LVU525
 419:fjol.cpp      ****         voice[i].op32 = 0;
 1991              		.loc 7 419 23 is_stmt 0 discriminator 2 view .LVU526
 1992 0044 03F81F1C 		strb	r1, [r3, #-31]
 420:fjol.cpp      ****         voice[i].op2out = 0;
 1993              		.loc 7 420 9 is_stmt 1 discriminator 2 view .LVU527
 420:fjol.cpp      ****         voice[i].op2out = 0;
 1994              		.loc 7 420 23 is_stmt 0 discriminator 2 view .LVU528
 1995 0048 03F8202C 		strb	r2, [r3, #-32]
 421:fjol.cpp      ****       }
 1996              		.loc 7 421 9 is_stmt 1 discriminator 2 view .LVU529
 421:fjol.cpp      ****       }
 1997              		.loc 7 421 25 is_stmt 0 discriminator 2 view .LVU530
 1998 004c 03F81D2C 		strb	r2, [r3, #-29]
 416:fjol.cpp      ****       {
 1999              		.loc 7 416 7 is_stmt 1 discriminator 2 view .LVU531
 416:fjol.cpp      ****       {
 2000              		.loc 7 416 23 discriminator 2 view .LVU532
 2001 0050 F2D1     		bne	.L117
 2002 0052 7047     		bx	lr
 2003              	.L115:
 2004 0054 094B     		ldr	r3, .L125+4
 2005 0056 03F53870 		add	r0, r3, #736
 2006              	.L120:
 2007              	.LBE729:
 2008              	.LBB730:
 438:fjol.cpp      ****         voice[i].op31 = 1;
ARM GAS  /tmp/ccxnfbgf.s 			page 67


 2009              		.loc 7 438 9 discriminator 2 view .LVU533
 436:fjol.cpp      ****       {
 2010              		.loc 7 436 23 is_stmt 0 discriminator 2 view .LVU534
 2011 005a B833     		adds	r3, r3, #184
 438:fjol.cpp      ****         voice[i].op31 = 1;
 2012              		.loc 7 438 23 discriminator 2 view .LVU535
 2013 005c 0021     		movs	r1, #0
 439:fjol.cpp      ****         voice[i].op32 = 0;
 2014              		.loc 7 439 23 discriminator 2 view .LVU536
 2015 005e 0122     		movs	r2, #1
 436:fjol.cpp      ****       {
 2016              		.loc 7 436 23 discriminator 2 view .LVU537
 2017 0060 8342     		cmp	r3, r0
 438:fjol.cpp      ****         voice[i].op31 = 1;
 2018              		.loc 7 438 23 discriminator 2 view .LVU538
 2019 0062 03F81E1C 		strb	r1, [r3, #-30]
 439:fjol.cpp      ****         voice[i].op32 = 0;
 2020              		.loc 7 439 9 is_stmt 1 discriminator 2 view .LVU539
 439:fjol.cpp      ****         voice[i].op32 = 0;
 2021              		.loc 7 439 23 is_stmt 0 discriminator 2 view .LVU540
 2022 0066 03F81F2C 		strb	r2, [r3, #-31]
 440:fjol.cpp      ****         voice[i].op2out = 1;
 2023              		.loc 7 440 9 is_stmt 1 discriminator 2 view .LVU541
 440:fjol.cpp      ****         voice[i].op2out = 1;
 2024              		.loc 7 440 23 is_stmt 0 discriminator 2 view .LVU542
 2025 006a 03F8201C 		strb	r1, [r3, #-32]
 441:fjol.cpp      ****       }
 2026              		.loc 7 441 9 is_stmt 1 discriminator 2 view .LVU543
 441:fjol.cpp      ****       }
 2027              		.loc 7 441 25 is_stmt 0 discriminator 2 view .LVU544
 2028 006e 03F81D2C 		strb	r2, [r3, #-29]
 436:fjol.cpp      ****       {
 2029              		.loc 7 436 7 is_stmt 1 discriminator 2 view .LVU545
 436:fjol.cpp      ****       {
 2030              		.loc 7 436 23 discriminator 2 view .LVU546
 2031 0072 F2D1     		bne	.L120
 2032              	.LBE730:
 2033              	.LBE731:
 2034              		.loc 7 446 1 is_stmt 0 view .LVU547
 2035 0074 7047     		bx	lr
 2036              	.L126:
 2037 0076 00BF     		.align	2
 2038              	.L125:
 2039 0078 00000000 		.word	algo_select
 2040 007c 00000000 		.word	.LANCHOR0
 2041              		.cfi_endproc
 2042              	.LFE4825:
 2044              		.section	.text._Z9updateadcv,"ax",%progbits
 2045              		.align	1
 2046              		.p2align 2,,3
 2047              		.global	_Z9updateadcv
 2048              		.syntax unified
 2049              		.thumb
 2050              		.thumb_func
 2052              	_Z9updateadcv:
 2053              	.LFB4827:
 447:fjol.cpp      **** 
ARM GAS  /tmp/ccxnfbgf.s 			page 68


 448:fjol.cpp      **** void updatecontrols()
 449:fjol.cpp      **** {
 450:fjol.cpp      ****   float temp = 0;
 451:fjol.cpp      ****   if(led_takeover == 0)
 452:fjol.cpp      ****   {
 453:fjol.cpp      ****    for(int i= 0; i<2; i++)
 454:fjol.cpp      ****    {
 455:fjol.cpp      ****      enc[i].enc.Debounce();
 456:fjol.cpp      ****      if(enc[i].enc.Pressed() == 0)
 457:fjol.cpp      ****      {temp = encoder_read(enc[i].enc.Increment());}
 458:fjol.cpp      ****      if(temp != 0)
 459:fjol.cpp      ****      {update_params(enc[i].ctldest,temp,0);}
 460:fjol.cpp      ****    }
 461:fjol.cpp      ****   }
 462:fjol.cpp      ****   updateSwitches();
 463:fjol.cpp      ****   updateadc();
 464:fjol.cpp      **** }
 465:fjol.cpp      **** 
 466:fjol.cpp      **** void updateadc()
 467:fjol.cpp      **** {
 2054              		.loc 7 467 1 is_stmt 1 view -0
 2055              		.cfi_startproc
 2056              		@ args = 0, pretend = 0, frame = 0
 2057              		@ frame_needed = 0, uses_anonymous_args = 0
 468:fjol.cpp      **** 
 469:fjol.cpp      ****   for(int i = 0; i<8; i++)
 2058              		.loc 7 469 3 view .LVU549
 2059              	.LVL100:
 2060              	.LBB732:
 2061              		.loc 7 469 19 view .LVU550
 2062              	.LBE732:
 467:fjol.cpp      **** 
 2063              		.loc 7 467 1 is_stmt 0 view .LVU551
 2064 0000 F8B5     		push	{r3, r4, r5, r6, r7, lr}
 2065              		.cfi_def_cfa_offset 24
 2066              		.cfi_offset 3, -24
 2067              		.cfi_offset 4, -20
 2068              		.cfi_offset 5, -16
 2069              		.cfi_offset 6, -12
 2070              		.cfi_offset 7, -8
 2071              		.cfi_offset 14, -4
 2072 0002 334E     		ldr	r6, .L139
 2073 0004 334C     		ldr	r4, .L139+4
 2074 0006 3546     		mov	r5, r6
 2075 0008 06F12007 		add	r7, r6, #32
 2076              	.LVL101:
 2077              	.L128:
 2078              	.LBB733:
 470:fjol.cpp      ****   {
 471:fjol.cpp      ****     controls[i].value = controls[i].param.Process();
 2079              		.loc 7 471 5 is_stmt 1 view .LVU552
 2080              		.loc 7 471 50 is_stmt 0 view .LVU553
 2081 000c 2046     		mov	r0, r4
 469:fjol.cpp      ****   {
 2082              		.loc 7 469 19 view .LVU554
 2083 000e 5C34     		adds	r4, r4, #92
 2084              		.loc 7 471 50 view .LVU555
ARM GAS  /tmp/ccxnfbgf.s 			page 69


 2085 0010 FFF7FEFF 		bl	_ZN5daisy9Parameter7ProcessEv
 2086              	.LVL102:
 472:fjol.cpp      ****     //this is to prevent unnecessary changes
 473:fjol.cpp      ****     if(controls[i].value != knob_value[i])
 474:fjol.cpp      ****     {
 475:fjol.cpp      ****       knob_value[i] = controls[i].value;
 2087              		.loc 7 475 7 is_stmt 1 view .LVU556
 469:fjol.cpp      ****   {
 2088              		.loc 7 469 3 view .LVU557
 469:fjol.cpp      ****   {
 2089              		.loc 7 469 19 view .LVU558
 473:fjol.cpp      ****     {
 2090              		.loc 7 473 41 is_stmt 0 view .LVU559
 2091 0014 F5EC017A 		vldmia.32	r5!, {s15}
 471:fjol.cpp      ****     //this is to prevent unnecessary changes
 2092              		.loc 7 471 23 view .LVU560
 2093 0018 04ED090A 		vstr.32	s0, [r4, #-36]
 473:fjol.cpp      ****     {
 2094              		.loc 7 473 5 is_stmt 1 view .LVU561
 2095 001c B4EE670A 		vcmp.f32	s0, s15
 2096 0020 F1EE10FA 		vmrs	APSR_nzcv, FPSCR
 2097              		.loc 7 475 21 is_stmt 0 view .LVU562
 2098 0024 18BF     		it	ne
 2099 0026 05ED010A 		vstrne.32	s0, [r5, #-4]
 469:fjol.cpp      ****   {
 2100              		.loc 7 469 19 view .LVU563
 2101 002a BD42     		cmp	r5, r7
 2102 002c EED1     		bne	.L128
 2103              	.LVL103:
 469:fjol.cpp      ****   {
 2104              		.loc 7 469 19 view .LVU564
 2105              	.LBE733:
 2106              	.LBB734:
 476:fjol.cpp      ****     }
 477:fjol.cpp      ****   }
 478:fjol.cpp      ****   for(int i = 0; i<2; i++)
 2107              		.loc 7 478 19 is_stmt 1 view .LVU565
 479:fjol.cpp      ****   {
 480:fjol.cpp      ****     cv_value[i] = cv[i].input.Process();
 2108              		.loc 7 480 5 view .LVU566
 481:fjol.cpp      ****     if(cv_mod[enc[i].ctlcvdest] != cv_value[i])
 2109              		.loc 7 481 22 is_stmt 0 view .LVU567
 2110 002e 2A4D     		ldr	r5, .L139+8
 480:fjol.cpp      ****     if(cv_mod[enc[i].ctlcvdest] != cv_value[i])
 2111              		.loc 7 480 38 view .LVU568
 2112 0030 2A48     		ldr	r0, .L139+12
 2113 0032 FFF7FEFF 		bl	_ZN5daisy13AnalogControl7ProcessEv
 2114              	.LVL104:
 2115              		.loc 7 481 31 view .LVU569
 2116 0036 2A4C     		ldr	r4, .L139+16
 2117              		.loc 7 481 22 view .LVU570
 2118 0038 95F82930 		ldrb	r3, [r5, #41]	@ zero_extendqisi2
 480:fjol.cpp      ****     if(cv_mod[enc[i].ctlcvdest] != cv_value[i])
 2119              		.loc 7 480 17 view .LVU571
 2120 003c 294F     		ldr	r7, .L139+20
 2121              		.loc 7 481 31 view .LVU572
 2122 003e 04EB8303 		add	r3, r4, r3, lsl #2
ARM GAS  /tmp/ccxnfbgf.s 			page 70


 480:fjol.cpp      ****     if(cv_mod[enc[i].ctlcvdest] != cv_value[i])
 2123              		.loc 7 480 17 view .LVU573
 2124 0042 87ED000A 		vstr.32	s0, [r7]
 2125              		.loc 7 481 5 is_stmt 1 view .LVU574
 2126 0046 D3ED007A 		vldr.32	s15, [r3]
 2127 004a B4EE670A 		vcmp.f32	s0, s15
 2128 004e F1EE10FA 		vmrs	APSR_nzcv, FPSCR
 2129 0052 04D0     		beq	.L129
 482:fjol.cpp      ****     {
 483:fjol.cpp      ****       cv_mod[enc[i].ctlcvdest] = cv_value[i];
 2130              		.loc 7 483 7 view .LVU575
 2131              		.loc 7 483 32 is_stmt 0 view .LVU576
 2132 0054 83ED000A 		vstr.32	s0, [r3]
 484:fjol.cpp      ****       params_changed[i] = 1;
 2133              		.loc 7 484 7 is_stmt 1 view .LVU577
 2134              		.loc 7 484 25 is_stmt 0 view .LVU578
 2135 0058 0122     		movs	r2, #1
 2136 005a 234B     		ldr	r3, .L139+24
 2137 005c 1A70     		strb	r2, [r3]
 2138              	.L129:
 478:fjol.cpp      ****   {
 2139              		.loc 7 478 3 is_stmt 1 view .LVU579
 2140              	.LVL105:
 478:fjol.cpp      ****   {
 2141              		.loc 7 478 19 view .LVU580
 480:fjol.cpp      ****     if(cv_mod[enc[i].ctlcvdest] != cv_value[i])
 2142              		.loc 7 480 5 view .LVU581
 480:fjol.cpp      ****     if(cv_mod[enc[i].ctlcvdest] != cv_value[i])
 2143              		.loc 7 480 38 is_stmt 0 view .LVU582
 2144 005e 2348     		ldr	r0, .L139+28
 2145 0060 FFF7FEFF 		bl	_ZN5daisy13AnalogControl7ProcessEv
 2146              	.LVL106:
 481:fjol.cpp      ****     {
 2147              		.loc 7 481 22 view .LVU583
 2148 0064 95F85530 		ldrb	r3, [r5, #85]	@ zero_extendqisi2
 480:fjol.cpp      ****     if(cv_mod[enc[i].ctlcvdest] != cv_value[i])
 2149              		.loc 7 480 17 view .LVU584
 2150 0068 87ED010A 		vstr.32	s0, [r7, #4]
 481:fjol.cpp      ****     {
 2151              		.loc 7 481 5 is_stmt 1 view .LVU585
 481:fjol.cpp      ****     {
 2152              		.loc 7 481 31 is_stmt 0 view .LVU586
 2153 006c 04EB8303 		add	r3, r4, r3, lsl #2
 481:fjol.cpp      ****     {
 2154              		.loc 7 481 5 view .LVU587
 2155 0070 D3ED007A 		vldr.32	s15, [r3]
 2156 0074 B4EE670A 		vcmp.f32	s0, s15
 2157 0078 F1EE10FA 		vmrs	APSR_nzcv, FPSCR
 2158 007c 04D0     		beq	.L130
 483:fjol.cpp      ****       params_changed[i] = 1;
 2159              		.loc 7 483 7 is_stmt 1 view .LVU588
 2160              		.loc 7 484 25 is_stmt 0 view .LVU589
 2161 007e 1A4A     		ldr	r2, .L139+24
 483:fjol.cpp      ****       params_changed[i] = 1;
 2162              		.loc 7 483 32 view .LVU590
 2163 0080 83ED000A 		vstr.32	s0, [r3]
 2164              		.loc 7 484 7 is_stmt 1 view .LVU591
ARM GAS  /tmp/ccxnfbgf.s 			page 71


 2165              		.loc 7 484 25 is_stmt 0 view .LVU592
 2166 0084 0123     		movs	r3, #1
 2167 0086 5370     		strb	r3, [r2, #1]
 2168              	.LVL107:
 2169              		.loc 7 484 25 view .LVU593
 2170              	.LBE734:
 2171              	.LBB735:
 2172              	.LBB736:
 485:fjol.cpp      ****     }
 486:fjol.cpp      ****   }
 487:fjol.cpp      ****   
 488:fjol.cpp      ****   //reset values that cv destination isn't mapped to
 489:fjol.cpp      ****   for(int j = 0; j<1; j++)
 490:fjol.cpp      ****   {
 491:fjol.cpp      ****    for(int i = 0; i<7; i++)
 2173              		.loc 7 491 20 is_stmt 1 view .LVU594
 2174              	.L130:
 492:fjol.cpp      ****    {
 493:fjol.cpp      ****      if(i != enc[j].ctlcvdest)
 2175              		.loc 7 493 21 is_stmt 0 view .LVU595
 2176 0088 95F82920 		ldrb	r2, [r5, #41]	@ zero_extendqisi2
 2177 008c 0023     		movs	r3, #0
 2178              	.L134:
 2179              	.LVL108:
 2180              		.loc 7 493 6 is_stmt 1 view .LVU596
 494:fjol.cpp      ****      {
 495:fjol.cpp      ****        cv_mod[enc[j].ctlcvdest] = 0;
 2181              		.loc 7 495 8 view .LVU597
 491:fjol.cpp      ****    {
 2182              		.loc 7 491 4 view .LVU598
 493:fjol.cpp      ****      {
 2183              		.loc 7 493 6 is_stmt 0 view .LVU599
 2184 008e 9A42     		cmp	r2, r3
 2185              		.loc 7 495 33 view .LVU600
 2186 0090 04EB8201 		add	r1, r4, r2, lsl #2
 491:fjol.cpp      ****    {
 2187              		.loc 7 491 4 view .LVU601
 2188 0094 03F10103 		add	r3, r3, #1
 2189              	.LVL109:
 491:fjol.cpp      ****    {
 2190              		.loc 7 491 20 is_stmt 1 view .LVU602
 2191              		.loc 7 495 33 is_stmt 0 view .LVU603
 2192 0098 4FF00000 		mov	r0, #0
 2193 009c 18BF     		it	ne
 2194 009e 0860     		strne	r0, [r1]	@ float
 491:fjol.cpp      ****    {
 2195              		.loc 7 491 20 view .LVU604
 2196 00a0 072B     		cmp	r3, #7
 2197 00a2 F4D1     		bne	.L134
 2198 00a4 124C     		ldr	r4, .L139+32
 2199 00a6 04F58075 		add	r5, r4, #256
 2200              	.LVL110:
 2201              	.L135:
 491:fjol.cpp      ****    {
 2202              		.loc 7 491 20 view .LVU605
 2203              	.LBE736:
 2204              	.LBE735:
ARM GAS  /tmp/ccxnfbgf.s 			page 72


 2205              	.LBB737:
 496:fjol.cpp      ****      }
 497:fjol.cpp      ****    }
 498:fjol.cpp      ****   }//reset cv array ends
 499:fjol.cpp      ****   //set attack decay for envelope
 500:fjol.cpp      ****   for(int i = 0; i<4; i++)
 501:fjol.cpp      ****   {
 502:fjol.cpp      ****     envelope[i].env.SetAttackTime(knob_value[4]);
 2206              		.loc 7 502 5 is_stmt 1 discriminator 2 view .LVU606
 2207              		.loc 7 502 34 is_stmt 0 discriminator 2 view .LVU607
 2208 00aa 2046     		mov	r0, r4
 2209 00ac DFED110A 		vldr.32	s1, .L139+36
 2210 00b0 96ED040A 		vldr.32	s0, [r6, #16]
 2211 00b4 FFF7FEFF 		bl	_ZN7daisysp4Adsr13SetAttackTimeEff
 2212              	.LVL111:
 503:fjol.cpp      ****     envelope[i].env.SetDecayTime(knob_value[5]);
 2213              		.loc 7 503 5 is_stmt 1 discriminator 2 view .LVU608
 2214              		.loc 7 503 33 is_stmt 0 discriminator 2 view .LVU609
 2215 00b8 2046     		mov	r0, r4
 500:fjol.cpp      ****   {
 2216              		.loc 7 500 19 discriminator 2 view .LVU610
 2217 00ba 4034     		adds	r4, r4, #64
 2218              		.loc 7 503 33 discriminator 2 view .LVU611
 2219 00bc 96ED050A 		vldr.32	s0, [r6, #20]
 2220 00c0 FFF7FEFF 		bl	_ZN7daisysp4Adsr12SetDecayTimeEf
 2221              	.LVL112:
 500:fjol.cpp      ****   {
 2222              		.loc 7 500 3 is_stmt 1 discriminator 2 view .LVU612
 500:fjol.cpp      ****   {
 2223              		.loc 7 500 19 discriminator 2 view .LVU613
 2224 00c4 A542     		cmp	r5, r4
 2225 00c6 F0D1     		bne	.L135
 2226              	.LBE737:
 504:fjol.cpp      ****   }
 505:fjol.cpp      ****   filtenvelope.env.SetMax(knob_value[7]); //set amplitude of envelope for filter
 2227              		.loc 7 505 3 view .LVU614
 2228              	.LVL113:
 2229              	.LBB738:
 2230              	.LBI738:
  36:DaisySP/Source/Control/adenv.h ****     /** Initializes the ad envelope.
  37:DaisySP/Source/Control/adenv.h **** 
  38:DaisySP/Source/Control/adenv.h ****         Defaults:
  39:DaisySP/Source/Control/adenv.h ****             - current segment = idle
  40:DaisySP/Source/Control/adenv.h ****             - curve = linear
  41:DaisySP/Source/Control/adenv.h ****             - phase = 0
  42:DaisySP/Source/Control/adenv.h ****             - min = 0
  43:DaisySP/Source/Control/adenv.h ****             - max = 1
  44:DaisySP/Source/Control/adenv.h **** 
  45:DaisySP/Source/Control/adenv.h ****         \param sample_rate      sample rate of the audio engine being run
  46:DaisySP/Source/Control/adenv.h ****     */
  47:DaisySP/Source/Control/adenv.h ****     void Init(float sample_rate);
  48:DaisySP/Source/Control/adenv.h **** 
  49:DaisySP/Source/Control/adenv.h ****     /** Processes the current sample of the envelope. This should be called once
  50:DaisySP/Source/Control/adenv.h ****         per sample period.
  51:DaisySP/Source/Control/adenv.h ****         \return the current envelope value.
  52:DaisySP/Source/Control/adenv.h ****     */
  53:DaisySP/Source/Control/adenv.h ****     float Process();
ARM GAS  /tmp/ccxnfbgf.s 			page 73


  54:DaisySP/Source/Control/adenv.h **** 
  55:DaisySP/Source/Control/adenv.h ****     /** Starts or retriggers the envelope.*/
  56:DaisySP/Source/Control/adenv.h ****     inline void Trigger() { trigger_ = 1; }
  57:DaisySP/Source/Control/adenv.h ****     /** Sets the length of time (in seconds) for a specific segment. */
  58:DaisySP/Source/Control/adenv.h ****     inline void SetTime(uint8_t seg, float time) { segment_time_[seg] = time; }
  59:DaisySP/Source/Control/adenv.h ****     /** Sets the amount of curve applied. A positve value will create a log
  60:DaisySP/Source/Control/adenv.h ****         curve. Input range: -100 to 100.  (or more)
  61:DaisySP/Source/Control/adenv.h ****     */
  62:DaisySP/Source/Control/adenv.h ****     inline void SetCurve(float scalar) { curve_scalar_ = scalar; }
  63:DaisySP/Source/Control/adenv.h ****     /** Sets the minimum value of the envelope output.
  64:DaisySP/Source/Control/adenv.h ****         Input range: -FLTmax_, to FLTmax_
  65:DaisySP/Source/Control/adenv.h ****     */
  66:DaisySP/Source/Control/adenv.h ****     inline void SetMin(float min) { min_ = min; }
  67:DaisySP/Source/Control/adenv.h ****     /** Sets the maximum value of the envelope output.
  68:DaisySP/Source/Control/adenv.h ****         Input range: -FLTmax_, to FLTmax_
  69:DaisySP/Source/Control/adenv.h ****     */
  70:DaisySP/Source/Control/adenv.h ****     inline void SetMax(float max) { max_ = max; }
 2231              		.loc 8 70 17 view .LVU615
 2232              	.LBB739:
 2233              		.loc 8 70 37 view .LVU616
 2234              		.loc 8 70 42 is_stmt 0 view .LVU617
 2235 00c8 0B4B     		ldr	r3, .L139+40
 2236 00ca F269     		ldr	r2, [r6, #28]	@ float
 2237 00cc 9A61     		str	r2, [r3, #24]	@ float
 2238              	.LVL114:
 2239              		.loc 8 70 42 view .LVU618
 2240              	.LBE739:
 2241              	.LBE738:
 506:fjol.cpp      **** }
 2242              		.loc 7 506 1 view .LVU619
 2243 00ce F8BD     		pop	{r3, r4, r5, r6, r7, pc}
 2244              	.L140:
 2245              		.align	2
 2246              	.L139:
 2247 00d0 00000000 		.word	knob_value
 2248 00d4 20000000 		.word	.LANCHOR2+32
 2249 00d8 00000000 		.word	.LANCHOR4
 2250 00dc 00000000 		.word	.LANCHOR5
 2251 00e0 00000000 		.word	cv_mod
 2252 00e4 00000000 		.word	cv_value
 2253 00e8 00000000 		.word	params_changed
 2254 00ec 5C000000 		.word	.LANCHOR5+92
 2255 00f0 00000000 		.word	.LANCHOR1
 2256 00f4 00000000 		.word	0
 2257 00f8 00000000 		.word	.LANCHOR6
 2258              		.cfi_endproc
 2259              	.LFE4827:
 2261              		.section	.text._Z14updateSwitchesv,"ax",%progbits
 2262              		.align	1
 2263              		.p2align 2,,3
 2264              		.global	_Z14updateSwitchesv
 2265              		.syntax unified
 2266              		.thumb
 2267              		.thumb_func
 2269              	_Z14updateSwitchesv:
 2270              	.LFB4828:
 507:fjol.cpp      **** 
ARM GAS  /tmp/ccxnfbgf.s 			page 74


 508:fjol.cpp      **** void updateSwitches()
 509:fjol.cpp      **** {
 2271              		.loc 7 509 1 is_stmt 1 view -0
 2272              		.cfi_startproc
 2273              		@ args = 0, pretend = 0, frame = 0
 2274              		@ frame_needed = 0, uses_anonymous_args = 0
 510:fjol.cpp      ****   
 511:fjol.cpp      ****   shift_sw.Debounce();
 2275              		.loc 7 511 3 view .LVU621
 509:fjol.cpp      ****   
 2276              		.loc 7 509 1 is_stmt 0 view .LVU622
 2277 0000 2DE9F041 		push	{r4, r5, r6, r7, r8, lr}
 2278              		.cfi_def_cfa_offset 24
 2279              		.cfi_offset 4, -24
 2280              		.cfi_offset 5, -20
 2281              		.cfi_offset 6, -16
 2282              		.cfi_offset 7, -12
 2283              		.cfi_offset 8, -8
 2284              		.cfi_offset 14, -4
 2285 0004 4D4F     		ldr	r7, .L194
 2286              	.LBB787:
 512:fjol.cpp      ****   //get encoder switches
 513:fjol.cpp      ****   for(int i=0;i<2;i++)
 2287              		.loc 7 513 11 view .LVU623
 2288 0006 0025     		movs	r5, #0
 2289              	.LBE787:
 511:fjol.cpp      ****   //get encoder switches
 2290              		.loc 7 511 20 view .LVU624
 2291 0008 4D48     		ldr	r0, .L194+4
 2292 000a 3C46     		mov	r4, r7
 2293 000c 0646     		mov	r6, r0
 2294 000e FFF7FEFF 		bl	_ZN5daisy6Switch8DebounceEv
 2295              	.LVL115:
 2296              		.loc 7 513 3 is_stmt 1 view .LVU625
 2297              	.LBB802:
 2298              		.loc 7 513 16 view .LVU626
 514:fjol.cpp      ****   {
 515:fjol.cpp      ****     enc[i].enc.Debounce();
 2299              		.loc 7 515 5 view .LVU627
 2300              		.loc 7 515 24 is_stmt 0 view .LVU628
 2301 0012 2046     		mov	r0, r4
 2302 0014 FFF7FEFF 		bl	_ZN5daisy7Encoder8DebounceEv
 2303              	.LVL116:
 516:fjol.cpp      ****     if((shift_sw.Pressed() == false) && enc[i].enc.RisingEdge())
 2304              		.loc 7 516 5 is_stmt 1 view .LVU629
 2305              	.LBB788:
 2306              	.LBI788:
  43:libDaisy/src/hid/switch.h **** 
  44:libDaisy/src/hid/switch.h ****     /** 
  45:libDaisy/src/hid/switch.h ****     Initializes the switch object with a given port/pin combo.
  46:libDaisy/src/hid/switch.h ****     \param pin port/pin object to tell the switch which hardware pin to use.
  47:libDaisy/src/hid/switch.h ****     \param update_rate Does nothing. Backwards compatibility until next breaking update.
  48:libDaisy/src/hid/switch.h ****     \param t switch type -- Default: TYPE_MOMENTARY
  49:libDaisy/src/hid/switch.h ****     \param pol switch polarity -- Default: POLARITY_INVERTED
  50:libDaisy/src/hid/switch.h ****     \param pu switch pull up/down -- Default: PULL_UP
  51:libDaisy/src/hid/switch.h ****     */
  52:libDaisy/src/hid/switch.h ****     void
ARM GAS  /tmp/ccxnfbgf.s 			page 75


  53:libDaisy/src/hid/switch.h ****     Init(dsy_gpio_pin pin, float update_rate, Type t, Polarity pol, Pull pu);
  54:libDaisy/src/hid/switch.h **** 
  55:libDaisy/src/hid/switch.h ****     /**
  56:libDaisy/src/hid/switch.h ****        Simplified Init.
  57:libDaisy/src/hid/switch.h ****        \param pin port/pin object to tell the switch which hardware pin to use.
  58:libDaisy/src/hid/switch.h ****        \param update_rate Left for backwards compatibility until next breaking change.
  59:libDaisy/src/hid/switch.h ****     */
  60:libDaisy/src/hid/switch.h ****     void Init(dsy_gpio_pin pin, float update_rate = 0.f);
  61:libDaisy/src/hid/switch.h **** 
  62:libDaisy/src/hid/switch.h ****     /** 
  63:libDaisy/src/hid/switch.h ****     Called at update_rate to debounce and handle timing for the switch.
  64:libDaisy/src/hid/switch.h ****     In order for events not to be missed, its important that the Edge/Pressed checks
  65:libDaisy/src/hid/switch.h ****     be made at the same rate as the debounce function is being called.
  66:libDaisy/src/hid/switch.h ****     */
  67:libDaisy/src/hid/switch.h ****     void Debounce();
  68:libDaisy/src/hid/switch.h **** 
  69:libDaisy/src/hid/switch.h ****     /** \return true if a button was just pressed. */
  70:libDaisy/src/hid/switch.h ****     inline bool RisingEdge() const { return updated_ ? state_ == 0x7f : false; }
  71:libDaisy/src/hid/switch.h **** 
  72:libDaisy/src/hid/switch.h ****     /** \return true if the button was just released */
  73:libDaisy/src/hid/switch.h ****     inline bool FallingEdge() const
  74:libDaisy/src/hid/switch.h ****     {
  75:libDaisy/src/hid/switch.h ****         return updated_ ? state_ == 0x80 : false;
  76:libDaisy/src/hid/switch.h ****     }
  77:libDaisy/src/hid/switch.h **** 
  78:libDaisy/src/hid/switch.h ****     /** \return true if the button is held down (or if the toggle is on) */
  79:libDaisy/src/hid/switch.h ****     inline bool Pressed() const { return state_ == 0xff; }
 2307              		.loc 1 79 17 view .LVU630
 2308              	.LBB789:
 2309              		.loc 1 79 35 view .LVU631
 2310              		.loc 1 79 35 is_stmt 0 view .LVU632
 2311              	.LBE789:
 2312              	.LBE788:
 2313              		.loc 7 516 38 view .LVU633
 2314 0018 B37A     		ldrb	r3, [r6, #10]	@ zero_extendqisi2
 2315 001a FF2B     		cmp	r3, #255
 2316 001c 2AD0     		beq	.L149
 2317              	.L142:
 2318              	.LVL117:
 2319              	.LBB791:
 2320              	.LBI791:
 2321              		.file 12 "libDaisy/src/hid/encoder.h"
   1:libDaisy/src/hid/encoder.h **** #pragma once
   2:libDaisy/src/hid/encoder.h **** #ifndef DSY_ENCODER_H
   3:libDaisy/src/hid/encoder.h **** #define DSY_ENCODER_H
   4:libDaisy/src/hid/encoder.h **** #include "daisy_core.h"
   5:libDaisy/src/hid/encoder.h **** #include "per/gpio.h"
   6:libDaisy/src/hid/encoder.h **** #include "hid/switch.h"
   7:libDaisy/src/hid/encoder.h **** 
   8:libDaisy/src/hid/encoder.h **** namespace daisy
   9:libDaisy/src/hid/encoder.h **** {
  10:libDaisy/src/hid/encoder.h **** /** 
  11:libDaisy/src/hid/encoder.h ****     @brief Generic Class for handling Quadrature Encoders \n 
  12:libDaisy/src/hid/encoder.h ****     Inspired/influenced by Mutable Instruments (pichenettes) Encoder classes
  13:libDaisy/src/hid/encoder.h ****     @author Stephen Hensley
  14:libDaisy/src/hid/encoder.h ****     @date December 2019
  15:libDaisy/src/hid/encoder.h ****     @ingroup controls
ARM GAS  /tmp/ccxnfbgf.s 			page 76


  16:libDaisy/src/hid/encoder.h **** */
  17:libDaisy/src/hid/encoder.h **** class Encoder
  18:libDaisy/src/hid/encoder.h **** {
  19:libDaisy/src/hid/encoder.h ****   public:
  20:libDaisy/src/hid/encoder.h ****     Encoder() {}
  21:libDaisy/src/hid/encoder.h ****     ~Encoder() {}
  22:libDaisy/src/hid/encoder.h **** 
  23:libDaisy/src/hid/encoder.h ****     /** Initializes the encoder with the specified hardware pins.
  24:libDaisy/src/hid/encoder.h ****      * Update rate is to be deprecated in a future release
  25:libDaisy/src/hid/encoder.h ****      */
  26:libDaisy/src/hid/encoder.h ****     void Init(dsy_gpio_pin a,
  27:libDaisy/src/hid/encoder.h ****               dsy_gpio_pin b,
  28:libDaisy/src/hid/encoder.h ****               dsy_gpio_pin click,
  29:libDaisy/src/hid/encoder.h ****               float        update_rate = 0.f);
  30:libDaisy/src/hid/encoder.h ****     /** Called at update_rate to debounce and handle timing for the switch.
  31:libDaisy/src/hid/encoder.h ****      * In order for events not to be missed, its important that the Edge/Pressed checks be made at 
  32:libDaisy/src/hid/encoder.h ****      */
  33:libDaisy/src/hid/encoder.h ****     void Debounce();
  34:libDaisy/src/hid/encoder.h **** 
  35:libDaisy/src/hid/encoder.h ****     /** Returns +1 if the encoder was turned clockwise, -1 if it was turned counter-clockwise, or 0
  36:libDaisy/src/hid/encoder.h ****     inline int32_t Increment() const { return updated_ ? inc_ : 0; }
  37:libDaisy/src/hid/encoder.h **** 
  38:libDaisy/src/hid/encoder.h ****     /** Returns true if the encoder was just pressed. */
  39:libDaisy/src/hid/encoder.h ****     inline bool RisingEdge() const { return sw_.RisingEdge(); }
 2322              		.loc 12 39 17 is_stmt 1 discriminator 1 view .LVU634
 2323              	.LBE791:
 2324              	.LBE802:
 2325              		.loc 12 39 38 discriminator 1 view .LVU635
 2326              	.LBB803:
 2327              	.LBB794:
 2328              	.LBB792:
 2329              	.LBI792:
  70:libDaisy/src/hid/switch.h **** 
 2330              		.loc 1 70 17 discriminator 1 view .LVU636
 2331              	.LBB793:
  70:libDaisy/src/hid/switch.h **** 
 2332              		.loc 1 70 38 discriminator 1 view .LVU637
  70:libDaisy/src/hid/switch.h **** 
 2333              		.loc 1 70 54 is_stmt 0 discriminator 1 view .LVU638
 2334 001e 237B     		ldrb	r3, [r4, #12]	@ zero_extendqisi2
 2335 0020 13B1     		cbz	r3, .L146
 2336              	.LVL118:
  70:libDaisy/src/hid/switch.h **** 
 2337              		.loc 1 70 54 discriminator 1 view .LVU639
 2338              	.LBE793:
 2339              	.LBE792:
 2340              	.LBE794:
 2341              		.loc 7 516 38 view .LVU640
 2342 0022 A37C     		ldrb	r3, [r4, #18]	@ zero_extendqisi2
 2343 0024 7F2B     		cmp	r3, #127
 2344 0026 45D0     		beq	.L190
 2345              	.L146:
 513:fjol.cpp      ****   {
 2346              		.loc 7 513 3 is_stmt 1 discriminator 2 view .LVU641
 2347              	.LVL119:
 513:fjol.cpp      ****   {
 2348              		.loc 7 513 16 discriminator 2 view .LVU642
ARM GAS  /tmp/ccxnfbgf.s 			page 77


 2349 0028 2C34     		adds	r4, r4, #44
 2350 002a E5B1     		cbz	r5, .L155
 513:fjol.cpp      ****   {
 2351              		.loc 7 513 16 is_stmt 0 discriminator 2 view .LVU643
 2352              	.LBE803:
 517:fjol.cpp      ****     {
 518:fjol.cpp      ****       enc[i].ctldest = enc[i].ctldest+1;
 519:fjol.cpp      ****       if(enc[i].ctldest > 3 && i == 0){enc[i].ctldest = 0;}
 520:fjol.cpp      ****       if(enc[i].ctldest > 7 && i == 1){enc[i].ctldest = 0;}
 521:fjol.cpp      ****       led_takeover = 1;
 522:fjol.cpp      ****       ledlastmillis = System::GetNow();
 523:fjol.cpp      ****       led_menu_step(enc[i].ctldest,green);
 524:fjol.cpp      ****       //getorsetsettings(1,0); 
 525:fjol.cpp      ****     }
 526:fjol.cpp      ****     //ctl1 cv destination
 527:fjol.cpp      ****     if((shift_sw.Pressed() == true) && enc[i].enc.RisingEdge())
 528:fjol.cpp      ****     {
 529:fjol.cpp      ****       enc[i].ctlcvdest = enc[i].ctlcvdest+1;
 530:fjol.cpp      ****       if(enc[i].ctlcvdest > 3 && i == 0){enc[i].ctlcvdest = 0;}
 531:fjol.cpp      ****       if(enc[i].ctlcvdest > 7 && i == 1){enc[i].ctlcvdest = 0;}
 532:fjol.cpp      ****       led_takeover = 1;
 533:fjol.cpp      ****       ledlastmillis = System::GetNow();
 534:fjol.cpp      ****       led_menu_step(enc[i].ctlcvdest,red);
 535:fjol.cpp      ****       //getorsetsettings(1,0); 
 536:fjol.cpp      ****     }
 537:fjol.cpp      ****   }
 538:fjol.cpp      ****   //get algorithm switch
 539:fjol.cpp      ****   algo_sw.Debounce();
 2353              		.loc 7 539 3 is_stmt 1 view .LVU644
 2354              		.loc 7 539 19 is_stmt 0 view .LVU645
 2355 002c 454C     		ldr	r4, .L194+8
 2356 002e 2046     		mov	r0, r4
 2357 0030 FFF7FEFF 		bl	_ZN5daisy6Switch8DebounceEv
 2358              	.LVL120:
 540:fjol.cpp      ****   if(algo_sw.RisingEdge() && shift_sw.Pressed() == false)
 2359              		.loc 7 540 3 is_stmt 1 view .LVU646
 2360              	.LBB804:
 2361              	.LBI804:
  70:libDaisy/src/hid/switch.h **** 
 2362              		.loc 1 70 17 view .LVU647
 2363              	.LBB805:
  70:libDaisy/src/hid/switch.h **** 
 2364              		.loc 1 70 38 view .LVU648
  70:libDaisy/src/hid/switch.h **** 
 2365              		.loc 1 70 54 is_stmt 0 view .LVU649
 2366 0034 2379     		ldrb	r3, [r4, #4]	@ zero_extendqisi2
 2367 0036 2BB1     		cbz	r3, .L153
 2368              	.LVL121:
  70:libDaisy/src/hid/switch.h **** 
 2369              		.loc 1 70 54 view .LVU650
 2370              	.LBE805:
 2371              	.LBE804:
 2372              		.loc 7 540 27 view .LVU651
 2373 0038 A37A     		ldrb	r3, [r4, #10]	@ zero_extendqisi2
 2374 003a 7F2B     		cmp	r3, #127
 2375 003c 02D1     		bne	.L153
 2376              	.LVL122:
ARM GAS  /tmp/ccxnfbgf.s 			page 78


 2377              	.LBB806:
 2378              	.LBI806:
 2379              		.loc 1 79 17 is_stmt 1 view .LVU652
 2380              	.LBB807:
 2381              		.loc 1 79 35 view .LVU653
 2382              		.loc 1 79 35 is_stmt 0 view .LVU654
 2383              	.LBE807:
 2384              	.LBE806:
 2385              		.loc 7 540 27 view .LVU655
 2386 003e B37A     		ldrb	r3, [r6, #10]	@ zero_extendqisi2
 2387 0040 FF2B     		cmp	r3, #255
 2388 0042 5DD1     		bne	.L191
 2389              	.L153:
 541:fjol.cpp      ****   {
 542:fjol.cpp      ****     algo_select++;
 543:fjol.cpp      ****     algo_select = DSY_CLAMP(algo_select,0,3);
 544:fjol.cpp      ****      //PM algorithm select
 545:fjol.cpp      ****     //AudioNoInterrupts();
 546:fjol.cpp      ****     select_algorithm();
 547:fjol.cpp      ****     led_takeover = 1;
 548:fjol.cpp      ****     ledlastmillis = System::GetNow();
 549:fjol.cpp      ****     led_menu_step(algo_select,red);
 550:fjol.cpp      ****     //getorsetsettings(save); //save settings
